Archive member included to satisfy reference by file (symbol)

/home/lodge/STM32MP157/tf-a/tf-a-stm32mp/../build/optee/lib/libfdt.a(fdt.o)
                              /home/lodge/STM32MP157/tf-a/tf-a-stm32mp/../build/optee/bl2/stm32mp_dt.o (fdt_check_header)
/home/lodge/STM32MP157/tf-a/tf-a-stm32mp/../build/optee/lib/libfdt.a(fdt_addresses.o)
                              /home/lodge/STM32MP157/tf-a/tf-a-stm32mp/../build/optee/bl2/stm32mp_dt.o (fdt_address_cells)
/home/lodge/STM32MP157/tf-a/tf-a-stm32mp/../build/optee/lib/libfdt.a(fdt_ro.o)
                              /home/lodge/STM32MP157/tf-a/tf-a-stm32mp/../build/optee/bl2/stm32mp_clkfunc.o (fdt_get_name)
/home/lodge/STM32MP157/tf-a/tf-a-stm32mp/../build/optee/lib/libc.a(assert.o)
                              /home/lodge/STM32MP157/tf-a/tf-a-stm32mp/../build/optee/bl2/io_block.o (__assert)
/home/lodge/STM32MP157/tf-a/tf-a-stm32mp/../build/optee/lib/libc.a(memchr.o)
                              /home/lodge/STM32MP157/tf-a/tf-a-stm32mp/../build/optee/lib/libfdt.a(fdt_ro.o) (memchr)
/home/lodge/STM32MP157/tf-a/tf-a-stm32mp/../build/optee/lib/libc.a(memcmp.o)
                              /home/lodge/STM32MP157/tf-a/tf-a-stm32mp/../build/optee/bl2/stm32mp_crypto_lib.o (memcmp)
/home/lodge/STM32MP157/tf-a/tf-a-stm32mp/../build/optee/lib/libc.a(memcpy.o)
                              /home/lodge/STM32MP157/tf-a/tf-a-stm32mp/../build/optee/bl2/io_block.o (memcpy)
/home/lodge/STM32MP157/tf-a/tf-a-stm32mp/../build/optee/lib/libc.a(memmove.o)
                              /home/lodge/STM32MP157/tf-a/tf-a-stm32mp/../build/optee/bl2/xlat_tables_core.o (memmove)
/home/lodge/STM32MP157/tf-a/tf-a-stm32mp/../build/optee/lib/libc.a(memset.o)
                              /home/lodge/STM32MP157/tf-a/tf-a-stm32mp/../build/optee/bl2/xlat_tables_core.o (memset)
/home/lodge/STM32MP157/tf-a/tf-a-stm32mp/../build/optee/lib/libc.a(printf.o)
                              /home/lodge/STM32MP157/tf-a/tf-a-stm32mp/../build/optee/bl2/tf_log.o (vprintf)
/home/lodge/STM32MP157/tf-a/tf-a-stm32mp/../build/optee/lib/libc.a(putchar.o)
                              /home/lodge/STM32MP157/tf-a/tf-a-stm32mp/../build/optee/bl2/tf_log.o (putchar)
/home/lodge/STM32MP157/tf-a/tf-a-stm32mp/../build/optee/lib/libc.a(snprintf.o)
                              /home/lodge/STM32MP157/tf-a/tf-a-stm32mp/../build/optee/bl2/stm32mp1_clk.o (snprintf)
/home/lodge/STM32MP157/tf-a/tf-a-stm32mp/../build/optee/lib/libc.a(strchr.o)
                              /home/lodge/STM32MP157/tf-a/tf-a-stm32mp/../build/optee/bl2/stm32mp_dt.o (strchr)
/home/lodge/STM32MP157/tf-a/tf-a-stm32mp/../build/optee/lib/libc.a(strcmp.o)
                              /home/lodge/STM32MP157/tf-a/tf-a-stm32mp/../build/optee/bl2/partition.o (strcmp)
/home/lodge/STM32MP157/tf-a/tf-a-stm32mp/../build/optee/lib/libc.a(strlen.o)
                              /home/lodge/STM32MP157/tf-a/tf-a-stm32mp/../build/optee/bl2/stpmic1.o (strlen)
/home/lodge/STM32MP157/tf-a/tf-a-stm32mp/../build/optee/lib/libc.a(strncmp.o)
                              /home/lodge/STM32MP157/tf-a/tf-a-stm32mp/../build/optee/bl2/raw_nand.o (strncmp)
/home/lodge/STM32MP157/tf-a/tf-a-stm32mp/../build/optee/lib/libc.a(strnlen.o)
                              /home/lodge/STM32MP157/tf-a/tf-a-stm32mp/../build/optee/lib/libfdt.a(fdt_ro.o) (strnlen)
/home/lodge/STM32MP157/tf-a/tf-a-stm32mp/../build/optee/lib/libc.a(strrchr.o)
                              /home/lodge/STM32MP157/tf-a/tf-a-stm32mp/../build/optee/lib/libfdt.a(fdt_ro.o) (strrchr)

Discarded input sections

 .text          0x0000000000000000        0x0 /home/lodge/STM32MP157/tf-a/tf-a-stm32mp/../build/optee/bl2/build_message.o
 .data          0x0000000000000000        0x0 /home/lodge/STM32MP157/tf-a/tf-a-stm32mp/../build/optee/bl2/build_message.o
 .bss           0x0000000000000000        0x0 /home/lodge/STM32MP157/tf-a/tf-a-stm32mp/../build/optee/bl2/build_message.o
 .text          0x0000000000000000        0x0 /home/lodge/STM32MP157/tf-a/tf-a-stm32mp/../build/optee/bl2/io_block.o
 .data          0x0000000000000000        0x0 /home/lodge/STM32MP157/tf-a/tf-a-stm32mp/../build/optee/bl2/io_block.o
 .bss           0x0000000000000000        0x0 /home/lodge/STM32MP157/tf-a/tf-a-stm32mp/../build/optee/bl2/io_block.o
 .text          0x0000000000000000        0x0 /home/lodge/STM32MP157/tf-a/tf-a-stm32mp/../build/optee/bl2/io_dummy.o
 .data          0x0000000000000000        0x0 /home/lodge/STM32MP157/tf-a/tf-a-stm32mp/../build/optee/bl2/io_dummy.o
 .bss           0x0000000000000000        0x0 /home/lodge/STM32MP157/tf-a/tf-a-stm32mp/../build/optee/bl2/io_dummy.o
 .text          0x0000000000000000        0x0 /home/lodge/STM32MP157/tf-a/tf-a-stm32mp/../build/optee/bl2/io_mtd.o
 .data          0x0000000000000000        0x0 /home/lodge/STM32MP157/tf-a/tf-a-stm32mp/../build/optee/bl2/io_mtd.o
 .bss           0x0000000000000000        0x0 /home/lodge/STM32MP157/tf-a/tf-a-stm32mp/../build/optee/bl2/io_mtd.o
 .text          0x0000000000000000        0x0 /home/lodge/STM32MP157/tf-a/tf-a-stm32mp/../build/optee/bl2/io_storage.o
 .data          0x0000000000000000        0x0 /home/lodge/STM32MP157/tf-a/tf-a-stm32mp/../build/optee/bl2/io_storage.o
 .bss           0x0000000000000000        0x0 /home/lodge/STM32MP157/tf-a/tf-a-stm32mp/../build/optee/bl2/io_storage.o
 .text.io_write
                0x0000000000000000       0x48 /home/lodge/STM32MP157/tf-a/tf-a-stm32mp/../build/optee/bl2/io_storage.o
 .text          0x0000000000000000        0x0 /home/lodge/STM32MP157/tf-a/tf-a-stm32mp/../build/optee/bl2/stm32_hash.o
 .data          0x0000000000000000        0x0 /home/lodge/STM32MP157/tf-a/tf-a-stm32mp/../build/optee/bl2/stm32_hash.o
 .bss           0x0000000000000000        0x0 /home/lodge/STM32MP157/tf-a/tf-a-stm32mp/../build/optee/bl2/stm32_hash.o
 .text          0x0000000000000000        0x0 /home/lodge/STM32MP157/tf-a/tf-a-stm32mp/../build/optee/bl2/io_stm32image.o
 .data          0x0000000000000000        0x0 /home/lodge/STM32MP157/tf-a/tf-a-stm32mp/../build/optee/bl2/io_stm32image.o
 .bss           0x0000000000000000        0x0 /home/lodge/STM32MP157/tf-a/tf-a-stm32mp/../build/optee/bl2/io_stm32image.o
 .text          0x0000000000000000        0x0 /home/lodge/STM32MP157/tf-a/tf-a-stm32mp/../build/optee/bl2/bl2_io_storage.o
 .data          0x0000000000000000        0x0 /home/lodge/STM32MP157/tf-a/tf-a-stm32mp/../build/optee/bl2/bl2_io_storage.o
 .bss           0x0000000000000000        0x0 /home/lodge/STM32MP157/tf-a/tf-a-stm32mp/../build/optee/bl2/bl2_io_storage.o
 .text          0x0000000000000000        0x0 /home/lodge/STM32MP157/tf-a/tf-a-stm32mp/../build/optee/bl2/bl2_plat_setup.o
 .data          0x0000000000000000        0x0 /home/lodge/STM32MP157/tf-a/tf-a-stm32mp/../build/optee/bl2/bl2_plat_setup.o
 .bss           0x0000000000000000        0x0 /home/lodge/STM32MP157/tf-a/tf-a-stm32mp/../build/optee/bl2/bl2_plat_setup.o
 .text          0x0000000000000000        0x0 /home/lodge/STM32MP157/tf-a/tf-a-stm32mp/../build/optee/bl2/auth_mod.o
 .data          0x0000000000000000        0x0 /home/lodge/STM32MP157/tf-a/tf-a-stm32mp/../build/optee/bl2/auth_mod.o
 .bss           0x0000000000000000        0x0 /home/lodge/STM32MP157/tf-a/tf-a-stm32mp/../build/optee/bl2/auth_mod.o
 .text          0x0000000000000000        0x0 /home/lodge/STM32MP157/tf-a/tf-a-stm32mp/../build/optee/bl2/crypto_mod.o
 .data          0x0000000000000000        0x0 /home/lodge/STM32MP157/tf-a/tf-a-stm32mp/../build/optee/bl2/crypto_mod.o
 .bss           0x0000000000000000        0x0 /home/lodge/STM32MP157/tf-a/tf-a-stm32mp/../build/optee/bl2/crypto_mod.o
 .text          0x0000000000000000        0x0 /home/lodge/STM32MP157/tf-a/tf-a-stm32mp/../build/optee/bl2/img_parser_mod.o
 .data          0x0000000000000000        0x0 /home/lodge/STM32MP157/tf-a/tf-a-stm32mp/../build/optee/bl2/img_parser_mod.o
 .bss           0x0000000000000000        0x0 /home/lodge/STM32MP157/tf-a/tf-a-stm32mp/../build/optee/bl2/img_parser_mod.o
 .text          0x0000000000000000        0x0 /home/lodge/STM32MP157/tf-a/tf-a-stm32mp/../build/optee/bl2/stm32mp_cot.o
 .data          0x0000000000000000        0x0 /home/lodge/STM32MP157/tf-a/tf-a-stm32mp/../build/optee/bl2/stm32mp_cot.o
 .bss           0x0000000000000000        0x0 /home/lodge/STM32MP157/tf-a/tf-a-stm32mp/../build/optee/bl2/stm32mp_cot.o
 .text          0x0000000000000000        0x0 /home/lodge/STM32MP157/tf-a/tf-a-stm32mp/../build/optee/bl2/stm32mp_crypto_lib.o
 .data          0x0000000000000000        0x0 /home/lodge/STM32MP157/tf-a/tf-a-stm32mp/../build/optee/bl2/stm32mp_crypto_lib.o
 .bss           0x0000000000000000        0x0 /home/lodge/STM32MP157/tf-a/tf-a-stm32mp/../build/optee/bl2/stm32mp_crypto_lib.o
 .text          0x0000000000000000        0x0 /home/lodge/STM32MP157/tf-a/tf-a-stm32mp/../build/optee/bl2/stm32mp_img_parser_lib.o
 .data          0x0000000000000000        0x0 /home/lodge/STM32MP157/tf-a/tf-a-stm32mp/../build/optee/bl2/stm32mp_img_parser_lib.o
 .bss           0x0000000000000000        0x0 /home/lodge/STM32MP157/tf-a/tf-a-stm32mp/../build/optee/bl2/stm32mp_img_parser_lib.o
 .text          0x0000000000000000        0x0 /home/lodge/STM32MP157/tf-a/tf-a-stm32mp/../build/optee/bl2/stm32mp_trusted_boot.o
 .data          0x0000000000000000        0x0 /home/lodge/STM32MP157/tf-a/tf-a-stm32mp/../build/optee/bl2/stm32mp_trusted_boot.o
 .bss           0x0000000000000000        0x0 /home/lodge/STM32MP157/tf-a/tf-a-stm32mp/../build/optee/bl2/stm32mp_trusted_boot.o
 .text          0x0000000000000000        0x0 /home/lodge/STM32MP157/tf-a/tf-a-stm32mp/../build/optee/bl2/mmc.o
 .data          0x0000000000000000        0x0 /home/lodge/STM32MP157/tf-a/tf-a-stm32mp/../build/optee/bl2/mmc.o
 .bss           0x0000000000000000        0x0 /home/lodge/STM32MP157/tf-a/tf-a-stm32mp/../build/optee/bl2/mmc.o
 .text.mmc_write_blocks
                0x0000000000000000       0xc8 /home/lodge/STM32MP157/tf-a/tf-a-stm32mp/../build/optee/bl2/mmc.o
 .text.mmc_erase_blocks
                0x0000000000000000       0x6c /home/lodge/STM32MP157/tf-a/tf-a-stm32mp/../build/optee/bl2/mmc.o
 .text.mmc_rpmb_read_blocks
                0x0000000000000000       0x28 /home/lodge/STM32MP157/tf-a/tf-a-stm32mp/../build/optee/bl2/mmc.o
 .text.mmc_rpmb_write_blocks
                0x0000000000000000       0x28 /home/lodge/STM32MP157/tf-a/tf-a-stm32mp/../build/optee/bl2/mmc.o
 .text.mmc_rpmb_erase_blocks
                0x0000000000000000       0x24 /home/lodge/STM32MP157/tf-a/tf-a-stm32mp/../build/optee/bl2/mmc.o
 .text          0x0000000000000000        0x0 /home/lodge/STM32MP157/tf-a/tf-a-stm32mp/../build/optee/bl2/gpt.o
 .data          0x0000000000000000        0x0 /home/lodge/STM32MP157/tf-a/tf-a-stm32mp/../build/optee/bl2/gpt.o
 .bss           0x0000000000000000        0x0 /home/lodge/STM32MP157/tf-a/tf-a-stm32mp/../build/optee/bl2/gpt.o
 .text          0x0000000000000000        0x0 /home/lodge/STM32MP157/tf-a/tf-a-stm32mp/../build/optee/bl2/partition.o
 .data          0x0000000000000000        0x0 /home/lodge/STM32MP157/tf-a/tf-a-stm32mp/../build/optee/bl2/partition.o
 .bss           0x0000000000000000        0x0 /home/lodge/STM32MP157/tf-a/tf-a-stm32mp/../build/optee/bl2/partition.o
 .text.get_partition_entry_list
                0x0000000000000000        0x8 /home/lodge/STM32MP157/tf-a/tf-a-stm32mp/../build/optee/bl2/partition.o
 .text          0x0000000000000000        0x0 /home/lodge/STM32MP157/tf-a/tf-a-stm32mp/../build/optee/bl2/io_mmc.o
 .data          0x0000000000000000        0x0 /home/lodge/STM32MP157/tf-a/tf-a-stm32mp/../build/optee/bl2/io_mmc.o
 .bss           0x0000000000000000        0x0 /home/lodge/STM32MP157/tf-a/tf-a-stm32mp/../build/optee/bl2/io_mmc.o
 .text          0x0000000000000000        0x0 /home/lodge/STM32MP157/tf-a/tf-a-stm32mp/../build/optee/bl2/stm32_sdmmc2.o
 .data          0x0000000000000000        0x0 /home/lodge/STM32MP157/tf-a/tf-a-stm32mp/../build/optee/bl2/stm32_sdmmc2.o
 .bss           0x0000000000000000        0x0 /home/lodge/STM32MP157/tf-a/tf-a-stm32mp/../build/optee/bl2/stm32_sdmmc2.o
 .text          0x0000000000000000        0x0 /home/lodge/STM32MP157/tf-a/tf-a-stm32mp/../build/optee/bl2/raw_nand.o
 .data          0x0000000000000000        0x0 /home/lodge/STM32MP157/tf-a/tf-a-stm32mp/../build/optee/bl2/raw_nand.o
 .bss           0x0000000000000000        0x0 /home/lodge/STM32MP157/tf-a/tf-a-stm32mp/../build/optee/bl2/raw_nand.o
 .text.plat_get_raw_nand_data
                0x0000000000000000        0x4 /home/lodge/STM32MP157/tf-a/tf-a-stm32mp/../build/optee/bl2/raw_nand.o
 .text          0x0000000000000000        0x0 /home/lodge/STM32MP157/tf-a/tf-a-stm32mp/../build/optee/bl2/stm32_fmc2_nand.o
 .data          0x0000000000000000        0x0 /home/lodge/STM32MP157/tf-a/tf-a-stm32mp/../build/optee/bl2/stm32_fmc2_nand.o
 .bss           0x0000000000000000        0x0 /home/lodge/STM32MP157/tf-a/tf-a-stm32mp/../build/optee/bl2/stm32_fmc2_nand.o
 .text          0x0000000000000000        0x0 /home/lodge/STM32MP157/tf-a/tf-a-stm32mp/../build/optee/bl2/spi_nand.o
 .data          0x0000000000000000        0x0 /home/lodge/STM32MP157/tf-a/tf-a-stm32mp/../build/optee/bl2/spi_nand.o
 .bss           0x0000000000000000        0x0 /home/lodge/STM32MP157/tf-a/tf-a-stm32mp/../build/optee/bl2/spi_nand.o
 .text.plat_get_spi_nand_data
                0x0000000000000000        0x4 /home/lodge/STM32MP157/tf-a/tf-a-stm32mp/../build/optee/bl2/spi_nand.o
 .text          0x0000000000000000        0x0 /home/lodge/STM32MP157/tf-a/tf-a-stm32mp/../build/optee/bl2/spi_nor.o
 .data          0x0000000000000000        0x0 /home/lodge/STM32MP157/tf-a/tf-a-stm32mp/../build/optee/bl2/spi_nor.o
 .bss           0x0000000000000000        0x0 /home/lodge/STM32MP157/tf-a/tf-a-stm32mp/../build/optee/bl2/spi_nor.o
 .text.plat_get_nor_data
                0x0000000000000000        0x4 /home/lodge/STM32MP157/tf-a/tf-a-stm32mp/../build/optee/bl2/spi_nor.o
 .text          0x0000000000000000        0x0 /home/lodge/STM32MP157/tf-a/tf-a-stm32mp/../build/optee/bl2/spi_mem.o
 .data          0x0000000000000000        0x0 /home/lodge/STM32MP157/tf-a/tf-a-stm32mp/../build/optee/bl2/spi_mem.o
 .bss           0x0000000000000000        0x0 /home/lodge/STM32MP157/tf-a/tf-a-stm32mp/../build/optee/bl2/spi_mem.o
 .text          0x0000000000000000        0x0 /home/lodge/STM32MP157/tf-a/tf-a-stm32mp/../build/optee/bl2/stm32_qspi.o
 .data          0x0000000000000000        0x0 /home/lodge/STM32MP157/tf-a/tf-a-stm32mp/../build/optee/bl2/stm32_qspi.o
 .bss           0x0000000000000000        0x0 /home/lodge/STM32MP157/tf-a/tf-a-stm32mp/../build/optee/bl2/stm32_qspi.o
 .text          0x0000000000000000        0x0 /home/lodge/STM32MP157/tf-a/tf-a-stm32mp/../build/optee/bl2/core.o
 .data          0x0000000000000000        0x0 /home/lodge/STM32MP157/tf-a/tf-a-stm32mp/../build/optee/bl2/core.o
 .bss           0x0000000000000000        0x0 /home/lodge/STM32MP157/tf-a/tf-a-stm32mp/../build/optee/bl2/core.o
 .text          0x0000000000000000        0x0 /home/lodge/STM32MP157/tf-a/tf-a-stm32mp/../build/optee/bl2/stm32mp1_boot_device.o
 .data          0x0000000000000000        0x0 /home/lodge/STM32MP157/tf-a/tf-a-stm32mp/../build/optee/bl2/stm32mp1_boot_device.o
 .bss           0x0000000000000000        0x0 /home/lodge/STM32MP157/tf-a/tf-a-stm32mp/../build/optee/bl2/stm32mp1_boot_device.o
 .text          0x0000000000000000        0x0 /home/lodge/STM32MP157/tf-a/tf-a-stm32mp/../build/optee/bl2/stm32mp1_ddr.o
 .data          0x0000000000000000        0x0 /home/lodge/STM32MP157/tf-a/tf-a-stm32mp/../build/optee/bl2/stm32mp1_ddr.o
 .bss           0x0000000000000000        0x0 /home/lodge/STM32MP157/tf-a/tf-a-stm32mp/../build/optee/bl2/stm32mp1_ddr.o
 .text          0x0000000000000000        0x0 /home/lodge/STM32MP157/tf-a/tf-a-stm32mp/../build/optee/bl2/stm32mp1_ram.o
 .data          0x0000000000000000        0x0 /home/lodge/STM32MP157/tf-a/tf-a-stm32mp/../build/optee/bl2/stm32mp1_ram.o
 .bss           0x0000000000000000        0x0 /home/lodge/STM32MP157/tf-a/tf-a-stm32mp/../build/optee/bl2/stm32mp1_ram.o
 .text          0x0000000000000000        0x0 /home/lodge/STM32MP157/tf-a/tf-a-stm32mp/../build/optee/bl2/desc_image_load.o
 .data          0x0000000000000000        0x0 /home/lodge/STM32MP157/tf-a/tf-a-stm32mp/../build/optee/bl2/desc_image_load.o
 .bss           0x0000000000000000        0x0 /home/lodge/STM32MP157/tf-a/tf-a-stm32mp/../build/optee/bl2/desc_image_load.o
 .text.populate_next_bl_params_config
                0x0000000000000000       0x64 /home/lodge/STM32MP157/tf-a/tf-a-stm32mp/../build/optee/bl2/desc_image_load.o
 .text.bl31_params_parse_helper
                0x0000000000000000       0x98 /home/lodge/STM32MP157/tf-a/tf-a-stm32mp/../build/optee/bl2/desc_image_load.o
 .text          0x0000000000000000        0x0 /home/lodge/STM32MP157/tf-a/tf-a-stm32mp/../build/optee/bl2/plat_bl2_mem_params_desc.o
 .data          0x0000000000000000        0x0 /home/lodge/STM32MP157/tf-a/tf-a-stm32mp/../build/optee/bl2/plat_bl2_mem_params_desc.o
 .bss           0x0000000000000000        0x0 /home/lodge/STM32MP157/tf-a/tf-a-stm32mp/../build/optee/bl2/plat_bl2_mem_params_desc.o
 .text          0x0000000000000000        0x0 /home/lodge/STM32MP157/tf-a/tf-a-stm32mp/../build/optee/bl2/plat_image_load.o
 .data          0x0000000000000000        0x0 /home/lodge/STM32MP157/tf-a/tf-a-stm32mp/../build/optee/bl2/plat_image_load.o
 .bss           0x0000000000000000        0x0 /home/lodge/STM32MP157/tf-a/tf-a-stm32mp/../build/optee/bl2/plat_image_load.o
 .text          0x0000000000000000        0x0 /home/lodge/STM32MP157/tf-a/tf-a-stm32mp/../build/optee/bl2/optee_utils.o
 .data          0x0000000000000000        0x0 /home/lodge/STM32MP157/tf-a/tf-a-stm32mp/../build/optee/bl2/optee_utils.o
 .bss           0x0000000000000000        0x0 /home/lodge/STM32MP157/tf-a/tf-a-stm32mp/../build/optee/bl2/optee_utils.o
 .text          0x0000000000000000        0x0 /home/lodge/STM32MP157/tf-a/tf-a-stm32mp/../build/optee/bl2/bl2_image_load_v2.o
 .data          0x0000000000000000        0x0 /home/lodge/STM32MP157/tf-a/tf-a-stm32mp/../build/optee/bl2/bl2_image_load_v2.o
 .bss           0x0000000000000000        0x0 /home/lodge/STM32MP157/tf-a/tf-a-stm32mp/../build/optee/bl2/bl2_image_load_v2.o
 .text          0x0000000000000000        0x0 /home/lodge/STM32MP157/tf-a/tf-a-stm32mp/../build/optee/bl2/bl2_main.o
 .data          0x0000000000000000        0x0 /home/lodge/STM32MP157/tf-a/tf-a-stm32mp/../build/optee/bl2/bl2_main.o
 .bss           0x0000000000000000        0x0 /home/lodge/STM32MP157/tf-a/tf-a-stm32mp/../build/optee/bl2/bl2_main.o
 .text          0x0000000000000000        0x0 /home/lodge/STM32MP157/tf-a/tf-a-stm32mp/../build/optee/bl2/bl2_arch_setup.o
 .data          0x0000000000000000        0x0 /home/lodge/STM32MP157/tf-a/tf-a-stm32mp/../build/optee/bl2/bl2_arch_setup.o
 .bss           0x0000000000000000        0x0 /home/lodge/STM32MP157/tf-a/tf-a-stm32mp/../build/optee/bl2/bl2_arch_setup.o
 .text          0x0000000000000000        0x0 /home/lodge/STM32MP157/tf-a/tf-a-stm32mp/../build/optee/bl2/errata_report.o
 .data          0x0000000000000000        0x0 /home/lodge/STM32MP157/tf-a/tf-a-stm32mp/../build/optee/bl2/errata_report.o
 .bss           0x0000000000000000        0x0 /home/lodge/STM32MP157/tf-a/tf-a-stm32mp/../build/optee/bl2/errata_report.o
 .text.errata_needs_reporting
                0x0000000000000000       0x2a /home/lodge/STM32MP157/tf-a/tf-a-stm32mp/../build/optee/bl2/errata_report.o
 .rodata.errata_print_msg.str1.1
                0x0000000000000000       0x7c /home/lodge/STM32MP157/tf-a/tf-a-stm32mp/../build/optee/bl2/errata_report.o
 .text.errata_print_msg
                0x0000000000000000       0x60 /home/lodge/STM32MP157/tf-a/tf-a-stm32mp/../build/optee/bl2/errata_report.o
 .debug_info    0x0000000000000000      0x2b7 /home/lodge/STM32MP157/tf-a/tf-a-stm32mp/../build/optee/bl2/errata_report.o
 .debug_abbrev  0x0000000000000000      0x17c /home/lodge/STM32MP157/tf-a/tf-a-stm32mp/../build/optee/bl2/errata_report.o
 .debug_loc     0x0000000000000000      0x242 /home/lodge/STM32MP157/tf-a/tf-a-stm32mp/../build/optee/bl2/errata_report.o
 .debug_aranges
                0x0000000000000000       0x28 /home/lodge/STM32MP157/tf-a/tf-a-stm32mp/../build/optee/bl2/errata_report.o
 .debug_ranges  0x0000000000000000       0x18 /home/lodge/STM32MP157/tf-a/tf-a-stm32mp/../build/optee/bl2/errata_report.o
 .debug_line    0x0000000000000000      0x1a5 /home/lodge/STM32MP157/tf-a/tf-a-stm32mp/../build/optee/bl2/errata_report.o
 .debug_str     0x0000000000000000      0x28a /home/lodge/STM32MP157/tf-a/tf-a-stm32mp/../build/optee/bl2/errata_report.o
 .comment       0x0000000000000000       0x5e /home/lodge/STM32MP157/tf-a/tf-a-stm32mp/../build/optee/bl2/errata_report.o
 .note.GNU-stack
                0x0000000000000000        0x0 /home/lodge/STM32MP157/tf-a/tf-a-stm32mp/../build/optee/bl2/errata_report.o
 .debug_frame   0x0000000000000000       0x48 /home/lodge/STM32MP157/tf-a/tf-a-stm32mp/../build/optee/bl2/errata_report.o
 .ARM.attributes
                0x0000000000000000       0x33 /home/lodge/STM32MP157/tf-a/tf-a-stm32mp/../build/optee/bl2/errata_report.o
 .text          0x0000000000000000        0x0 /home/lodge/STM32MP157/tf-a/tf-a-stm32mp/../build/optee/bl2/bl_common.o
 .data          0x0000000000000000        0x0 /home/lodge/STM32MP157/tf-a/tf-a-stm32mp/../build/optee/bl2/bl_common.o
 .bss           0x0000000000000000        0x0 /home/lodge/STM32MP157/tf-a/tf-a-stm32mp/../build/optee/bl2/bl_common.o
 .text.page_align
                0x0000000000000000       0x18 /home/lodge/STM32MP157/tf-a/tf-a-stm32mp/../build/optee/bl2/bl_common.o
 .text          0x0000000000000000        0x0 /home/lodge/STM32MP157/tf-a/tf-a-stm32mp/../build/optee/bl2/tf_log.o
 .data          0x0000000000000000        0x0 /home/lodge/STM32MP157/tf-a/tf-a-stm32mp/../build/optee/bl2/tf_log.o
 .bss           0x0000000000000000        0x0 /home/lodge/STM32MP157/tf-a/tf-a-stm32mp/../build/optee/bl2/tf_log.o
 .text.tf_log_set_max_level
                0x0000000000000000       0x30 /home/lodge/STM32MP157/tf-a/tf-a-stm32mp/../build/optee/bl2/tf_log.o
 .text          0x0000000000000000        0x0 /home/lodge/STM32MP157/tf-a/tf-a-stm32mp/../build/optee/bl2/multi_console.o
 .data          0x0000000000000000        0x0 /home/lodge/STM32MP157/tf-a/tf-a-stm32mp/../build/optee/bl2/multi_console.o
 .bss           0x0000000000000000        0x0 /home/lodge/STM32MP157/tf-a/tf-a-stm32mp/../build/optee/bl2/multi_console.o
 .text.console_unregister
                0x0000000000000000       0x2c /home/lodge/STM32MP157/tf-a/tf-a-stm32mp/../build/optee/bl2/multi_console.o
 .text.console_switch_state
                0x0000000000000000        0xc /home/lodge/STM32MP157/tf-a/tf-a-stm32mp/../build/optee/bl2/multi_console.o
 .text.console_getc
                0x0000000000000000       0x3c /home/lodge/STM32MP157/tf-a/tf-a-stm32mp/../build/optee/bl2/multi_console.o
 .text          0x0000000000000000        0x0 /home/lodge/STM32MP157/tf-a/tf-a-stm32mp/../build/optee/bl2/plat_bl_common.o
 .data          0x0000000000000000        0x0 /home/lodge/STM32MP157/tf-a/tf-a-stm32mp/../build/optee/bl2/plat_bl_common.o
 .bss           0x0000000000000000        0x0 /home/lodge/STM32MP157/tf-a/tf-a-stm32mp/../build/optee/bl2/plat_bl_common.o
 .text.bl2_plat_handle_post_image_load
                0x0000000000000000        0x4 /home/lodge/STM32MP157/tf-a/tf-a-stm32mp/../build/optee/bl2/plat_bl_common.o
 .text.plat_try_next_boot_source
                0x0000000000000000        0x4 /home/lodge/STM32MP157/tf-a/tf-a-stm32mp/../build/optee/bl2/plat_bl_common.o
 .text.setup_page_tables
                0x0000000000000000       0x16 /home/lodge/STM32MP157/tf-a/tf-a-stm32mp/../build/optee/bl2/plat_bl_common.o
 .text          0x0000000000000000        0x0 /home/lodge/STM32MP157/tf-a/tf-a-stm32mp/../build/optee/bl2/plat_log_common.o
 .data          0x0000000000000000        0x0 /home/lodge/STM32MP157/tf-a/tf-a-stm32mp/../build/optee/bl2/plat_log_common.o
 .bss           0x0000000000000000        0x0 /home/lodge/STM32MP157/tf-a/tf-a-stm32mp/../build/optee/bl2/plat_log_common.o
 .text          0x0000000000000000        0x0 /home/lodge/STM32MP157/tf-a/tf-a-stm32mp/../build/optee/bl2/plat_common.o
 .data          0x0000000000000000        0x0 /home/lodge/STM32MP157/tf-a/tf-a-stm32mp/../build/optee/bl2/plat_common.o
 .bss           0x0000000000000000        0x0 /home/lodge/STM32MP157/tf-a/tf-a-stm32mp/../build/optee/bl2/plat_common.o
 .text.bl32_plat_enable_mmu
                0x0000000000000000        0x4 /home/lodge/STM32MP157/tf-a/tf-a-stm32mp/../build/optee/bl2/plat_common.o
 .debug_info    0x0000000000000000      0x148 /home/lodge/STM32MP157/tf-a/tf-a-stm32mp/../build/optee/bl2/plat_common.o
 .debug_abbrev  0x0000000000000000       0xcf /home/lodge/STM32MP157/tf-a/tf-a-stm32mp/../build/optee/bl2/plat_common.o
 .debug_loc     0x0000000000000000       0x25 /home/lodge/STM32MP157/tf-a/tf-a-stm32mp/../build/optee/bl2/plat_common.o
 .debug_aranges
                0x0000000000000000       0x20 /home/lodge/STM32MP157/tf-a/tf-a-stm32mp/../build/optee/bl2/plat_common.o
 .debug_ranges  0x0000000000000000       0x10 /home/lodge/STM32MP157/tf-a/tf-a-stm32mp/../build/optee/bl2/plat_common.o
 .debug_line    0x0000000000000000       0xf4 /home/lodge/STM32MP157/tf-a/tf-a-stm32mp/../build/optee/bl2/plat_common.o
 .debug_str     0x0000000000000000      0x220 /home/lodge/STM32MP157/tf-a/tf-a-stm32mp/../build/optee/bl2/plat_common.o
 .comment       0x0000000000000000       0x5e /home/lodge/STM32MP157/tf-a/tf-a-stm32mp/../build/optee/bl2/plat_common.o
 .note.GNU-stack
                0x0000000000000000        0x0 /home/lodge/STM32MP157/tf-a/tf-a-stm32mp/../build/optee/bl2/plat_common.o
 .debug_frame   0x0000000000000000       0x20 /home/lodge/STM32MP157/tf-a/tf-a-stm32mp/../build/optee/bl2/plat_common.o
 .ARM.attributes
                0x0000000000000000       0x33 /home/lodge/STM32MP157/tf-a/tf-a-stm32mp/../build/optee/bl2/plat_common.o
 .text          0x0000000000000000        0x0 /home/lodge/STM32MP157/tf-a/tf-a-stm32mp/../build/optee/bl2/popcountdi2.o
 .data          0x0000000000000000        0x0 /home/lodge/STM32MP157/tf-a/tf-a-stm32mp/../build/optee/bl2/popcountdi2.o
 .bss           0x0000000000000000        0x0 /home/lodge/STM32MP157/tf-a/tf-a-stm32mp/../build/optee/bl2/popcountdi2.o
 .text.__popcountdi2
                0x0000000000000000       0x52 /home/lodge/STM32MP157/tf-a/tf-a-stm32mp/../build/optee/bl2/popcountdi2.o
 .debug_info    0x0000000000000000      0x114 /home/lodge/STM32MP157/tf-a/tf-a-stm32mp/../build/optee/bl2/popcountdi2.o
 .debug_abbrev  0x0000000000000000       0x7d /home/lodge/STM32MP157/tf-a/tf-a-stm32mp/../build/optee/bl2/popcountdi2.o
 .debug_loc     0x0000000000000000       0xc9 /home/lodge/STM32MP157/tf-a/tf-a-stm32mp/../build/optee/bl2/popcountdi2.o
 .debug_aranges
                0x0000000000000000       0x20 /home/lodge/STM32MP157/tf-a/tf-a-stm32mp/../build/optee/bl2/popcountdi2.o
 .debug_ranges  0x0000000000000000       0x10 /home/lodge/STM32MP157/tf-a/tf-a-stm32mp/../build/optee/bl2/popcountdi2.o
 .debug_line    0x0000000000000000       0xc6 /home/lodge/STM32MP157/tf-a/tf-a-stm32mp/../build/optee/bl2/popcountdi2.o
 .debug_str     0x0000000000000000      0x21d /home/lodge/STM32MP157/tf-a/tf-a-stm32mp/../build/optee/bl2/popcountdi2.o
 .comment       0x0000000000000000       0x5e /home/lodge/STM32MP157/tf-a/tf-a-stm32mp/../build/optee/bl2/popcountdi2.o
 .note.GNU-stack
                0x0000000000000000        0x0 /home/lodge/STM32MP157/tf-a/tf-a-stm32mp/../build/optee/bl2/popcountdi2.o
 .debug_frame   0x0000000000000000       0x20 /home/lodge/STM32MP157/tf-a/tf-a-stm32mp/../build/optee/bl2/popcountdi2.o
 .ARM.attributes
                0x0000000000000000       0x33 /home/lodge/STM32MP157/tf-a/tf-a-stm32mp/../build/optee/bl2/popcountdi2.o
 .text          0x0000000000000000        0x0 /home/lodge/STM32MP157/tf-a/tf-a-stm32mp/../build/optee/bl2/popcountsi2.o
 .data          0x0000000000000000        0x0 /home/lodge/STM32MP157/tf-a/tf-a-stm32mp/../build/optee/bl2/popcountsi2.o
 .bss           0x0000000000000000        0x0 /home/lodge/STM32MP157/tf-a/tf-a-stm32mp/../build/optee/bl2/popcountsi2.o
 .text          0x0000000000000000        0x0 /home/lodge/STM32MP157/tf-a/tf-a-stm32mp/../build/optee/bl2/ctzdi2.o
 .data          0x0000000000000000        0x0 /home/lodge/STM32MP157/tf-a/tf-a-stm32mp/../build/optee/bl2/ctzdi2.o
 .bss           0x0000000000000000        0x0 /home/lodge/STM32MP157/tf-a/tf-a-stm32mp/../build/optee/bl2/ctzdi2.o
 .text          0x0000000000000000        0x0 /home/lodge/STM32MP157/tf-a/tf-a-stm32mp/../build/optee/bl2/divdi3.o
 .data          0x0000000000000000        0x0 /home/lodge/STM32MP157/tf-a/tf-a-stm32mp/../build/optee/bl2/divdi3.o
 .bss           0x0000000000000000        0x0 /home/lodge/STM32MP157/tf-a/tf-a-stm32mp/../build/optee/bl2/divdi3.o
 .text.__divdi3
                0x0000000000000000       0x3e /home/lodge/STM32MP157/tf-a/tf-a-stm32mp/../build/optee/bl2/divdi3.o
 .debug_info    0x0000000000000000      0x144 /home/lodge/STM32MP157/tf-a/tf-a-stm32mp/../build/optee/bl2/divdi3.o
 .debug_abbrev  0x0000000000000000       0xc1 /home/lodge/STM32MP157/tf-a/tf-a-stm32mp/../build/optee/bl2/divdi3.o
 .debug_loc     0x0000000000000000       0x9e /home/lodge/STM32MP157/tf-a/tf-a-stm32mp/../build/optee/bl2/divdi3.o
 .debug_aranges
                0x0000000000000000       0x20 /home/lodge/STM32MP157/tf-a/tf-a-stm32mp/../build/optee/bl2/divdi3.o
 .debug_ranges  0x0000000000000000       0x10 /home/lodge/STM32MP157/tf-a/tf-a-stm32mp/../build/optee/bl2/divdi3.o
 .debug_line    0x0000000000000000       0xa9 /home/lodge/STM32MP157/tf-a/tf-a-stm32mp/../build/optee/bl2/divdi3.o
 .debug_str     0x0000000000000000      0x223 /home/lodge/STM32MP157/tf-a/tf-a-stm32mp/../build/optee/bl2/divdi3.o
 .comment       0x0000000000000000       0x5e /home/lodge/STM32MP157/tf-a/tf-a-stm32mp/../build/optee/bl2/divdi3.o
 .note.GNU-stack
                0x0000000000000000        0x0 /home/lodge/STM32MP157/tf-a/tf-a-stm32mp/../build/optee/bl2/divdi3.o
 .debug_frame   0x0000000000000000       0x30 /home/lodge/STM32MP157/tf-a/tf-a-stm32mp/../build/optee/bl2/divdi3.o
 .ARM.attributes
                0x0000000000000000       0x33 /home/lodge/STM32MP157/tf-a/tf-a-stm32mp/../build/optee/bl2/divdi3.o
 .text          0x0000000000000000        0x0 /home/lodge/STM32MP157/tf-a/tf-a-stm32mp/../build/optee/bl2/divmoddi4.o
 .data          0x0000000000000000        0x0 /home/lodge/STM32MP157/tf-a/tf-a-stm32mp/../build/optee/bl2/divmoddi4.o
 .bss           0x0000000000000000        0x0 /home/lodge/STM32MP157/tf-a/tf-a-stm32mp/../build/optee/bl2/divmoddi4.o
 .text.__divmoddi4
                0x0000000000000000       0x2e /home/lodge/STM32MP157/tf-a/tf-a-stm32mp/../build/optee/bl2/divmoddi4.o
 .debug_info    0x0000000000000000      0x13a /home/lodge/STM32MP157/tf-a/tf-a-stm32mp/../build/optee/bl2/divmoddi4.o
 .debug_abbrev  0x0000000000000000       0xc3 /home/lodge/STM32MP157/tf-a/tf-a-stm32mp/../build/optee/bl2/divmoddi4.o
 .debug_loc     0x0000000000000000       0x72 /home/lodge/STM32MP157/tf-a/tf-a-stm32mp/../build/optee/bl2/divmoddi4.o
 .debug_aranges
                0x0000000000000000       0x20 /home/lodge/STM32MP157/tf-a/tf-a-stm32mp/../build/optee/bl2/divmoddi4.o
 .debug_ranges  0x0000000000000000       0x10 /home/lodge/STM32MP157/tf-a/tf-a-stm32mp/../build/optee/bl2/divmoddi4.o
 .debug_line    0x0000000000000000       0x98 /home/lodge/STM32MP157/tf-a/tf-a-stm32mp/../build/optee/bl2/divmoddi4.o
 .debug_str     0x0000000000000000      0x20d /home/lodge/STM32MP157/tf-a/tf-a-stm32mp/../build/optee/bl2/divmoddi4.o
 .comment       0x0000000000000000       0x5e /home/lodge/STM32MP157/tf-a/tf-a-stm32mp/../build/optee/bl2/divmoddi4.o
 .note.GNU-stack
                0x0000000000000000        0x0 /home/lodge/STM32MP157/tf-a/tf-a-stm32mp/../build/optee/bl2/divmoddi4.o
 .debug_frame   0x0000000000000000       0x30 /home/lodge/STM32MP157/tf-a/tf-a-stm32mp/../build/optee/bl2/divmoddi4.o
 .ARM.attributes
                0x0000000000000000       0x33 /home/lodge/STM32MP157/tf-a/tf-a-stm32mp/../build/optee/bl2/divmoddi4.o
 .text          0x0000000000000000        0x0 /home/lodge/STM32MP157/tf-a/tf-a-stm32mp/../build/optee/bl2/lshrdi3.o
 .data          0x0000000000000000        0x0 /home/lodge/STM32MP157/tf-a/tf-a-stm32mp/../build/optee/bl2/lshrdi3.o
 .bss           0x0000000000000000        0x0 /home/lodge/STM32MP157/tf-a/tf-a-stm32mp/../build/optee/bl2/lshrdi3.o
 .text.__lshrdi3
                0x0000000000000000       0x28 /home/lodge/STM32MP157/tf-a/tf-a-stm32mp/../build/optee/bl2/lshrdi3.o
 .debug_info    0x0000000000000000      0x175 /home/lodge/STM32MP157/tf-a/tf-a-stm32mp/../build/optee/bl2/lshrdi3.o
 .debug_abbrev  0x0000000000000000       0xf0 /home/lodge/STM32MP157/tf-a/tf-a-stm32mp/../build/optee/bl2/lshrdi3.o
 .debug_loc     0x0000000000000000       0x50 /home/lodge/STM32MP157/tf-a/tf-a-stm32mp/../build/optee/bl2/lshrdi3.o
 .debug_aranges
                0x0000000000000000       0x20 /home/lodge/STM32MP157/tf-a/tf-a-stm32mp/../build/optee/bl2/lshrdi3.o
 .debug_ranges  0x0000000000000000       0x10 /home/lodge/STM32MP157/tf-a/tf-a-stm32mp/../build/optee/bl2/lshrdi3.o
 .debug_line    0x0000000000000000       0xb8 /home/lodge/STM32MP157/tf-a/tf-a-stm32mp/../build/optee/bl2/lshrdi3.o
 .debug_str     0x0000000000000000      0x23c /home/lodge/STM32MP157/tf-a/tf-a-stm32mp/../build/optee/bl2/lshrdi3.o
 .comment       0x0000000000000000       0x5e /home/lodge/STM32MP157/tf-a/tf-a-stm32mp/../build/optee/bl2/lshrdi3.o
 .note.GNU-stack
                0x0000000000000000        0x0 /home/lodge/STM32MP157/tf-a/tf-a-stm32mp/../build/optee/bl2/lshrdi3.o
 .debug_frame   0x0000000000000000       0x28 /home/lodge/STM32MP157/tf-a/tf-a-stm32mp/../build/optee/bl2/lshrdi3.o
 .ARM.attributes
                0x0000000000000000       0x33 /home/lodge/STM32MP157/tf-a/tf-a-stm32mp/../build/optee/bl2/lshrdi3.o
 .text          0x0000000000000000        0x0 /home/lodge/STM32MP157/tf-a/tf-a-stm32mp/../build/optee/bl2/udivmoddi4.o
 .data          0x0000000000000000        0x0 /home/lodge/STM32MP157/tf-a/tf-a-stm32mp/../build/optee/bl2/udivmoddi4.o
 .bss           0x0000000000000000        0x0 /home/lodge/STM32MP157/tf-a/tf-a-stm32mp/../build/optee/bl2/udivmoddi4.o
 .text          0x0000000000000000        0x0 /home/lodge/STM32MP157/tf-a/tf-a-stm32mp/../build/optee/bl2/stm32mp_common.o
 .data          0x0000000000000000        0x0 /home/lodge/STM32MP157/tf-a/tf-a-stm32mp/../build/optee/bl2/stm32mp_common.o
 .bss           0x0000000000000000        0x0 /home/lodge/STM32MP157/tf-a/tf-a-stm32mp/../build/optee/bl2/stm32mp_common.o
 .text.plat_get_ns_image_entrypoint
                0x0000000000000000        0x8 /home/lodge/STM32MP157/tf-a/tf-a-stm32mp/../build/optee/bl2/stm32mp_common.o
 .text.stm32mp_plat_reset
                0x0000000000000000        0xa /home/lodge/STM32MP157/tf-a/tf-a-stm32mp/../build/optee/bl2/stm32mp_common.o
 .text.stm32mp_pwr_regs_lock
                0x0000000000000000       0x18 /home/lodge/STM32MP157/tf-a/tf-a-stm32mp/../build/optee/bl2/stm32mp_common.o
 .text.stm32mp_pwr_regs_unlock
                0x0000000000000000       0x18 /home/lodge/STM32MP157/tf-a/tf-a-stm32mp/../build/optee/bl2/stm32mp_common.o
 .bss.lock      0x0000000000000000        0x4 /home/lodge/STM32MP157/tf-a/tf-a-stm32mp/../build/optee/bl2/stm32mp_common.o
 .text          0x0000000000000000        0x0 /home/lodge/STM32MP157/tf-a/tf-a-stm32mp/../build/optee/bl2/stm32mp1_private.o
 .data          0x0000000000000000        0x0 /home/lodge/STM32MP157/tf-a/tf-a-stm32mp/../build/optee/bl2/stm32mp1_private.o
 .bss           0x0000000000000000        0x0 /home/lodge/STM32MP157/tf-a/tf-a-stm32mp/../build/optee/bl2/stm32mp1_private.o
 .text.stm32mp_mask_timer
                0x0000000000000000       0x1a /home/lodge/STM32MP157/tf-a/tf-a-stm32mp/../build/optee/bl2/stm32mp1_private.o
 .text.stm32mp_wait_cpu_reset
                0x0000000000000000       0x42 /home/lodge/STM32MP157/tf-a/tf-a-stm32mp/../build/optee/bl2/stm32mp1_private.o
 .text.stm32mp_is_single_core
                0x0000000000000000       0x2c /home/lodge/STM32MP157/tf-a/tf-a-stm32mp/../build/optee/bl2/stm32mp1_private.o
 .text.stm32mp_plat_reset
                0x0000000000000000       0xac /home/lodge/STM32MP157/tf-a/tf-a-stm32mp/../build/optee/bl2/stm32mp1_private.o
 .text.stm32mp_etzpc_binding2decprot
                0x0000000000000000       0x10 /home/lodge/STM32MP157/tf-a/tf-a-stm32mp/../build/optee/bl2/stm32mp1_private.o
 .rodata.tzc_source_ip
                0x0000000000000000       0x84 /home/lodge/STM32MP157/tf-a/tf-a-stm32mp/../build/optee/bl2/stm32mp1_private.o
 .text          0x0000000000000000        0x0 /home/lodge/STM32MP157/tf-a/tf-a-stm32mp/../build/optee/bl2/xlat_tables_arch.o
 .data          0x0000000000000000        0x0 /home/lodge/STM32MP157/tf-a/tf-a-stm32mp/../build/optee/bl2/xlat_tables_arch.o
 .bss           0x0000000000000000        0x0 /home/lodge/STM32MP157/tf-a/tf-a-stm32mp/../build/optee/bl2/xlat_tables_arch.o
 .text.xlat_arch_is_granule_size_supported
                0x0000000000000000        0xa /home/lodge/STM32MP157/tf-a/tf-a-stm32mp/../build/optee/bl2/xlat_tables_arch.o
 .text.xlat_arch_get_max_supported_granule_size
                0x0000000000000000        0x6 /home/lodge/STM32MP157/tf-a/tf-a-stm32mp/../build/optee/bl2/xlat_tables_arch.o
 .text          0x0000000000000000        0x0 /home/lodge/STM32MP157/tf-a/tf-a-stm32mp/../build/optee/bl2/xlat_tables_context.o
 .data          0x0000000000000000        0x0 /home/lodge/STM32MP157/tf-a/tf-a-stm32mp/../build/optee/bl2/xlat_tables_context.o
 .bss           0x0000000000000000        0x0 /home/lodge/STM32MP157/tf-a/tf-a-stm32mp/../build/optee/bl2/xlat_tables_context.o
 .text.mmap_add_region_alloc_va
                0x0000000000000000       0x30 /home/lodge/STM32MP157/tf-a/tf-a-stm32mp/../build/optee/bl2/xlat_tables_context.o
 .text.mmap_add_alloc_va
                0x0000000000000000       0x2c /home/lodge/STM32MP157/tf-a/tf-a-stm32mp/../build/optee/bl2/xlat_tables_context.o
 .text.mmap_add_dynamic_region_alloc_va
                0x0000000000000000       0x30 /home/lodge/STM32MP157/tf-a/tf-a-stm32mp/../build/optee/bl2/xlat_tables_context.o
 .text.xlat_get_mem_attributes
                0x0000000000000000       0x10 /home/lodge/STM32MP157/tf-a/tf-a-stm32mp/../build/optee/bl2/xlat_tables_context.o
 .text.xlat_change_mem_attributes
                0x0000000000000000       0x10 /home/lodge/STM32MP157/tf-a/tf-a-stm32mp/../build/optee/bl2/xlat_tables_context.o
 .text.enable_mmu_hyp
                0x0000000000000000       0x34 /home/lodge/STM32MP157/tf-a/tf-a-stm32mp/../build/optee/bl2/xlat_tables_context.o
 .text          0x0000000000000000        0x0 /home/lodge/STM32MP157/tf-a/tf-a-stm32mp/../build/optee/bl2/xlat_tables_core.o
 .data          0x0000000000000000        0x0 /home/lodge/STM32MP157/tf-a/tf-a-stm32mp/../build/optee/bl2/xlat_tables_core.o
 .bss           0x0000000000000000        0x0 /home/lodge/STM32MP157/tf-a/tf-a-stm32mp/../build/optee/bl2/xlat_tables_core.o
 .text.mmap_alloc_va_align_ctx.isra.0
                0x0000000000000000       0x32 /home/lodge/STM32MP157/tf-a/tf-a-stm32mp/../build/optee/bl2/xlat_tables_core.o
 .text.mmap_add_region_alloc_va_ctx
                0x0000000000000000       0x3c /home/lodge/STM32MP157/tf-a/tf-a-stm32mp/../build/optee/bl2/xlat_tables_core.o
 .text.mmap_add_dynamic_region_alloc_va_ctx
                0x0000000000000000       0x2c /home/lodge/STM32MP157/tf-a/tf-a-stm32mp/../build/optee/bl2/xlat_tables_core.o
 .text.xlat_setup_dynamic_ctx
                0x0000000000000000       0x62 /home/lodge/STM32MP157/tf-a/tf-a-stm32mp/../build/optee/bl2/xlat_tables_core.o
 .text          0x0000000000000000        0x0 /home/lodge/STM32MP157/tf-a/tf-a-stm32mp/../build/optee/bl2/xlat_tables_utils.o
 .data          0x0000000000000000        0x0 /home/lodge/STM32MP157/tf-a/tf-a-stm32mp/../build/optee/bl2/xlat_tables_utils.o
 .bss           0x0000000000000000        0x0 /home/lodge/STM32MP157/tf-a/tf-a-stm32mp/../build/optee/bl2/xlat_tables_utils.o
 .rodata.find_xlat_table_entry.str1.1
                0x0000000000000000       0x53 /home/lodge/STM32MP157/tf-a/tf-a-stm32mp/../build/optee/bl2/xlat_tables_utils.o
 .text.find_xlat_table_entry
                0x0000000000000000       0x8c /home/lodge/STM32MP157/tf-a/tf-a-stm32mp/../build/optee/bl2/xlat_tables_utils.o
 .rodata.xlat_get_mem_attributes_internal.str1.1
                0x0000000000000000       0x1f /home/lodge/STM32MP157/tf-a/tf-a-stm32mp/../build/optee/bl2/xlat_tables_utils.o
 .text.xlat_get_mem_attributes_internal
                0x0000000000000000      0x118 /home/lodge/STM32MP157/tf-a/tf-a-stm32mp/../build/optee/bl2/xlat_tables_utils.o
 .text.xlat_get_mem_attributes_ctx
                0x0000000000000000       0x12 /home/lodge/STM32MP157/tf-a/tf-a-stm32mp/../build/optee/bl2/xlat_tables_utils.o
 .rodata.xlat_change_mem_attributes_ctx.str1.1
                0x0000000000000000      0x152 /home/lodge/STM32MP157/tf-a/tf-a-stm32mp/../build/optee/bl2/xlat_tables_utils.o
 .text.xlat_change_mem_attributes_ctx
                0x0000000000000000      0x1a0 /home/lodge/STM32MP157/tf-a/tf-a-stm32mp/../build/optee/bl2/xlat_tables_utils.o
 .rodata.__func__.0
                0x0000000000000000       0x1f /home/lodge/STM32MP157/tf-a/tf-a-stm32mp/../build/optee/bl2/xlat_tables_utils.o
 .text          0x0000000000000000        0x0 /home/lodge/STM32MP157/tf-a/tf-a-stm32mp/../build/optee/bl2/tzc400.o
 .data          0x0000000000000000        0x0 /home/lodge/STM32MP157/tf-a/tf-a-stm32mp/../build/optee/bl2/tzc400.o
 .bss           0x0000000000000000        0x0 /home/lodge/STM32MP157/tf-a/tf-a-stm32mp/../build/optee/bl2/tzc400.o
 .text.tzc400_configure_region0
                0x0000000000000000       0x2c /home/lodge/STM32MP157/tf-a/tf-a-stm32mp/../build/optee/bl2/tzc400.o
 .text.tzc400_clear_all_interrupts
                0x0000000000000000       0x30 /home/lodge/STM32MP157/tf-a/tf-a-stm32mp/../build/optee/bl2/tzc400.o
 .text.tzc400_is_pending_interrupt
                0x0000000000000000       0x3c /home/lodge/STM32MP157/tf-a/tf-a-stm32mp/../build/optee/bl2/tzc400.o
 .rodata.tzc400_it_handler.str1.1
                0x0000000000000000       0x7a /home/lodge/STM32MP157/tf-a/tf-a-stm32mp/../build/optee/bl2/tzc400.o
 .text.tzc400_it_handler
                0x0000000000000000       0xbc /home/lodge/STM32MP157/tf-a/tf-a-stm32mp/../build/optee/bl2/tzc400.o
 .text          0x0000000000000000        0x0 /home/lodge/STM32MP157/tf-a/tf-a-stm32mp/../build/optee/bl2/delay_timer.o
 .data          0x0000000000000000        0x0 /home/lodge/STM32MP157/tf-a/tf-a-stm32mp/../build/optee/bl2/delay_timer.o
 .bss           0x0000000000000000        0x0 /home/lodge/STM32MP157/tf-a/tf-a-stm32mp/../build/optee/bl2/delay_timer.o
 .text          0x0000000000000000        0x0 /home/lodge/STM32MP157/tf-a/tf-a-stm32mp/../build/optee/bl2/generic_delay_timer.o
 .data          0x0000000000000000        0x0 /home/lodge/STM32MP157/tf-a/tf-a-stm32mp/../build/optee/bl2/generic_delay_timer.o
 .bss           0x0000000000000000        0x0 /home/lodge/STM32MP157/tf-a/tf-a-stm32mp/../build/optee/bl2/generic_delay_timer.o
 .text          0x0000000000000000        0x0 /home/lodge/STM32MP157/tf-a/tf-a-stm32mp/../build/optee/bl2/bsec2.o
 .data          0x0000000000000000        0x0 /home/lodge/STM32MP157/tf-a/tf-a-stm32mp/../build/optee/bl2/bsec2.o
 .bss           0x0000000000000000        0x0 /home/lodge/STM32MP157/tf-a/tf-a-stm32mp/../build/optee/bl2/bsec2.o
 .text.bsec_get_base
                0x0000000000000000        0xc /home/lodge/STM32MP157/tf-a/tf-a-stm32mp/../build/optee/bl2/bsec2.o
 .text.bsec_get_config
                0x0000000000000000       0x44 /home/lodge/STM32MP157/tf-a/tf-a-stm32mp/../build/optee/bl2/bsec2.o
 .text.bsec_write_debug_conf
                0x0000000000000000       0x24 /home/lodge/STM32MP157/tf-a/tf-a-stm32mp/../build/optee/bl2/bsec2.o
 .text.bsec_set_config
                0x0000000000000000       0x6c /home/lodge/STM32MP157/tf-a/tf-a-stm32mp/../build/optee/bl2/bsec2.o
 .text.bsec_permanent_lock_otp
                0x0000000000000000       0x90 /home/lodge/STM32MP157/tf-a/tf-a-stm32mp/../build/optee/bl2/bsec2.o
 .text.bsec_get_hw_conf
                0x0000000000000000       0x10 /home/lodge/STM32MP157/tf-a/tf-a-stm32mp/../build/optee/bl2/bsec2.o
 .text.bsec_get_magic_id
                0x0000000000000000       0x10 /home/lodge/STM32MP157/tf-a/tf-a-stm32mp/../build/optee/bl2/bsec2.o
 .text.bsec_set_sp_lock
                0x0000000000000000       0x38 /home/lodge/STM32MP157/tf-a/tf-a-stm32mp/../build/optee/bl2/bsec2.o
 .text.bsec_otp_lock
                0x0000000000000000       0x2c /home/lodge/STM32MP157/tf-a/tf-a-stm32mp/../build/optee/bl2/bsec2.o
 .text.bsec_check_nsec_access_rights
                0x0000000000000000        0x4 /home/lodge/STM32MP157/tf-a/tf-a-stm32mp/../build/optee/bl2/bsec2.o
 .text          0x0000000000000000        0x0 /home/lodge/STM32MP157/tf-a/tf-a-stm32mp/../build/optee/bl2/stm32mp_clkfunc.o
 .data          0x0000000000000000        0x0 /home/lodge/STM32MP157/tf-a/tf-a-stm32mp/../build/optee/bl2/stm32mp_clkfunc.o
 .bss           0x0000000000000000        0x0 /home/lodge/STM32MP157/tf-a/tf-a-stm32mp/../build/optee/bl2/stm32mp_clkfunc.o
 .text.fdt_rcc_read_uint32_default
                0x0000000000000000       0x1e /home/lodge/STM32MP157/tf-a/tf-a-stm32mp/../build/optee/bl2/stm32mp_clkfunc.o
 .text.fdt_rcc_enable_it
                0x0000000000000000       0x1c /home/lodge/STM32MP157/tf-a/tf-a-stm32mp/../build/optee/bl2/stm32mp_clkfunc.o
 .rodata.fdt_get_clock_id_by_name.str1.1
                0x0000000000000000        0xc /home/lodge/STM32MP157/tf-a/tf-a-stm32mp/../build/optee/bl2/stm32mp_clkfunc.o
 .text.fdt_get_clock_id_by_name
                0x0000000000000000       0x64 /home/lodge/STM32MP157/tf-a/tf-a-stm32mp/../build/optee/bl2/stm32mp_clkfunc.o
 .rodata.fdt_get_uart_clock_freq.str1.1
                0x0000000000000000       0x10 /home/lodge/STM32MP157/tf-a/tf-a-stm32mp/../build/optee/bl2/stm32mp_clkfunc.o
 .text.fdt_get_uart_clock_freq
                0x0000000000000000       0x30 /home/lodge/STM32MP157/tf-a/tf-a-stm32mp/../build/optee/bl2/stm32mp_clkfunc.o
 .text.stm32mp_stgen_restore_counter
                0x0000000000000000       0x40 /home/lodge/STM32MP157/tf-a/tf-a-stm32mp/../build/optee/bl2/stm32mp_clkfunc.o
 .text          0x0000000000000000        0x0 /home/lodge/STM32MP157/tf-a/tf-a-stm32mp/../build/optee/bl2/stm32mp1_clk.o
 .data          0x0000000000000000        0x0 /home/lodge/STM32MP157/tf-a/tf-a-stm32mp/../build/optee/bl2/stm32mp1_clk.o
 .bss           0x0000000000000000        0x0 /home/lodge/STM32MP157/tf-a/tf-a-stm32mp/../build/optee/bl2/stm32mp1_clk.o
 .text.stm32mp1_pll1_config_from_opp_khz
                0x0000000000000000      0x13c /home/lodge/STM32MP157/tf-a/tf-a-stm32mp/../build/optee/bl2/stm32mp1_clk.o
 .text.stm32mp1_rcc_is_secure
                0x0000000000000000        0xe /home/lodge/STM32MP157/tf-a/tf-a-stm32mp/../build/optee/bl2/stm32mp1_clk.o
 .text.stm32mp1_rcc_is_mckprot
                0x0000000000000000       0x14 /home/lodge/STM32MP157/tf-a/tf-a-stm32mp/../build/optee/bl2/stm32mp1_clk.o
 .text.stm32mp1_clk_force_disable
                0x0000000000000000        0x6 /home/lodge/STM32MP157/tf-a/tf-a-stm32mp/../build/optee/bl2/stm32mp1_clk.o
 .text.stm32mp_clk_is_enabled
                0x0000000000000000       0x40 /home/lodge/STM32MP157/tf-a/tf-a-stm32mp/../build/optee/bl2/stm32mp1_clk.o
 .text.stm32mp_clk_timer_get_rate
                0x0000000000000000       0x3c /home/lodge/STM32MP157/tf-a/tf-a-stm32mp/../build/optee/bl2/stm32mp1_clk.o
 .text.stm32mp1_rtc_get_read_twice
                0x0000000000000000       0x5e /home/lodge/STM32MP157/tf-a/tf-a-stm32mp/../build/optee/bl2/stm32mp1_clk.o
 .text.stm32mp1_round_opp_khz
                0x0000000000000000       0x38 /home/lodge/STM32MP157/tf-a/tf-a-stm32mp/../build/optee/bl2/stm32mp1_clk.o
 .rodata.stm32mp1_set_opp_khz.str1.1
                0x0000000000000000       0x24 /home/lodge/STM32MP157/tf-a/tf-a-stm32mp/../build/optee/bl2/stm32mp1_clk.o
 .text.stm32mp1_set_opp_khz
                0x0000000000000000       0x70 /home/lodge/STM32MP157/tf-a/tf-a-stm32mp/../build/optee/bl2/stm32mp1_clk.o
 .rodata.stm32mp1_clk_compute_all_pll1_settings.str1.1
                0x0000000000000000       0x32 /home/lodge/STM32MP157/tf-a/tf-a-stm32mp/../build/optee/bl2/stm32mp1_clk.o
 .text.stm32mp1_clk_compute_all_pll1_settings
                0x0000000000000000      0x128 /home/lodge/STM32MP157/tf-a/tf-a-stm32mp/../build/optee/bl2/stm32mp1_clk.o
 .text.stm32mp1_clk_lp_save_opp_pll1_settings
                0x0000000000000000       0x2c /home/lodge/STM32MP157/tf-a/tf-a-stm32mp/../build/optee/bl2/stm32mp1_clk.o
 .text.stm32mp1_clk_rcc2id
                0x0000000000000000       0x40 /home/lodge/STM32MP157/tf-a/tf-a-stm32mp/../build/optee/bl2/stm32mp1_clk.o
 .text.stm32mp1_register_clock_parents_secure
                0x0000000000000000        0x2 /home/lodge/STM32MP157/tf-a/tf-a-stm32mp/../build/optee/bl2/stm32mp1_clk.o
 .text.save_clock_pm_context
                0x0000000000000000       0x50 /home/lodge/STM32MP157/tf-a/tf-a-stm32mp/../build/optee/bl2/stm32mp1_clk.o
 .text.restore_clock_pm_context
                0x0000000000000000       0x50 /home/lodge/STM32MP157/tf-a/tf-a-stm32mp/../build/optee/bl2/stm32mp1_clk.o
 .text.stm32mp1_clock_suspend
                0x0000000000000000       0x98 /home/lodge/STM32MP157/tf-a/tf-a-stm32mp/../build/optee/bl2/stm32mp1_clk.o
 .text.stm32mp1_clock_resume
                0x0000000000000000       0xd4 /home/lodge/STM32MP157/tf-a/tf-a-stm32mp/../build/optee/bl2/stm32mp1_clk.o
 .text.stm32mp1_clock_stopmode_save
                0x0000000000000000       0x4c /home/lodge/STM32MP157/tf-a/tf-a-stm32mp/../build/optee/bl2/stm32mp1_clk.o
 .text.stm32mp1_clock_stopmode_resume
                0x0000000000000000       0x98 /home/lodge/STM32MP157/tf-a/tf-a-stm32mp/../build/optee/bl2/stm32mp1_clk.o
 .text.stm32mp1_dump_clocks_state
                0x0000000000000000        0x2 /home/lodge/STM32MP157/tf-a/tf-a-stm32mp/../build/optee/bl2/stm32mp1_clk.o
 .bss.mcudivr   0x0000000000000000        0x4 /home/lodge/STM32MP157/tf-a/tf-a-stm32mp/../build/optee/bl2/stm32mp1_clk.o
 .bss.mssckselr
                0x0000000000000000        0x4 /home/lodge/STM32MP157/tf-a/tf-a-stm32mp/../build/optee/bl2/stm32mp1_clk.o
 .bss.pll3cr    0x0000000000000000        0x4 /home/lodge/STM32MP157/tf-a/tf-a-stm32mp/../build/optee/bl2/stm32mp1_clk.o
 .bss.pll4cr    0x0000000000000000        0x4 /home/lodge/STM32MP157/tf-a/tf-a-stm32mp/../build/optee/bl2/stm32mp1_clk.o
 .data.backup_clock_cfg
                0x0000000000000000       0x38 /home/lodge/STM32MP157/tf-a/tf-a-stm32mp/../build/optee/bl2/stm32mp1_clk.o
 .data.backup_clock_sc_cfg
                0x0000000000000000       0x58 /home/lodge/STM32MP157/tf-a/tf-a-stm32mp/../build/optee/bl2/stm32mp1_clk.o
 .data.backup_mux0_cfg
                0x0000000000000000       0x88 /home/lodge/STM32MP157/tf-a/tf-a-stm32mp/../build/optee/bl2/stm32mp1_clk.o
 .data.backup_mux4_cfg
                0x0000000000000000        0x4 /home/lodge/STM32MP157/tf-a/tf-a-stm32mp/../build/optee/bl2/stm32mp1_clk.o
 .text          0x0000000000000000        0x0 /home/lodge/STM32MP157/tf-a/tf-a-stm32mp/../build/optee/bl2/stm32mp1_ddr_helpers.o
 .data          0x0000000000000000        0x0 /home/lodge/STM32MP157/tf-a/tf-a-stm32mp/../build/optee/bl2/stm32mp1_ddr_helpers.o
 .bss           0x0000000000000000        0x0 /home/lodge/STM32MP157/tf-a/tf-a-stm32mp/../build/optee/bl2/stm32mp1_ddr_helpers.o
 .text.do_sw_handshake
                0x0000000000000000       0x14 /home/lodge/STM32MP157/tf-a/tf-a-stm32mp/../build/optee/bl2/stm32mp1_ddr_helpers.o
 .text.do_sw_ack
                0x0000000000000000       0x54 /home/lodge/STM32MP157/tf-a/tf-a-stm32mp/../build/optee/bl2/stm32mp1_ddr_helpers.o
 .text.ddr_sw_self_refresh_exit
                0x0000000000000000      0x1e8 /home/lodge/STM32MP157/tf-a/tf-a-stm32mp/../build/optee/bl2/stm32mp1_ddr_helpers.o
 .text.ddr_standby_sr_entry
                0x0000000000000000      0x23c /home/lodge/STM32MP157/tf-a/tf-a-stm32mp/../build/optee/bl2/stm32mp1_ddr_helpers.o
 .text.ddr_save_sr_mode
                0x0000000000000000       0x10 /home/lodge/STM32MP157/tf-a/tf-a-stm32mp/../build/optee/bl2/stm32mp1_ddr_helpers.o
 .text.ddr_restore_sr_mode
                0x0000000000000000        0xc /home/lodge/STM32MP157/tf-a/tf-a-stm32mp/../build/optee/bl2/stm32mp1_ddr_helpers.o
 .text.ddr_is_nonsecured_area
                0x0000000000000000       0x40 /home/lodge/STM32MP157/tf-a/tf-a-stm32mp/../build/optee/bl2/stm32mp1_ddr_helpers.o
 .bss.saved_ddr_sr_mode
                0x0000000000000000        0x4 /home/lodge/STM32MP157/tf-a/tf-a-stm32mp/../build/optee/bl2/stm32mp1_ddr_helpers.o
 .text          0x0000000000000000        0x0 /home/lodge/STM32MP157/tf-a/tf-a-stm32mp/../build/optee/bl2/stm32_gpio.o
 .data          0x0000000000000000        0x0 /home/lodge/STM32MP157/tf-a/tf-a-stm32mp/../build/optee/bl2/stm32_gpio.o
 .bss           0x0000000000000000        0x0 /home/lodge/STM32MP157/tf-a/tf-a-stm32mp/../build/optee/bl2/stm32_gpio.o
 .text.set_gpio_secure_cfg
                0x0000000000000000       0x4c /home/lodge/STM32MP157/tf-a/tf-a-stm32mp/../build/optee/bl2/stm32_gpio.o
 .text          0x0000000000000000        0x0 /home/lodge/STM32MP157/tf-a/tf-a-stm32mp/../build/optee/bl2/stm32_i2c.o
 .data          0x0000000000000000        0x0 /home/lodge/STM32MP157/tf-a/tf-a-stm32mp/../build/optee/bl2/stm32_i2c.o
 .bss           0x0000000000000000        0x0 /home/lodge/STM32MP157/tf-a/tf-a-stm32mp/../build/optee/bl2/stm32_i2c.o
 .text.stm32_i2c_master_transmit
                0x0000000000000000       0x18 /home/lodge/STM32MP157/tf-a/tf-a-stm32mp/../build/optee/bl2/stm32_i2c.o
 .text.stm32_i2c_master_receive
                0x0000000000000000       0x14 /home/lodge/STM32MP157/tf-a/tf-a-stm32mp/../build/optee/bl2/stm32_i2c.o
 .text          0x0000000000000000        0x0 /home/lodge/STM32MP157/tf-a/tf-a-stm32mp/../build/optee/bl2/stm32_iwdg.o
 .data          0x0000000000000000        0x0 /home/lodge/STM32MP157/tf-a/tf-a-stm32mp/../build/optee/bl2/stm32_iwdg.o
 .bss           0x0000000000000000        0x0 /home/lodge/STM32MP157/tf-a/tf-a-stm32mp/../build/optee/bl2/stm32_iwdg.o
 .text          0x0000000000000000        0x0 /home/lodge/STM32MP157/tf-a/tf-a-stm32mp/../build/optee/bl2/stm32mp_pmic.o
 .data          0x0000000000000000        0x0 /home/lodge/STM32MP157/tf-a/tf-a-stm32mp/../build/optee/bl2/stm32mp_pmic.o
 .bss           0x0000000000000000        0x0 /home/lodge/STM32MP157/tf-a/tf-a-stm32mp/../build/optee/bl2/stm32mp_pmic.o
 .text.pmic_set_lp_config
                0x0000000000000000        0xa /home/lodge/STM32MP157/tf-a/tf-a-stm32mp/../build/optee/bl2/stm32mp_pmic.o
 .text.pmic_set_regulator_min_voltage
                0x0000000000000000       0x2e /home/lodge/STM32MP157/tf-a/tf-a-stm32mp/../build/optee/bl2/stm32mp_pmic.o
 .text          0x0000000000000000        0x0 /home/lodge/STM32MP157/tf-a/tf-a-stm32mp/../build/optee/bl2/stpmic1.o
 .data          0x0000000000000000        0x0 /home/lodge/STM32MP157/tf-a/tf-a-stm32mp/../build/optee/bl2/stpmic1.o
 .bss           0x0000000000000000        0x0 /home/lodge/STM32MP157/tf-a/tf-a-stm32mp/../build/optee/bl2/stpmic1.o
 .text.stpmic1_lp_copy_reg
                0x0000000000000000       0x26 /home/lodge/STM32MP157/tf-a/tf-a-stm32mp/../build/optee/bl2/stpmic1.o
 .text.stpmic1_powerctrl_on
                0x0000000000000000        0xa /home/lodge/STM32MP157/tf-a/tf-a-stm32mp/../build/optee/bl2/stpmic1.o
 .text.stpmic1_switch_off
                0x0000000000000000        0xa /home/lodge/STM32MP157/tf-a/tf-a-stm32mp/../build/optee/bl2/stpmic1.o
 .text.stpmic1_lp_reg_on_off
                0x0000000000000000       0x16 /home/lodge/STM32MP157/tf-a/tf-a-stm32mp/../build/optee/bl2/stpmic1.o
 .text.stpmic1_lp_set_mode
                0x0000000000000000       0x1a /home/lodge/STM32MP157/tf-a/tf-a-stm32mp/../build/optee/bl2/stpmic1.o
 .text.stpmic1_lp_set_voltage
                0x0000000000000000       0x5c /home/lodge/STM32MP157/tf-a/tf-a-stm32mp/../build/optee/bl2/stpmic1.o
 .text          0x0000000000000000        0x0 /home/lodge/STM32MP157/tf-a/tf-a-stm32mp/../build/optee/bl2/stm32mp_dummy_regulator.o
 .data          0x0000000000000000        0x0 /home/lodge/STM32MP157/tf-a/tf-a-stm32mp/../build/optee/bl2/stm32mp_dummy_regulator.o
 .bss           0x0000000000000000        0x0 /home/lodge/STM32MP157/tf-a/tf-a-stm32mp/../build/optee/bl2/stm32mp_dummy_regulator.o
 .text          0x0000000000000000        0x0 /home/lodge/STM32MP157/tf-a/tf-a-stm32mp/../build/optee/bl2/stm32mp_regulator.o
 .data          0x0000000000000000        0x0 /home/lodge/STM32MP157/tf-a/tf-a-stm32mp/../build/optee/bl2/stm32mp_regulator.o
 .bss           0x0000000000000000        0x0 /home/lodge/STM32MP157/tf-a/tf-a-stm32mp/../build/optee/bl2/stm32mp_regulator.o
 .text.plat_bind_regulator
                0x0000000000000000        0x6 /home/lodge/STM32MP157/tf-a/tf-a-stm32mp/../build/optee/bl2/stm32mp_regulator.o
 .text          0x0000000000000000        0x0 /home/lodge/STM32MP157/tf-a/tf-a-stm32mp/../build/optee/bl2/stm32mp1_reset.o
 .data          0x0000000000000000        0x0 /home/lodge/STM32MP157/tf-a/tf-a-stm32mp/../build/optee/bl2/stm32mp1_reset.o
 .bss           0x0000000000000000        0x0 /home/lodge/STM32MP157/tf-a/tf-a-stm32mp/../build/optee/bl2/stm32mp1_reset.o
 .text          0x0000000000000000        0x0 /home/lodge/STM32MP157/tf-a/tf-a-stm32mp/../build/optee/bl2/stm32mp_dt.o
 .data          0x0000000000000000        0x0 /home/lodge/STM32MP157/tf-a/tf-a-stm32mp/../build/optee/bl2/stm32mp_dt.o
 .bss           0x0000000000000000        0x0 /home/lodge/STM32MP157/tf-a/tf-a-stm32mp/../build/optee/bl2/stm32mp_dt.o
 .rodata.fdt_get_interrupt.str1.1
                0x0000000000000000       0x31 /home/lodge/STM32MP157/tf-a/tf-a-stm32mp/../build/optee/bl2/stm32mp_dt.o
 .text.fdt_get_interrupt
                0x0000000000000000       0x5c /home/lodge/STM32MP157/tf-a/tf-a-stm32mp/../build/optee/bl2/stm32mp_dt.o
 .text.dt_get_all_opp_freqvolt
                0x0000000000000000       0x94 /home/lodge/STM32MP157/tf-a/tf-a-stm32mp/../build/optee/bl2/stm32mp_dt.o
 .rodata.fdt_get_gpio_bank_pinctrl_node.str1.1
                0x0000000000000000       0x2a /home/lodge/STM32MP157/tf-a/tf-a-stm32mp/../build/optee/bl2/stm32mp_dt.o
 .text.fdt_get_gpio_bank_pinctrl_node
                0x0000000000000000       0x30 /home/lodge/STM32MP157/tf-a/tf-a-stm32mp/../build/optee/bl2/stm32mp_dt.o
 .rodata.fdt_get_gpioz_nbpins_from_dt.str1.1
                0x0000000000000000       0x17 /home/lodge/STM32MP157/tf-a/tf-a-stm32mp/../build/optee/bl2/stm32mp_dt.o
 .text.fdt_get_gpioz_nbpins_from_dt
                0x0000000000000000       0x9c /home/lodge/STM32MP157/tf-a/tf-a-stm32mp/../build/optee/bl2/stm32mp_dt.o
 .text          0x0000000000000000        0x0 /home/lodge/STM32MP157/tf-a/tf-a-stm32mp/../build/optee/bl2/stm32mp_shres_helpers.o
 .data          0x0000000000000000        0x0 /home/lodge/STM32MP157/tf-a/tf-a-stm32mp/../build/optee/bl2/stm32mp_shres_helpers.o
 .bss           0x0000000000000000        0x0 /home/lodge/STM32MP157/tf-a/tf-a-stm32mp/../build/optee/bl2/stm32mp_shres_helpers.o
 .text.stm32mp_mmio_clrsetbits_32_shregs
                0x0000000000000000       0x1e /home/lodge/STM32MP157/tf-a/tf-a-stm32mp/../build/optee/bl2/stm32mp_shres_helpers.o
 .text          0x0000000000000000        0x0 /home/lodge/STM32MP157/tf-a/tf-a-stm32mp/../build/optee/bl2/stm32mp1_context.o
 .data          0x0000000000000000        0x0 /home/lodge/STM32MP157/tf-a/tf-a-stm32mp/../build/optee/bl2/stm32mp1_context.o
 .bss           0x0000000000000000        0x0 /home/lodge/STM32MP157/tf-a/tf-a-stm32mp/../build/optee/bl2/stm32mp1_context.o
 .text.stm32_are_pll1_settings_valid_in_context
                0x0000000000000000       0x2a /home/lodge/STM32MP157/tf-a/tf-a-stm32mp/../build/optee/bl2/stm32mp1_context.o
 .text.stm32_get_boot_interface
                0x0000000000000000       0x2c /home/lodge/STM32MP157/tf-a/tf-a-stm32mp/../build/optee/bl2/stm32mp1_context.o
 .text          0x0000000000000000        0x0 /home/lodge/STM32MP157/tf-a/tf-a-stm32mp/../build/optee/bl2/stm32mp1_dbgmcu.o
 .data          0x0000000000000000        0x0 /home/lodge/STM32MP157/tf-a/tf-a-stm32mp/../build/optee/bl2/stm32mp1_dbgmcu.o
 .bss           0x0000000000000000        0x0 /home/lodge/STM32MP157/tf-a/tf-a-stm32mp/../build/optee/bl2/stm32mp1_dbgmcu.o
 .text          0x0000000000000000        0x0 /home/lodge/STM32MP157/tf-a/tf-a-stm32mp/../build/optee/bl2/stm32mp1_security.o
 .data          0x0000000000000000        0x0 /home/lodge/STM32MP157/tf-a/tf-a-stm32mp/../build/optee/bl2/stm32mp1_security.o
 .bss           0x0000000000000000        0x0 /home/lodge/STM32MP157/tf-a/tf-a-stm32mp/../build/optee/bl2/stm32mp1_security.o
 .text          0x0000000000000000        0x0 /home/lodge/STM32MP157/tf-a/tf-a-stm32mp/../build/optee/bl2/stm32mp1_syscfg.o
 .data          0x0000000000000000        0x0 /home/lodge/STM32MP157/tf-a/tf-a-stm32mp/../build/optee/bl2/stm32mp1_syscfg.o
 .bss           0x0000000000000000        0x0 /home/lodge/STM32MP157/tf-a/tf-a-stm32mp/../build/optee/bl2/stm32mp1_syscfg.o
 .text.stm32mp1_syscfg_disable_io_compensation
                0x0000000000000000       0x2c /home/lodge/STM32MP157/tf-a/tf-a-stm32mp/../build/optee/bl2/stm32mp1_syscfg.o
 .text          0x0000000000000000        0x0 /home/lodge/STM32MP157/tf-a/tf-a-stm32mp/../build/optee/bl2/spinlock.o
 .data          0x0000000000000000        0x0 /home/lodge/STM32MP157/tf-a/tf-a-stm32mp/../build/optee/bl2/spinlock.o
 .bss           0x0000000000000000        0x0 /home/lodge/STM32MP157/tf-a/tf-a-stm32mp/../build/optee/bl2/spinlock.o
 .text          0x0000000000000000        0x0 /home/lodge/STM32MP157/tf-a/tf-a-stm32mp/../build/optee/bl2/platform_up_stack.o
 .data          0x0000000000000000        0x0 /home/lodge/STM32MP157/tf-a/tf-a-stm32mp/../build/optee/bl2/platform_up_stack.o
 .bss           0x0000000000000000        0x0 /home/lodge/STM32MP157/tf-a/tf-a-stm32mp/../build/optee/bl2/platform_up_stack.o
 .text.asm.plat_get_my_stack
                0x0000000000000000        0xc /home/lodge/STM32MP157/tf-a/tf-a-stm32mp/../build/optee/bl2/platform_up_stack.o
 .text          0x0000000000000000        0x0 /home/lodge/STM32MP157/tf-a/tf-a-stm32mp/../build/optee/bl2/bl2_el3_entrypoint.o
 .data          0x0000000000000000        0x0 /home/lodge/STM32MP157/tf-a/tf-a-stm32mp/../build/optee/bl2/bl2_el3_entrypoint.o
 .bss           0x0000000000000000        0x0 /home/lodge/STM32MP157/tf-a/tf-a-stm32mp/../build/optee/bl2/bl2_el3_entrypoint.o
 .text          0x0000000000000000        0x0 /home/lodge/STM32MP157/tf-a/tf-a-stm32mp/../build/optee/bl2/bl2_el3_exceptions.o
 .data          0x0000000000000000        0x0 /home/lodge/STM32MP157/tf-a/tf-a-stm32mp/../build/optee/bl2/bl2_el3_exceptions.o
 .bss           0x0000000000000000        0x0 /home/lodge/STM32MP157/tf-a/tf-a-stm32mp/../build/optee/bl2/bl2_el3_exceptions.o
 .text          0x0000000000000000        0x0 /home/lodge/STM32MP157/tf-a/tf-a-stm32mp/../build/optee/bl2/cpu_helpers.o
 .data          0x0000000000000000        0x0 /home/lodge/STM32MP157/tf-a/tf-a-stm32mp/../build/optee/bl2/cpu_helpers.o
 .bss           0x0000000000000000        0x0 /home/lodge/STM32MP157/tf-a/tf-a-stm32mp/../build/optee/bl2/cpu_helpers.o
 .text.asm.cpu_get_rev_var
                0x0000000000000000       0x10 /home/lodge/STM32MP157/tf-a/tf-a-stm32mp/../build/optee/bl2/cpu_helpers.o
 .text.asm.cpu_rev_var_ls
                0x0000000000000000       0x10 /home/lodge/STM32MP157/tf-a/tf-a-stm32mp/../build/optee/bl2/cpu_helpers.o
 .text.asm.cpu_rev_var_hs
                0x0000000000000000       0x10 /home/lodge/STM32MP157/tf-a/tf-a-stm32mp/../build/optee/bl2/cpu_helpers.o
 .text          0x0000000000000000        0x0 /home/lodge/STM32MP157/tf-a/tf-a-stm32mp/../build/optee/bl2/debug.o
 .data          0x0000000000000000        0x0 /home/lodge/STM32MP157/tf-a/tf-a-stm32mp/../build/optee/bl2/debug.o
 .bss           0x0000000000000000        0x0 /home/lodge/STM32MP157/tf-a/tf-a-stm32mp/../build/optee/bl2/debug.o
 .text          0x0000000000000000        0x0 /home/lodge/STM32MP157/tf-a/tf-a-stm32mp/../build/optee/bl2/cache_helpers.o
 .data          0x0000000000000000        0x0 /home/lodge/STM32MP157/tf-a/tf-a-stm32mp/../build/optee/bl2/cache_helpers.o
 .bss           0x0000000000000000        0x0 /home/lodge/STM32MP157/tf-a/tf-a-stm32mp/../build/optee/bl2/cache_helpers.o
 .text.asm.do_dcsw_op
                0x0000000000000000       0x9c /home/lodge/STM32MP157/tf-a/tf-a-stm32mp/../build/optee/bl2/cache_helpers.o
 .text.asm.dcsw_op_louis
                0x0000000000000000       0x14 /home/lodge/STM32MP157/tf-a/tf-a-stm32mp/../build/optee/bl2/cache_helpers.o
 .text.asm.dcsw_op_all
                0x0000000000000000       0x14 /home/lodge/STM32MP157/tf-a/tf-a-stm32mp/../build/optee/bl2/cache_helpers.o
 .text.asm.dcsw_op_level1
                0x0000000000000000       0x10 /home/lodge/STM32MP157/tf-a/tf-a-stm32mp/../build/optee/bl2/cache_helpers.o
 .text.asm.dcsw_op_level2
                0x0000000000000000       0x10 /home/lodge/STM32MP157/tf-a/tf-a-stm32mp/../build/optee/bl2/cache_helpers.o
 .text.asm.dcsw_op_level3
                0x0000000000000000       0x10 /home/lodge/STM32MP157/tf-a/tf-a-stm32mp/../build/optee/bl2/cache_helpers.o
 .text          0x0000000000000000        0x0 /home/lodge/STM32MP157/tf-a/tf-a-stm32mp/../build/optee/bl2/misc_helpers.o
 .data          0x0000000000000000        0x0 /home/lodge/STM32MP157/tf-a/tf-a-stm32mp/../build/optee/bl2/misc_helpers.o
 .bss           0x0000000000000000        0x0 /home/lodge/STM32MP157/tf-a/tf-a-stm32mp/../build/optee/bl2/misc_helpers.o
 .text.asm.smc  0x0000000000000000        0x8 /home/lodge/STM32MP157/tf-a/tf-a-stm32mp/../build/optee/bl2/misc_helpers.o
 .text.asm.memcpy4
                0x0000000000000000       0x50 /home/lodge/STM32MP157/tf-a/tf-a-stm32mp/../build/optee/bl2/misc_helpers.o
 .rodata.str1.1
                0x0000000000000000       0x1b /home/lodge/STM32MP157/tf-a/tf-a-stm32mp/../build/optee/bl2/misc_helpers.o
 .text          0x0000000000000000        0x0 /home/lodge/STM32MP157/tf-a/tf-a-stm32mp/../build/optee/bl2/platform_helpers.o
 .data          0x0000000000000000        0x0 /home/lodge/STM32MP157/tf-a/tf-a-stm32mp/../build/optee/bl2/platform_helpers.o
 .bss           0x0000000000000000        0x0 /home/lodge/STM32MP157/tf-a/tf-a-stm32mp/../build/optee/bl2/platform_helpers.o
 .text.asm.plat_report_exception
                0x0000000000000000        0x4 /home/lodge/STM32MP157/tf-a/tf-a-stm32mp/../build/optee/bl2/platform_helpers.o
 .text.asm.plat_report_undef_inst
                0x0000000000000000        0x4 /home/lodge/STM32MP157/tf-a/tf-a-stm32mp/../build/optee/bl2/platform_helpers.o
 .text.asm.plat_report_prefetch_abort
                0x0000000000000000        0x4 /home/lodge/STM32MP157/tf-a/tf-a-stm32mp/../build/optee/bl2/platform_helpers.o
 .text.asm.plat_report_data_abort
                0x0000000000000000        0x4 /home/lodge/STM32MP157/tf-a/tf-a-stm32mp/../build/optee/bl2/platform_helpers.o
 .text.asm.plat_reset_handler
                0x0000000000000000        0x4 /home/lodge/STM32MP157/tf-a/tf-a-stm32mp/../build/optee/bl2/platform_helpers.o
 .text.asm.plat_disable_acp
                0x0000000000000000        0x4 /home/lodge/STM32MP157/tf-a/tf-a-stm32mp/../build/optee/bl2/platform_helpers.o
 .text.asm.platform_mem_init
                0x0000000000000000        0x4 /home/lodge/STM32MP157/tf-a/tf-a-stm32mp/../build/optee/bl2/platform_helpers.o
 .text.asm.bl1_plat_prepare_exit
                0x0000000000000000        0x4 /home/lodge/STM32MP157/tf-a/tf-a-stm32mp/../build/optee/bl2/platform_helpers.o
 .text.asm.plat_panic_handler
                0x0000000000000000        0x4 /home/lodge/STM32MP157/tf-a/tf-a-stm32mp/../build/optee/bl2/platform_helpers.o
 .debug_line    0x0000000000000000       0xd3 /home/lodge/STM32MP157/tf-a/tf-a-stm32mp/../build/optee/bl2/platform_helpers.o
 .debug_info    0x0000000000000000       0x22 /home/lodge/STM32MP157/tf-a/tf-a-stm32mp/../build/optee/bl2/platform_helpers.o
 .debug_abbrev  0x0000000000000000       0x12 /home/lodge/STM32MP157/tf-a/tf-a-stm32mp/../build/optee/bl2/platform_helpers.o
 .debug_aranges
                0x0000000000000000       0x60 /home/lodge/STM32MP157/tf-a/tf-a-stm32mp/../build/optee/bl2/platform_helpers.o
 .debug_str     0x0000000000000000       0x5e /home/lodge/STM32MP157/tf-a/tf-a-stm32mp/../build/optee/bl2/platform_helpers.o
 .debug_ranges  0x0000000000000000       0x58 /home/lodge/STM32MP157/tf-a/tf-a-stm32mp/../build/optee/bl2/platform_helpers.o
 .debug_frame   0x0000000000000000       0xa0 /home/lodge/STM32MP157/tf-a/tf-a-stm32mp/../build/optee/bl2/platform_helpers.o
 .ARM.attributes
                0x0000000000000000       0x27 /home/lodge/STM32MP157/tf-a/tf-a-stm32mp/../build/optee/bl2/platform_helpers.o
 .text          0x0000000000000000       0x24 /home/lodge/STM32MP157/tf-a/tf-a-stm32mp/../build/optee/bl2/aeabi_ldivmod.o
 .data          0x0000000000000000        0x0 /home/lodge/STM32MP157/tf-a/tf-a-stm32mp/../build/optee/bl2/aeabi_ldivmod.o
 .bss           0x0000000000000000        0x0 /home/lodge/STM32MP157/tf-a/tf-a-stm32mp/../build/optee/bl2/aeabi_ldivmod.o
 .debug_line    0x0000000000000000       0x66 /home/lodge/STM32MP157/tf-a/tf-a-stm32mp/../build/optee/bl2/aeabi_ldivmod.o
 .debug_info    0x0000000000000000       0x26 /home/lodge/STM32MP157/tf-a/tf-a-stm32mp/../build/optee/bl2/aeabi_ldivmod.o
 .debug_abbrev  0x0000000000000000       0x14 /home/lodge/STM32MP157/tf-a/tf-a-stm32mp/../build/optee/bl2/aeabi_ldivmod.o
 .debug_aranges
                0x0000000000000000       0x20 /home/lodge/STM32MP157/tf-a/tf-a-stm32mp/../build/optee/bl2/aeabi_ldivmod.o
 .debug_str     0x0000000000000000       0x64 /home/lodge/STM32MP157/tf-a/tf-a-stm32mp/../build/optee/bl2/aeabi_ldivmod.o
 .ARM.attributes
                0x0000000000000000       0x27 /home/lodge/STM32MP157/tf-a/tf-a-stm32mp/../build/optee/bl2/aeabi_ldivmod.o
 .data          0x0000000000000000        0x0 /home/lodge/STM32MP157/tf-a/tf-a-stm32mp/../build/optee/bl2/aeabi_uldivmod.o
 .bss           0x0000000000000000        0x0 /home/lodge/STM32MP157/tf-a/tf-a-stm32mp/../build/optee/bl2/aeabi_uldivmod.o
 .text          0x0000000000000000        0x0 /home/lodge/STM32MP157/tf-a/tf-a-stm32mp/../build/optee/bl2/stm32_console.o
 .data          0x0000000000000000        0x0 /home/lodge/STM32MP157/tf-a/tf-a-stm32mp/../build/optee/bl2/stm32_console.o
 .bss           0x0000000000000000        0x0 /home/lodge/STM32MP157/tf-a/tf-a-stm32mp/../build/optee/bl2/stm32_console.o
 .text.asm.console_stm32_core_getc
                0x0000000000000000        0x8 /home/lodge/STM32MP157/tf-a/tf-a-stm32mp/../build/optee/bl2/stm32_console.o
 .text          0x0000000000000000        0x0 /home/lodge/STM32MP157/tf-a/tf-a-stm32mp/../build/optee/bl2/enable_mmu.o
 .data          0x0000000000000000        0x0 /home/lodge/STM32MP157/tf-a/tf-a-stm32mp/../build/optee/bl2/enable_mmu.o
 .bss           0x0000000000000000        0x0 /home/lodge/STM32MP157/tf-a/tf-a-stm32mp/../build/optee/bl2/enable_mmu.o
 .text.asm.enable_mmu_direct_hyp
                0x0000000000000000       0x74 /home/lodge/STM32MP157/tf-a/tf-a-stm32mp/../build/optee/bl2/enable_mmu.o
 .text          0x0000000000000000        0x0 /home/lodge/STM32MP157/tf-a/tf-a-stm32mp/../build/optee/bl2/cortex_a7.o
 .data          0x0000000000000000        0x0 /home/lodge/STM32MP157/tf-a/tf-a-stm32mp/../build/optee/bl2/cortex_a7.o
 .bss           0x0000000000000000        0x0 /home/lodge/STM32MP157/tf-a/tf-a-stm32mp/../build/optee/bl2/cortex_a7.o
 .text.asm.cortex_a7_disable_smp
                0x0000000000000000       0x18 /home/lodge/STM32MP157/tf-a/tf-a-stm32mp/../build/optee/bl2/cortex_a7.o
 .text.asm.cortex_a7_core_pwr_dwn
                0x0000000000000000       0x30 /home/lodge/STM32MP157/tf-a/tf-a-stm32mp/../build/optee/bl2/cortex_a7.o
 .rodata.str1.1
                0x0000000000000000       0x1d /home/lodge/STM32MP157/tf-a/tf-a-stm32mp/../build/optee/bl2/cortex_a7.o
 .text.asm.cortex_a7_cluster_pwr_dwn
                0x0000000000000000       0x34 /home/lodge/STM32MP157/tf-a/tf-a-stm32mp/../build/optee/bl2/cortex_a7.o
 .text          0x0000000000000000        0x0 /home/lodge/STM32MP157/tf-a/tf-a-stm32mp/../build/optee/bl2/stm32mp1_helper.o
 .data          0x0000000000000000        0x0 /home/lodge/STM32MP157/tf-a/tf-a-stm32mp/../build/optee/bl2/stm32mp1_helper.o
 .bss           0x0000000000000000        0x0 /home/lodge/STM32MP157/tf-a/tf-a-stm32mp/../build/optee/bl2/stm32mp1_helper.o
 .text.asm.plat_stm32mp1_get_core_pos
                0x0000000000000000       0x10 /home/lodge/STM32MP157/tf-a/tf-a-stm32mp/../build/optee/bl2/stm32mp1_helper.o
 .text.asm.plat_my_core_pos
                0x0000000000000000        0x8 /home/lodge/STM32MP157/tf-a/tf-a-stm32mp/../build/optee/bl2/stm32mp1_helper.o
 .text.asm.wfi_svc_int_enable
                0x0000000000000000       0x44 /home/lodge/STM32MP157/tf-a/tf-a-stm32mp/../build/optee/bl2/stm32mp1_helper.o
 .text          0x0000000000000000        0x0 /home/lodge/STM32MP157/tf-a/tf-a-stm32mp/../build/optee/lib/libfdt.a(fdt.o)
 .data          0x0000000000000000        0x0 /home/lodge/STM32MP157/tf-a/tf-a-stm32mp/../build/optee/lib/libfdt.a(fdt.o)
 .bss           0x0000000000000000        0x0 /home/lodge/STM32MP157/tf-a/tf-a-stm32mp/../build/optee/lib/libfdt.a(fdt.o)
 .text.fdt_find_string_
                0x0000000000000000       0x30 /home/lodge/STM32MP157/tf-a/tf-a-stm32mp/../build/optee/lib/libfdt.a(fdt.o)
 .text.fdt_move
                0x0000000000000000       0x2e /home/lodge/STM32MP157/tf-a/tf-a-stm32mp/../build/optee/lib/libfdt.a(fdt.o)
 .text          0x0000000000000000        0x0 /home/lodge/STM32MP157/tf-a/tf-a-stm32mp/../build/optee/lib/libfdt.a(fdt_addresses.o)
 .data          0x0000000000000000        0x0 /home/lodge/STM32MP157/tf-a/tf-a-stm32mp/../build/optee/lib/libfdt.a(fdt_addresses.o)
 .bss           0x0000000000000000        0x0 /home/lodge/STM32MP157/tf-a/tf-a-stm32mp/../build/optee/lib/libfdt.a(fdt_addresses.o)
 .text          0x0000000000000000        0x0 /home/lodge/STM32MP157/tf-a/tf-a-stm32mp/../build/optee/lib/libfdt.a(fdt_ro.o)
 .data          0x0000000000000000        0x0 /home/lodge/STM32MP157/tf-a/tf-a-stm32mp/../build/optee/lib/libfdt.a(fdt_ro.o)
 .bss           0x0000000000000000        0x0 /home/lodge/STM32MP157/tf-a/tf-a-stm32mp/../build/optee/lib/libfdt.a(fdt_ro.o)
 .text.fdt64_to_cpu
                0x0000000000000000        0x8 /home/lodge/STM32MP157/tf-a/tf-a-stm32mp/../build/optee/lib/libfdt.a(fdt_ro.o)
 .text.fdt_get_mem_rsv
                0x0000000000000000       0x3e /home/lodge/STM32MP157/tf-a/tf-a-stm32mp/../build/optee/lib/libfdt.a(fdt_ro.o)
 .text.fdt_num_mem_rsv
                0x0000000000000000       0x26 /home/lodge/STM32MP157/tf-a/tf-a-stm32mp/../build/optee/lib/libfdt.a(fdt_ro.o)
 .text.fdt_get_property_by_offset
                0x0000000000000000       0x24 /home/lodge/STM32MP157/tf-a/tf-a-stm32mp/../build/optee/lib/libfdt.a(fdt_ro.o)
 .text.fdt_get_property_namelen
                0x0000000000000000       0x30 /home/lodge/STM32MP157/tf-a/tf-a-stm32mp/../build/optee/lib/libfdt.a(fdt_ro.o)
 .text.fdt_get_property
                0x0000000000000000       0x22 /home/lodge/STM32MP157/tf-a/tf-a-stm32mp/../build/optee/lib/libfdt.a(fdt_ro.o)
 .text.fdt_getprop_by_offset
                0x0000000000000000       0x48 /home/lodge/STM32MP157/tf-a/tf-a-stm32mp/../build/optee/lib/libfdt.a(fdt_ro.o)
 .text.fdt_get_max_phandle
                0x0000000000000000       0x42 /home/lodge/STM32MP157/tf-a/tf-a-stm32mp/../build/optee/lib/libfdt.a(fdt_ro.o)
 .text.fdt_get_alias
                0x0000000000000000       0x1a /home/lodge/STM32MP157/tf-a/tf-a-stm32mp/../build/optee/lib/libfdt.a(fdt_ro.o)
 .text.fdt_get_path
                0x0000000000000000       0xca /home/lodge/STM32MP157/tf-a/tf-a-stm32mp/../build/optee/lib/libfdt.a(fdt_ro.o)
 .text.fdt_node_offset_by_prop_value
                0x0000000000000000       0x58 /home/lodge/STM32MP157/tf-a/tf-a-stm32mp/../build/optee/lib/libfdt.a(fdt_ro.o)
 .text.fdt_stringlist_count
                0x0000000000000000       0x38 /home/lodge/STM32MP157/tf-a/tf-a-stm32mp/../build/optee/lib/libfdt.a(fdt_ro.o)
 .text.fdt_stringlist_get
                0x0000000000000000       0x60 /home/lodge/STM32MP157/tf-a/tf-a-stm32mp/../build/optee/lib/libfdt.a(fdt_ro.o)
 .text          0x0000000000000000        0x0 /home/lodge/STM32MP157/tf-a/tf-a-stm32mp/../build/optee/lib/libc.a(assert.o)
 .data          0x0000000000000000        0x0 /home/lodge/STM32MP157/tf-a/tf-a-stm32mp/../build/optee/lib/libc.a(assert.o)
 .bss           0x0000000000000000        0x0 /home/lodge/STM32MP157/tf-a/tf-a-stm32mp/../build/optee/lib/libc.a(assert.o)
 .text          0x0000000000000000        0x0 /home/lodge/STM32MP157/tf-a/tf-a-stm32mp/../build/optee/lib/libc.a(memchr.o)
 .data          0x0000000000000000        0x0 /home/lodge/STM32MP157/tf-a/tf-a-stm32mp/../build/optee/lib/libc.a(memchr.o)
 .bss           0x0000000000000000        0x0 /home/lodge/STM32MP157/tf-a/tf-a-stm32mp/../build/optee/lib/libc.a(memchr.o)
 .text          0x0000000000000000        0x0 /home/lodge/STM32MP157/tf-a/tf-a-stm32mp/../build/optee/lib/libc.a(memcmp.o)
 .data          0x0000000000000000        0x0 /home/lodge/STM32MP157/tf-a/tf-a-stm32mp/../build/optee/lib/libc.a(memcmp.o)
 .bss           0x0000000000000000        0x0 /home/lodge/STM32MP157/tf-a/tf-a-stm32mp/../build/optee/lib/libc.a(memcmp.o)
 .text          0x0000000000000000        0x0 /home/lodge/STM32MP157/tf-a/tf-a-stm32mp/../build/optee/lib/libc.a(memcpy.o)
 .data          0x0000000000000000        0x0 /home/lodge/STM32MP157/tf-a/tf-a-stm32mp/../build/optee/lib/libc.a(memcpy.o)
 .bss           0x0000000000000000        0x0 /home/lodge/STM32MP157/tf-a/tf-a-stm32mp/../build/optee/lib/libc.a(memcpy.o)
 .text          0x0000000000000000        0x0 /home/lodge/STM32MP157/tf-a/tf-a-stm32mp/../build/optee/lib/libc.a(memmove.o)
 .data          0x0000000000000000        0x0 /home/lodge/STM32MP157/tf-a/tf-a-stm32mp/../build/optee/lib/libc.a(memmove.o)
 .bss           0x0000000000000000        0x0 /home/lodge/STM32MP157/tf-a/tf-a-stm32mp/../build/optee/lib/libc.a(memmove.o)
 .text          0x0000000000000000        0x0 /home/lodge/STM32MP157/tf-a/tf-a-stm32mp/../build/optee/lib/libc.a(memset.o)
 .data          0x0000000000000000        0x0 /home/lodge/STM32MP157/tf-a/tf-a-stm32mp/../build/optee/lib/libc.a(memset.o)
 .bss           0x0000000000000000        0x0 /home/lodge/STM32MP157/tf-a/tf-a-stm32mp/../build/optee/lib/libc.a(memset.o)
 .text          0x0000000000000000        0x0 /home/lodge/STM32MP157/tf-a/tf-a-stm32mp/../build/optee/lib/libc.a(printf.o)
 .data          0x0000000000000000        0x0 /home/lodge/STM32MP157/tf-a/tf-a-stm32mp/../build/optee/lib/libc.a(printf.o)
 .bss           0x0000000000000000        0x0 /home/lodge/STM32MP157/tf-a/tf-a-stm32mp/../build/optee/lib/libc.a(printf.o)
 .text          0x0000000000000000        0x0 /home/lodge/STM32MP157/tf-a/tf-a-stm32mp/../build/optee/lib/libc.a(putchar.o)
 .data          0x0000000000000000        0x0 /home/lodge/STM32MP157/tf-a/tf-a-stm32mp/../build/optee/lib/libc.a(putchar.o)
 .bss           0x0000000000000000        0x0 /home/lodge/STM32MP157/tf-a/tf-a-stm32mp/../build/optee/lib/libc.a(putchar.o)
 .text          0x0000000000000000        0x0 /home/lodge/STM32MP157/tf-a/tf-a-stm32mp/../build/optee/lib/libc.a(snprintf.o)
 .data          0x0000000000000000        0x0 /home/lodge/STM32MP157/tf-a/tf-a-stm32mp/../build/optee/lib/libc.a(snprintf.o)
 .bss           0x0000000000000000        0x0 /home/lodge/STM32MP157/tf-a/tf-a-stm32mp/../build/optee/lib/libc.a(snprintf.o)
 .text          0x0000000000000000        0x0 /home/lodge/STM32MP157/tf-a/tf-a-stm32mp/../build/optee/lib/libc.a(strchr.o)
 .data          0x0000000000000000        0x0 /home/lodge/STM32MP157/tf-a/tf-a-stm32mp/../build/optee/lib/libc.a(strchr.o)
 .bss           0x0000000000000000        0x0 /home/lodge/STM32MP157/tf-a/tf-a-stm32mp/../build/optee/lib/libc.a(strchr.o)
 .text          0x0000000000000000        0x0 /home/lodge/STM32MP157/tf-a/tf-a-stm32mp/../build/optee/lib/libc.a(strcmp.o)
 .data          0x0000000000000000        0x0 /home/lodge/STM32MP157/tf-a/tf-a-stm32mp/../build/optee/lib/libc.a(strcmp.o)
 .bss           0x0000000000000000        0x0 /home/lodge/STM32MP157/tf-a/tf-a-stm32mp/../build/optee/lib/libc.a(strcmp.o)
 .text          0x0000000000000000        0x0 /home/lodge/STM32MP157/tf-a/tf-a-stm32mp/../build/optee/lib/libc.a(strlen.o)
 .data          0x0000000000000000        0x0 /home/lodge/STM32MP157/tf-a/tf-a-stm32mp/../build/optee/lib/libc.a(strlen.o)
 .bss           0x0000000000000000        0x0 /home/lodge/STM32MP157/tf-a/tf-a-stm32mp/../build/optee/lib/libc.a(strlen.o)
 .text          0x0000000000000000        0x0 /home/lodge/STM32MP157/tf-a/tf-a-stm32mp/../build/optee/lib/libc.a(strncmp.o)
 .data          0x0000000000000000        0x0 /home/lodge/STM32MP157/tf-a/tf-a-stm32mp/../build/optee/lib/libc.a(strncmp.o)
 .bss           0x0000000000000000        0x0 /home/lodge/STM32MP157/tf-a/tf-a-stm32mp/../build/optee/lib/libc.a(strncmp.o)
 .text          0x0000000000000000        0x0 /home/lodge/STM32MP157/tf-a/tf-a-stm32mp/../build/optee/lib/libc.a(strnlen.o)
 .data          0x0000000000000000        0x0 /home/lodge/STM32MP157/tf-a/tf-a-stm32mp/../build/optee/lib/libc.a(strnlen.o)
 .bss           0x0000000000000000        0x0 /home/lodge/STM32MP157/tf-a/tf-a-stm32mp/../build/optee/lib/libc.a(strnlen.o)
 .text          0x0000000000000000        0x0 /home/lodge/STM32MP157/tf-a/tf-a-stm32mp/../build/optee/lib/libc.a(strrchr.o)
 .data          0x0000000000000000        0x0 /home/lodge/STM32MP157/tf-a/tf-a-stm32mp/../build/optee/lib/libc.a(strrchr.o)
 .bss           0x0000000000000000        0x0 /home/lodge/STM32MP157/tf-a/tf-a-stm32mp/../build/optee/lib/libc.a(strrchr.o)

Memory Configuration

Name             Origin             Length             Attributes
RAM              0x000000002ffe7000 0x0000000000018000 xrw
*default*        0x0000000000000000 0xffffffffffffffff

Linker script and memory map

                0x000000002ffe7000                . = 0x2ffe7000
                0x0000000000000001                ASSERT ((. == ALIGN (0x1000)), BL2_BASE address is not aligned on a page boundary.)

ro              0x000000002ffe7000    0x12000
                0x000000002ffe7000                __RO_START__ = .
                0x000000002ffe7000                __TEXT_RESIDENT_START__ = .
 *bl2_el3_entrypoint.o(.text*)
 .text.asm.bl2_entrypoint
                0x000000002ffe7000      0x158 /home/lodge/STM32MP157/tf-a/tf-a-stm32mp/../build/optee/bl2/bl2_el3_entrypoint.o
                0x000000002ffe7000                bl2_entrypoint
 .text.asm.bl2_run_next_image
                0x000000002ffe7158       0x40 /home/lodge/STM32MP157/tf-a/tf-a-stm32mp/../build/optee/bl2/bl2_el3_entrypoint.o
                0x000000002ffe7158                bl2_run_next_image
 *(.text.asm.*)
 .text.asm.spin_lock
                0x000000002ffe7198       0x24 /home/lodge/STM32MP157/tf-a/tf-a-stm32mp/../build/optee/bl2/spinlock.o
                0x000000002ffe7198                spin_lock
 .text.asm.spin_unlock
                0x000000002ffe71bc       0x18 /home/lodge/STM32MP157/tf-a/tf-a-stm32mp/../build/optee/bl2/spinlock.o
                0x000000002ffe71bc                spin_unlock
 .text.asm.plat_set_my_stack
                0x000000002ffe71d4       0x10 /home/lodge/STM32MP157/tf-a/tf-a-stm32mp/../build/optee/bl2/platform_up_stack.o
                0x000000002ffe71d4                plat_set_my_stack
 .text.asm.reset_handler
                0x000000002ffe71e4       0x38 /home/lodge/STM32MP157/tf-a/tf-a-stm32mp/../build/optee/bl2/cpu_helpers.o
                0x000000002ffe71e4                reset_handler
 .text.asm.get_cpu_ops_ptr
                0x000000002ffe721c       0x44 /home/lodge/STM32MP157/tf-a/tf-a-stm32mp/../build/optee/bl2/cpu_helpers.o
                0x000000002ffe721c                get_cpu_ops_ptr
 .text.asm.do_panic
                0x000000002ffe7260       0x3c /home/lodge/STM32MP157/tf-a/tf-a-stm32mp/../build/optee/bl2/debug.o
                0x000000002ffe7260                do_panic
 .text.asm.report_exception
                0x000000002ffe729c       0x14 /home/lodge/STM32MP157/tf-a/tf-a-stm32mp/../build/optee/bl2/debug.o
                0x000000002ffe729c                report_exception
 .text.asm.report_undef_inst
                0x000000002ffe72b0       0x10 /home/lodge/STM32MP157/tf-a/tf-a-stm32mp/../build/optee/bl2/debug.o
                0x000000002ffe72b0                report_undef_inst
 .text.asm.report_prefetch_abort
                0x000000002ffe72c0       0x10 /home/lodge/STM32MP157/tf-a/tf-a-stm32mp/../build/optee/bl2/debug.o
                0x000000002ffe72c0                report_prefetch_abort
 .text.asm.report_data_abort
                0x000000002ffe72d0       0x10 /home/lodge/STM32MP157/tf-a/tf-a-stm32mp/../build/optee/bl2/debug.o
                0x000000002ffe72d0                report_data_abort
 .text.asm.asm_assert
                0x000000002ffe72e0       0x7c /home/lodge/STM32MP157/tf-a/tf-a-stm32mp/../build/optee/bl2/debug.o
                0x000000002ffe72e0                asm_assert
 .text.asm.asm_print_str
                0x000000002ffe735c       0x1c /home/lodge/STM32MP157/tf-a/tf-a-stm32mp/../build/optee/bl2/debug.o
                0x000000002ffe735c                asm_print_str
 .text.asm.asm_print_hex
                0x000000002ffe7378       0x34 /home/lodge/STM32MP157/tf-a/tf-a-stm32mp/../build/optee/bl2/debug.o
                0x000000002ffe7378                asm_print_hex
 .text.asm.flush_dcache_range
                0x000000002ffe73ac       0x3c /home/lodge/STM32MP157/tf-a/tf-a-stm32mp/../build/optee/bl2/cache_helpers.o
                0x000000002ffe73ac                flush_dcache_range
 .text.asm.clean_dcache_range
                0x000000002ffe73e8       0x3c /home/lodge/STM32MP157/tf-a/tf-a-stm32mp/../build/optee/bl2/cache_helpers.o
                0x000000002ffe73e8                clean_dcache_range
 .text.asm.inv_dcache_range
                0x000000002ffe7424       0x3c /home/lodge/STM32MP157/tf-a/tf-a-stm32mp/../build/optee/bl2/cache_helpers.o
                0x000000002ffe7424                inv_dcache_range
 .text.asm.zeromem
                0x000000002ffe7460       0x64 /home/lodge/STM32MP157/tf-a/tf-a-stm32mp/../build/optee/bl2/misc_helpers.o
                0x000000002ffe7460                zeromem
                0x000000002ffe7460                zero_normalmem
 .text.asm.disable_mmu_secure
                0x000000002ffe74c4       0x1c /home/lodge/STM32MP157/tf-a/tf-a-stm32mp/../build/optee/bl2/misc_helpers.o
                0x000000002ffe74c4                disable_mmu_secure
 .text.asm.disable_mmu_icache_secure
                0x000000002ffe74e0        0xc /home/lodge/STM32MP157/tf-a/tf-a-stm32mp/../build/optee/bl2/misc_helpers.o
                0x000000002ffe74e0                disable_mmu_icache_secure
 .text.asm.console_stm32_core_init
                0x000000002ffe74ec       0x7c /home/lodge/STM32MP157/tf-a/tf-a-stm32mp/../build/optee/bl2/stm32_console.o
                0x000000002ffe74ec                console_stm32_core_init
 .text.asm.console_stm32_register
                0x000000002ffe7568       0x58 /home/lodge/STM32MP157/tf-a/tf-a-stm32mp/../build/optee/bl2/stm32_console.o
                0x000000002ffe7568                console_stm32_register
 .text.asm.console_stm32_core_putc
                0x000000002ffe75c0       0x48 /home/lodge/STM32MP157/tf-a/tf-a-stm32mp/../build/optee/bl2/stm32_console.o
                0x000000002ffe75c0                console_stm32_core_putc
 .text.asm.console_stm32_putc
                0x000000002ffe7608       0x20 /home/lodge/STM32MP157/tf-a/tf-a-stm32mp/../build/optee/bl2/stm32_console.o
                0x000000002ffe7608                console_stm32_putc
 .text.asm.console_stm32_core_flush
                0x000000002ffe7628       0x30 /home/lodge/STM32MP157/tf-a/tf-a-stm32mp/../build/optee/bl2/stm32_console.o
                0x000000002ffe7628                console_stm32_core_flush
 .text.asm.console_stm32_flush
                0x000000002ffe7658       0x20 /home/lodge/STM32MP157/tf-a/tf-a-stm32mp/../build/optee/bl2/stm32_console.o
                0x000000002ffe7658                console_stm32_flush
 .text.asm.enable_mmu_direct_svc_mon
                0x000000002ffe7678       0x80 /home/lodge/STM32MP157/tf-a/tf-a-stm32mp/../build/optee/bl2/enable_mmu.o
                0x000000002ffe7678                enable_mmu_direct_svc_mon
 .text.asm.cortex_a7_enable_smp
                0x000000002ffe76f8       0x14 /home/lodge/STM32MP157/tf-a/tf-a-stm32mp/../build/optee/bl2/cortex_a7.o
 .text.asm.cortex_a7_reset_func
                0x000000002ffe770c        0x4 /home/lodge/STM32MP157/tf-a/tf-a-stm32mp/../build/optee/bl2/cortex_a7.o
 .text.asm.platform_mem_init
                0x000000002ffe7710        0x4 /home/lodge/STM32MP157/tf-a/tf-a-stm32mp/../build/optee/bl2/stm32mp1_helper.o
                0x000000002ffe7710                platform_mem_init
 .text.asm.plat_report_exception
                0x000000002ffe7714       0x74 /home/lodge/STM32MP157/tf-a/tf-a-stm32mp/../build/optee/bl2/stm32mp1_helper.o
                0x000000002ffe7714                plat_report_exception
 .text.asm.plat_report_undef_inst
                0x000000002ffe7788       0x30 /home/lodge/STM32MP157/tf-a/tf-a-stm32mp/../build/optee/bl2/stm32mp1_helper.o
                0x000000002ffe7788                plat_report_undef_inst
 .text.asm.plat_report_prefetch_abort
                0x000000002ffe77b8       0x58 /home/lodge/STM32MP157/tf-a/tf-a-stm32mp/../build/optee/bl2/stm32mp1_helper.o
                0x000000002ffe77b8                plat_report_prefetch_abort
 .text.asm.plat_report_data_abort
                0x000000002ffe7810       0x58 /home/lodge/STM32MP157/tf-a/tf-a-stm32mp/../build/optee/bl2/stm32mp1_helper.o
                0x000000002ffe7810                plat_report_data_abort
 .text.asm.plat_reset_handler
                0x000000002ffe7868        0x4 /home/lodge/STM32MP157/tf-a/tf-a-stm32mp/../build/optee/bl2/stm32mp1_helper.o
                0x000000002ffe7868                plat_reset_handler
 .text.asm.plat_get_my_entrypoint
                0x000000002ffe786c        0x8 /home/lodge/STM32MP157/tf-a/tf-a-stm32mp/../build/optee/bl2/stm32mp1_helper.o
                0x000000002ffe786c                plat_get_my_entrypoint
 .text.asm.plat_secondary_cold_boot_setup
                0x000000002ffe7874        0x4 /home/lodge/STM32MP157/tf-a/tf-a-stm32mp/../build/optee/bl2/stm32mp1_helper.o
                0x000000002ffe7874                plat_secondary_cold_boot_setup
 .text.asm.plat_is_my_cpu_primary
                0x000000002ffe7878       0x20 /home/lodge/STM32MP157/tf-a/tf-a-stm32mp/../build/optee/bl2/stm32mp1_helper.o
                0x000000002ffe7878                plat_is_my_cpu_primary
 .text.asm.plat_crash_console_init
                0x000000002ffe7898       0xac /home/lodge/STM32MP157/tf-a/tf-a-stm32mp/../build/optee/bl2/stm32mp1_helper.o
                0x000000002ffe7898                plat_crash_console_init
 .text.asm.plat_crash_console_flush
                0x000000002ffe7944        0xc /home/lodge/STM32MP157/tf-a/tf-a-stm32mp/../build/optee/bl2/stm32mp1_helper.o
                0x000000002ffe7944                plat_crash_console_flush
 .text.asm.plat_crash_console_putc
                0x000000002ffe7950        0xc /home/lodge/STM32MP157/tf-a/tf-a-stm32mp/../build/optee/bl2/stm32mp1_helper.o
                0x000000002ffe7950                plat_crash_console_putc
 .text.asm.plat_panic_handler
                0x000000002ffe795c       0x14 /home/lodge/STM32MP157/tf-a/tf-a-stm32mp/../build/optee/bl2/stm32mp1_helper.o
                0x000000002ffe795c                plat_panic_handler
                0x000000002ffe7970                __TEXT_RESIDENT_END__ = .
 *(.text*)
 .text.device_type_block
                0x000000002ffe7970        0x4 /home/lodge/STM32MP157/tf-a/tf-a-stm32mp/../build/optee/bl2/io_block.o
                0x000000002ffe7970                device_type_block
 .text.block_close
                0x000000002ffe7974        0x8 /home/lodge/STM32MP157/tf-a/tf-a-stm32mp/../build/optee/bl2/io_block.o
 .text.block_seek
                0x000000002ffe797c       0x54 /home/lodge/STM32MP157/tf-a/tf-a-stm32mp/../build/optee/bl2/io_block.o
 .text.block_open
                0x000000002ffe79d0       0x4c /home/lodge/STM32MP157/tf-a/tf-a-stm32mp/../build/optee/bl2/io_block.o
 .text.block_write
                0x000000002ffe7a1c      0x114 /home/lodge/STM32MP157/tf-a/tf-a-stm32mp/../build/optee/bl2/io_block.o
 .text.block_read
                0x000000002ffe7b30       0xe8 /home/lodge/STM32MP157/tf-a/tf-a-stm32mp/../build/optee/bl2/io_block.o
 .text.block_dev_open
                0x000000002ffe7c18       0x78 /home/lodge/STM32MP157/tf-a/tf-a-stm32mp/../build/optee/bl2/io_block.o
 .text.block_dev_close
                0x000000002ffe7c90       0x48 /home/lodge/STM32MP157/tf-a/tf-a-stm32mp/../build/optee/bl2/io_block.o
 .text.register_io_dev_block
                0x000000002ffe7cd8       0x2c /home/lodge/STM32MP157/tf-a/tf-a-stm32mp/../build/optee/bl2/io_block.o
                0x000000002ffe7cd8                register_io_dev_block
 .text.device_type_dummy
                0x000000002ffe7d04        0x4 /home/lodge/STM32MP157/tf-a/tf-a-stm32mp/../build/optee/bl2/io_dummy.o
 .text.dummy_dev_close
                0x000000002ffe7d08        0x4 /home/lodge/STM32MP157/tf-a/tf-a-stm32mp/../build/optee/bl2/io_dummy.o
 .text.dummy_dev_open
                0x000000002ffe7d0c       0x1c /home/lodge/STM32MP157/tf-a/tf-a-stm32mp/../build/optee/bl2/io_dummy.o
 .text.dummy_block_close
                0x000000002ffe7d28       0x20 /home/lodge/STM32MP157/tf-a/tf-a-stm32mp/../build/optee/bl2/io_dummy.o
 .text.dummy_block_read
                0x000000002ffe7d48       0x18 /home/lodge/STM32MP157/tf-a/tf-a-stm32mp/../build/optee/bl2/io_dummy.o
 .text.dummy_block_len
                0x000000002ffe7d60       0x20 /home/lodge/STM32MP157/tf-a/tf-a-stm32mp/../build/optee/bl2/io_dummy.o
 .text.dummy_block_open
                0x000000002ffe7d80       0x3c /home/lodge/STM32MP157/tf-a/tf-a-stm32mp/../build/optee/bl2/io_dummy.o
 .text.register_io_dev_dummy
                0x000000002ffe7dbc       0x28 /home/lodge/STM32MP157/tf-a/tf-a-stm32mp/../build/optee/bl2/io_dummy.o
                0x000000002ffe7dbc                register_io_dev_dummy
 .text.device_type_mtd
                0x000000002ffe7de4        0x4 /home/lodge/STM32MP157/tf-a/tf-a-stm32mp/../build/optee/bl2/io_mtd.o
                0x000000002ffe7de4                device_type_mtd
 .text.mtd_close
                0x000000002ffe7de8        0x8 /home/lodge/STM32MP157/tf-a/tf-a-stm32mp/../build/optee/bl2/io_mtd.o
 .text.mtd_read
                0x000000002ffe7df0       0x74 /home/lodge/STM32MP157/tf-a/tf-a-stm32mp/../build/optee/bl2/io_mtd.o
 .text.mtd_seek
                0x000000002ffe7e64       0x60 /home/lodge/STM32MP157/tf-a/tf-a-stm32mp/../build/optee/bl2/io_mtd.o
 .text.mtd_open
                0x000000002ffe7ec4       0x24 /home/lodge/STM32MP157/tf-a/tf-a-stm32mp/../build/optee/bl2/io_mtd.o
 .text.mtd_dev_close
                0x000000002ffe7ee8       0x2c /home/lodge/STM32MP157/tf-a/tf-a-stm32mp/../build/optee/bl2/io_mtd.o
 .text.mtd_dev_open
                0x000000002ffe7f14       0x4c /home/lodge/STM32MP157/tf-a/tf-a-stm32mp/../build/optee/bl2/io_mtd.o
 .text.register_io_dev_mtd
                0x000000002ffe7f60       0x1c /home/lodge/STM32MP157/tf-a/tf-a-stm32mp/../build/optee/bl2/io_mtd.o
                0x000000002ffe7f60                register_io_dev_mtd
 .text.is_valid_dev
                0x000000002ffe7f7c       0x18 /home/lodge/STM32MP157/tf-a/tf-a-stm32mp/../build/optee/bl2/io_storage.o
 .text.is_valid_entity
                0x000000002ffe7f94       0x12 /home/lodge/STM32MP157/tf-a/tf-a-stm32mp/../build/optee/bl2/io_storage.o
 *fill*         0x000000002ffe7fa6        0x2 
 .text.free_entity.isra.0
                0x000000002ffe7fa8       0x40 /home/lodge/STM32MP157/tf-a/tf-a-stm32mp/../build/optee/bl2/io_storage.o
 .text.io_register_device
                0x000000002ffe7fe8       0x28 /home/lodge/STM32MP157/tf-a/tf-a-stm32mp/../build/optee/bl2/io_storage.o
                0x000000002ffe7fe8                io_register_device
 .text.io_dev_open
                0x000000002ffe8010       0x28 /home/lodge/STM32MP157/tf-a/tf-a-stm32mp/../build/optee/bl2/io_storage.o
                0x000000002ffe8010                io_dev_open
 .text.io_dev_init
                0x000000002ffe8038       0x34 /home/lodge/STM32MP157/tf-a/tf-a-stm32mp/../build/optee/bl2/io_storage.o
                0x000000002ffe8038                io_dev_init
 .text.io_dev_close
                0x000000002ffe806c       0x30 /home/lodge/STM32MP157/tf-a/tf-a-stm32mp/../build/optee/bl2/io_storage.o
                0x000000002ffe806c                io_dev_close
 .text.io_open  0x000000002ffe809c       0x94 /home/lodge/STM32MP157/tf-a/tf-a-stm32mp/../build/optee/bl2/io_storage.o
                0x000000002ffe809c                io_open
 .text.io_seek  0x000000002ffe8130       0x4c /home/lodge/STM32MP157/tf-a/tf-a-stm32mp/../build/optee/bl2/io_storage.o
                0x000000002ffe8130                io_seek
 .text.io_size  0x000000002ffe817c       0x34 /home/lodge/STM32MP157/tf-a/tf-a-stm32mp/../build/optee/bl2/io_storage.o
                0x000000002ffe817c                io_size
 .text.io_read  0x000000002ffe81b0       0x48 /home/lodge/STM32MP157/tf-a/tf-a-stm32mp/../build/optee/bl2/io_storage.o
                0x000000002ffe81b0                io_read
 .text.io_close
                0x000000002ffe81f8       0x30 /home/lodge/STM32MP157/tf-a/tf-a-stm32mp/../build/optee/bl2/io_storage.o
                0x000000002ffe81f8                io_close
 .text.hash_write_data
                0x000000002ffe8228       0x64 /home/lodge/STM32MP157/tf-a/tf-a-stm32mp/../build/optee/bl2/stm32_hash.o
 .text.stm32_hash_update
                0x000000002ffe828c       0xb0 /home/lodge/STM32MP157/tf-a/tf-a-stm32mp/../build/optee/bl2/stm32_hash.o
                0x000000002ffe828c                stm32_hash_update
 .text.stm32_hash_final
                0x000000002ffe833c       0xec /home/lodge/STM32MP157/tf-a/tf-a-stm32mp/../build/optee/bl2/stm32_hash.o
                0x000000002ffe833c                stm32_hash_final
 .text.stm32_hash_final_update
                0x000000002ffe8428       0x16 /home/lodge/STM32MP157/tf-a/tf-a-stm32mp/../build/optee/bl2/stm32_hash.o
                0x000000002ffe8428                stm32_hash_final_update
 *fill*         0x000000002ffe843e        0x2 
 .text.stm32_hash_init
                0x000000002ffe8440       0x5c /home/lodge/STM32MP157/tf-a/tf-a-stm32mp/../build/optee/bl2/stm32_hash.o
                0x000000002ffe8440                stm32_hash_init
 .text.stm32_hash_register
                0x000000002ffe849c       0x88 /home/lodge/STM32MP157/tf-a/tf-a-stm32mp/../build/optee/bl2/stm32_hash.o
                0x000000002ffe849c                stm32_hash_register
 .text.device_type_stm32image
                0x000000002ffe8524        0x4 /home/lodge/STM32MP157/tf-a/tf-a-stm32mp/../build/optee/bl2/io_stm32image.o
 .text.stm32image_dev_close
                0x000000002ffe8528       0x1c /home/lodge/STM32MP157/tf-a/tf-a-stm32mp/../build/optee/bl2/io_stm32image.o
 .text.stm32image_partition_close
                0x000000002ffe8544        0xc /home/lodge/STM32MP157/tf-a/tf-a-stm32mp/../build/optee/bl2/io_stm32image.o
 .text.stm32image_dev_open
                0x000000002ffe8550       0x64 /home/lodge/STM32MP157/tf-a/tf-a-stm32mp/../build/optee/bl2/io_stm32image.o
 .text.stm32image_dev_init
                0x000000002ffe85b4       0x44 /home/lodge/STM32MP157/tf-a/tf-a-stm32mp/../build/optee/bl2/io_stm32image.o
 .text.stm32image_partition_read
                0x000000002ffe85f8      0x100 /home/lodge/STM32MP157/tf-a/tf-a-stm32mp/../build/optee/bl2/io_stm32image.o
 .text.stm32image_partition_size
                0x000000002ffe86f8       0xec /home/lodge/STM32MP157/tf-a/tf-a-stm32mp/../build/optee/bl2/io_stm32image.o
 .text.stm32image_partition_open
                0x000000002ffe87e4       0x64 /home/lodge/STM32MP157/tf-a/tf-a-stm32mp/../build/optee/bl2/io_stm32image.o
 .text.register_io_dev_stm32image
                0x000000002ffe8848       0x2c /home/lodge/STM32MP157/tf-a/tf-a-stm32mp/../build/optee/bl2/io_stm32image.o
                0x000000002ffe8848                register_io_dev_stm32image
 .text.boot_mmc
                0x000000002ffe8874      0x14c /home/lodge/STM32MP157/tf-a/tf-a-stm32mp/../build/optee/bl2/bl2_io_storage.o
 .text.open_storage
                0x000000002ffe89c0       0x10 /home/lodge/STM32MP157/tf-a/tf-a-stm32mp/../build/optee/bl2/bl2_io_storage.o
 .text.open_image
                0x000000002ffe89d0       0x10 /home/lodge/STM32MP157/tf-a/tf-a-stm32mp/../build/optee/bl2/bl2_io_storage.o
 .text.open_dummy
                0x000000002ffe89e0       0x10 /home/lodge/STM32MP157/tf-a/tf-a-stm32mp/../build/optee/bl2/bl2_io_storage.o
 .text.stm32mp_io_setup
                0x000000002ffe89f0      0x2ec /home/lodge/STM32MP157/tf-a/tf-a-stm32mp/../build/optee/bl2/bl2_io_storage.o
                0x000000002ffe89f0                stm32mp_io_setup
 .text.plat_get_image_source
                0x000000002ffe8cdc       0x40 /home/lodge/STM32MP157/tf-a/tf-a-stm32mp/../build/optee/bl2/bl2_io_storage.o
                0x000000002ffe8cdc                plat_get_image_source
 .text.plat_try_next_boot_source
                0x000000002ffe8d1c       0x9c /home/lodge/STM32MP157/tf-a/tf-a-stm32mp/../build/optee/bl2/bl2_io_storage.o
                0x000000002ffe8d1c                plat_try_next_boot_source
 .text.get_boot_device
                0x000000002ffe8db8        0x4 /home/lodge/STM32MP157/tf-a/tf-a-stm32mp/../build/optee/bl2/bl2_plat_setup.o
                0x000000002ffe8db8                get_boot_device
 .text.bl2_el3_early_platform_setup
                0x000000002ffe8dbc        0x4 /home/lodge/STM32MP157/tf-a/tf-a-stm32mp/../build/optee/bl2/bl2_plat_setup.o
                0x000000002ffe8dbc                bl2_el3_early_platform_setup
 .text.bl2_platform_setup
                0x000000002ffe8dc0       0xc8 /home/lodge/STM32MP157/tf-a/tf-a-stm32mp/../build/optee/bl2/bl2_plat_setup.o
                0x000000002ffe8dc0                bl2_platform_setup
 .text.bl2_el3_plat_arch_setup
                0x000000002ffe8e88      0x430 /home/lodge/STM32MP157/tf-a/tf-a-stm32mp/../build/optee/bl2/bl2_plat_setup.o
                0x000000002ffe8e88                bl2_el3_plat_arch_setup
 .text.bl2_plat_handle_post_image_load
                0x000000002ffe92b8       0xf4 /home/lodge/STM32MP157/tf-a/tf-a-stm32mp/../build/optee/bl2/bl2_plat_setup.o
                0x000000002ffe92b8                bl2_plat_handle_post_image_load
 .text.auth_get_param
                0x000000002ffe93ac       0x3e /home/lodge/STM32MP157/tf-a/tf-a-stm32mp/../build/optee/bl2/auth_mod.o
 .text.plat_set_nv_ctr2
                0x000000002ffe93ea        0x6 /home/lodge/STM32MP157/tf-a/tf-a-stm32mp/../build/optee/bl2/auth_mod.o
                0x000000002ffe93ea                plat_set_nv_ctr2
 .text.auth_mod_get_parent_id
                0x000000002ffe93f0       0x40 /home/lodge/STM32MP157/tf-a/tf-a-stm32mp/../build/optee/bl2/auth_mod.o
                0x000000002ffe93f0                auth_mod_get_parent_id
 .text.auth_mod_init
                0x000000002ffe9430       0x28 /home/lodge/STM32MP157/tf-a/tf-a-stm32mp/../build/optee/bl2/auth_mod.o
                0x000000002ffe9430                auth_mod_init
 .text.auth_mod_verify_img
                0x000000002ffe9458      0x280 /home/lodge/STM32MP157/tf-a/tf-a-stm32mp/../build/optee/bl2/auth_mod.o
                0x000000002ffe9458                auth_mod_verify_img
 .text.crypto_mod_init
                0x000000002ffe96d8       0x44 /home/lodge/STM32MP157/tf-a/tf-a-stm32mp/../build/optee/bl2/crypto_mod.o
                0x000000002ffe96d8                crypto_mod_init
 .text.crypto_mod_verify_signature
                0x000000002ffe971c       0x74 /home/lodge/STM32MP157/tf-a/tf-a-stm32mp/../build/optee/bl2/crypto_mod.o
                0x000000002ffe971c                crypto_mod_verify_signature
 .text.crypto_mod_verify_hash
                0x000000002ffe9790       0x38 /home/lodge/STM32MP157/tf-a/tf-a-stm32mp/../build/optee/bl2/crypto_mod.o
                0x000000002ffe9790                crypto_mod_verify_hash
 .text.img_parser_init
                0x000000002ffe97c8       0x94 /home/lodge/STM32MP157/tf-a/tf-a-stm32mp/../build/optee/bl2/img_parser_mod.o
                0x000000002ffe97c8                img_parser_init
 .text.img_parser_check_integrity
                0x000000002ffe985c       0x48 /home/lodge/STM32MP157/tf-a/tf-a-stm32mp/../build/optee/bl2/img_parser_mod.o
                0x000000002ffe985c                img_parser_check_integrity
 .text.img_parser_get_auth_param
                0x000000002ffe98a4       0x78 /home/lodge/STM32MP157/tf-a/tf-a-stm32mp/../build/optee/bl2/img_parser_mod.o
                0x000000002ffe98a4                img_parser_get_auth_param
 .text.crypto_verify_hash
                0x000000002ffe991c       0x46 /home/lodge/STM32MP157/tf-a/tf-a-stm32mp/../build/optee/bl2/stm32mp_crypto_lib.o
 *fill*         0x000000002ffe9962        0x2 
 .text.crypto_verify_signature
                0x000000002ffe9964      0x100 /home/lodge/STM32MP157/tf-a/tf-a-stm32mp/../build/optee/bl2/stm32mp_crypto_lib.o
 .text.crypto_lib_init
                0x000000002ffe9a64       0x60 /home/lodge/STM32MP157/tf-a/tf-a-stm32mp/../build/optee/bl2/stm32mp_crypto_lib.o
 .text.img_lib_init
                0x000000002ffe9ac4        0x2 /home/lodge/STM32MP157/tf-a/tf-a-stm32mp/../build/optee/bl2/stm32mp_img_parser_lib.o
 .text.img_get_auth_param
                0x000000002ffe9ac6       0x74 /home/lodge/STM32MP157/tf-a/tf-a-stm32mp/../build/optee/bl2/stm32mp_img_parser_lib.o
 .text.img_check_integrity
                0x000000002ffe9b3a       0x12 /home/lodge/STM32MP157/tf-a/tf-a-stm32mp/../build/optee/bl2/stm32mp_img_parser_lib.o
 .text.plat_get_rotpk_info
                0x000000002ffe9b4c       0x8c /home/lodge/STM32MP157/tf-a/tf-a-stm32mp/../build/optee/bl2/stm32mp_trusted_boot.o
                0x000000002ffe9b4c                plat_get_rotpk_info
 .text.plat_get_nv_ctr
                0x000000002ffe9bd8       0x1c /home/lodge/STM32MP157/tf-a/tf-a-stm32mp/../build/optee/bl2/stm32mp_trusted_boot.o
                0x000000002ffe9bd8                plat_get_nv_ctr
 .text.plat_set_nv_ctr
                0x000000002ffe9bf4        0x6 /home/lodge/STM32MP157/tf-a/tf-a-stm32mp/../build/optee/bl2/stm32mp_trusted_boot.o
                0x000000002ffe9bf4                plat_set_nv_ctr
 *fill*         0x000000002ffe9bfa        0x2 
 .text.mmc_send_cmd
                0x000000002ffe9bfc       0x44 /home/lodge/STM32MP157/tf-a/tf-a-stm32mp/../build/optee/bl2/mmc.o
 .text.mmc_device_state
                0x000000002ffe9c40       0x44 /home/lodge/STM32MP157/tf-a/tf-a-stm32mp/../build/optee/bl2/mmc.o
 .text.mmc_reset_to_idle
                0x000000002ffe9c84       0x1c /home/lodge/STM32MP157/tf-a/tf-a-stm32mp/../build/optee/bl2/mmc.o
 .text.mmc_set_ext_csd
                0x000000002ffe9ca0       0x34 /home/lodge/STM32MP157/tf-a/tf-a-stm32mp/../build/optee/bl2/mmc.o
 .text.sd_switch.constprop.0
                0x000000002ffe9cd4       0x48 /home/lodge/STM32MP157/tf-a/tf-a-stm32mp/../build/optee/bl2/mmc.o
 .text.mmc_read_blocks
                0x000000002ffe9d1c       0xd0 /home/lodge/STM32MP157/tf-a/tf-a-stm32mp/../build/optee/bl2/mmc.o
                0x000000002ffe9d1c                mmc_read_blocks
 .text.mmc_init
                0x000000002ffe9dec      0x4c4 /home/lodge/STM32MP157/tf-a/tf-a-stm32mp/../build/optee/bl2/mmc.o
                0x000000002ffe9dec                mmc_init
 .text.parse_gpt_entry
                0x000000002ffea2b0       0x98 /home/lodge/STM32MP157/tf-a/tf-a-stm32mp/../build/optee/bl2/gpt.o
                0x000000002ffea2b0                parse_gpt_entry
 .text.load_partition_table
                0x000000002ffea348      0x1f4 /home/lodge/STM32MP157/tf-a/tf-a-stm32mp/../build/optee/bl2/partition.o
                0x000000002ffea348                load_partition_table
 .text.get_partition_entry
                0x000000002ffea53c       0x40 /home/lodge/STM32MP157/tf-a/tf-a-stm32mp/../build/optee/bl2/partition.o
                0x000000002ffea53c                get_partition_entry
 .text.partition_init
                0x000000002ffea57c        0x4 /home/lodge/STM32MP157/tf-a/tf-a-stm32mp/../build/optee/bl2/partition.o
                0x000000002ffea57c                partition_init
 .text.device_type_mmc
                0x000000002ffea580        0x4 /home/lodge/STM32MP157/tf-a/tf-a-stm32mp/../build/optee/bl2/io_mmc.o
 .text.mmc_dev_init
                0x000000002ffea584        0x4 /home/lodge/STM32MP157/tf-a/tf-a-stm32mp/../build/optee/bl2/io_mmc.o
 .text.mmc_block_open
                0x000000002ffea588       0x10 /home/lodge/STM32MP157/tf-a/tf-a-stm32mp/../build/optee/bl2/io_mmc.o
 .text.mmc_block_seek
                0x000000002ffea598       0x14 /home/lodge/STM32MP157/tf-a/tf-a-stm32mp/../build/optee/bl2/io_mmc.o
 .text.mmc_block_close
                0x000000002ffea5ac        0x4 /home/lodge/STM32MP157/tf-a/tf-a-stm32mp/../build/optee/bl2/io_mmc.o
 .text.mmc_block_read
                0x000000002ffea5b0       0x70 /home/lodge/STM32MP157/tf-a/tf-a-stm32mp/../build/optee/bl2/io_mmc.o
 .text.mmc_dev_open
                0x000000002ffea620       0x1c /home/lodge/STM32MP157/tf-a/tf-a-stm32mp/../build/optee/bl2/io_mmc.o
 .text.mmc_dev_close
                0x000000002ffea63c        0x4 /home/lodge/STM32MP157/tf-a/tf-a-stm32mp/../build/optee/bl2/io_mmc.o
 .text.register_io_dev_mmc
                0x000000002ffea640       0x28 /home/lodge/STM32MP157/tf-a/tf-a-stm32mp/../build/optee/bl2/io_mmc.o
                0x000000002ffea640                register_io_dev_mmc
 .text.fdt32_to_cpu
                0x000000002ffea668        0x4 /home/lodge/STM32MP157/tf-a/tf-a-stm32mp/../build/optee/bl2/stm32_sdmmc2.o
 .text.stm32_sdmmc2_write
                0x000000002ffea66c        0x4 /home/lodge/STM32MP157/tf-a/tf-a-stm32mp/../build/optee/bl2/stm32_sdmmc2.o
 .text.dump_registers
                0x000000002ffea670       0xc4 /home/lodge/STM32MP157/tf-a/tf-a-stm32mp/../build/optee/bl2/stm32_sdmmc2.o
 .text.stm32_sdmmc2_set_ios
                0x000000002ffea734       0x78 /home/lodge/STM32MP157/tf-a/tf-a-stm32mp/../build/optee/bl2/stm32_sdmmc2.o
 .text.stm32_sdmmc2_init
                0x000000002ffea7ac       0x94 /home/lodge/STM32MP157/tf-a/tf-a-stm32mp/../build/optee/bl2/stm32_sdmmc2.o
 .text.stm32_sdmmc2_send_cmd.part.0
                0x000000002ffea840      0x2ac /home/lodge/STM32MP157/tf-a/tf-a-stm32mp/../build/optee/bl2/stm32_sdmmc2.o
 .text.stm32_sdmmc2_send_cmd
                0x000000002ffeaaec       0x1c /home/lodge/STM32MP157/tf-a/tf-a-stm32mp/../build/optee/bl2/stm32_sdmmc2.o
 .text.stm32_sdmmc2_stop_transfer
                0x000000002ffeab08       0x20 /home/lodge/STM32MP157/tf-a/tf-a-stm32mp/../build/optee/bl2/stm32_sdmmc2.o
 .text.stm32_sdmmc2_read
                0x000000002ffeab28      0x12c /home/lodge/STM32MP157/tf-a/tf-a-stm32mp/../build/optee/bl2/stm32_sdmmc2.o
 .text.plat_sdmmc2_use_dma
                0x000000002ffeac54        0x4 /home/lodge/STM32MP157/tf-a/tf-a-stm32mp/../build/optee/bl2/stm32_sdmmc2.o
                0x000000002ffeac54                plat_sdmmc2_use_dma
 .text.stm32_sdmmc2_prepare
                0x000000002ffeac58       0xb4 /home/lodge/STM32MP157/tf-a/tf-a-stm32mp/../build/optee/bl2/stm32_sdmmc2.o
 .text.stm32_sdmmc2_mmc_get_device_size
                0x000000002ffead0c       0x10 /home/lodge/STM32MP157/tf-a/tf-a-stm32mp/../build/optee/bl2/stm32_sdmmc2.o
                0x000000002ffead0c                stm32_sdmmc2_mmc_get_device_size
 .text.stm32_sdmmc2_mmc_init
                0x000000002ffead1c      0x190 /home/lodge/STM32MP157/tf-a/tf-a-stm32mp/../build/optee/bl2/stm32_sdmmc2.o
                0x000000002ffead1c                stm32_sdmmc2_mmc_init
 .text.nand_send_addr
                0x000000002ffeaeac       0x38 /home/lodge/STM32MP157/tf-a/tf-a-stm32mp/../build/optee/bl2/raw_nand.o
 .text.nand_send_cmd
                0x000000002ffeaee4       0x2c /home/lodge/STM32MP157/tf-a/tf-a-stm32mp/../build/optee/bl2/raw_nand.o
 .text.nand_read_data
                0x000000002ffeaf10       0x40 /home/lodge/STM32MP157/tf-a/tf-a-stm32mp/../build/optee/bl2/raw_nand.o
 .text.nand_send_wait
                0x000000002ffeaf50       0x34 /home/lodge/STM32MP157/tf-a/tf-a-stm32mp/../build/optee/bl2/raw_nand.o
 .text.nand_read_param_page
                0x000000002ffeaf84       0xfc /home/lodge/STM32MP157/tf-a/tf-a-stm32mp/../build/optee/bl2/raw_nand.o
 .text.nand_change_read_column_cmd
                0x000000002ffeb080       0x58 /home/lodge/STM32MP157/tf-a/tf-a-stm32mp/../build/optee/bl2/raw_nand.o
                0x000000002ffeb080                nand_change_read_column_cmd
 .text.nand_read_page_cmd
                0x000000002ffeb0d8       0xa0 /home/lodge/STM32MP157/tf-a/tf-a-stm32mp/../build/optee/bl2/raw_nand.o
                0x000000002ffeb0d8                nand_read_page_cmd
 .text.nand_mtd_read_page_raw
                0x000000002ffeb178       0x14 /home/lodge/STM32MP157/tf-a/tf-a-stm32mp/../build/optee/bl2/raw_nand.o
 .text.nand_mtd_block_is_bad
                0x000000002ffeb18c       0x50 /home/lodge/STM32MP157/tf-a/tf-a-stm32mp/../build/optee/bl2/raw_nand.o
 .text.nand_wait_ready
                0x000000002ffeb1dc       0x78 /home/lodge/STM32MP157/tf-a/tf-a-stm32mp/../build/optee/bl2/raw_nand.o
                0x000000002ffeb1dc                nand_wait_ready
 .text.nand_raw_ctrl_init
                0x000000002ffeb254        0xc /home/lodge/STM32MP157/tf-a/tf-a-stm32mp/../build/optee/bl2/raw_nand.o
                0x000000002ffeb254                nand_raw_ctrl_init
 .text.nand_raw_init
                0x000000002ffeb260       0xf0 /home/lodge/STM32MP157/tf-a/tf-a-stm32mp/../build/optee/bl2/raw_nand.o
                0x000000002ffeb260                nand_raw_init
 .text.fdt32_to_cpu
                0x000000002ffeb350        0x4 /home/lodge/STM32MP157/tf-a/tf-a-stm32mp/../build/optee/bl2/stm32_fmc2_nand.o
 .text.stm32_fmc2_set_buswidth_16
                0x000000002ffeb354       0x20 /home/lodge/STM32MP157/tf-a/tf-a-stm32mp/../build/optee/bl2/stm32_fmc2_nand.o
 .text.stm32_fmc2_set_ecc
                0x000000002ffeb374       0x20 /home/lodge/STM32MP157/tf-a/tf-a-stm32mp/../build/optee/bl2/stm32_fmc2_nand.o
 .text.stm32_fmc2_setup
                0x000000002ffeb394       0x6c /home/lodge/STM32MP157/tf-a/tf-a-stm32mp/../build/optee/bl2/stm32_fmc2_nand.o
 .text.stm32_fmc2_exec
                0x000000002ffeb400      0x170 /home/lodge/STM32MP157/tf-a/tf-a-stm32mp/../build/optee/bl2/stm32_fmc2_nand.o
 .text.stm32_fmc2_read_page
                0x000000002ffeb570      0x2fc /home/lodge/STM32MP157/tf-a/tf-a-stm32mp/../build/optee/bl2/stm32_fmc2_nand.o
 .text.stm32_fmc2_init
                0x000000002ffeb86c      0x3d8 /home/lodge/STM32MP157/tf-a/tf-a-stm32mp/../build/optee/bl2/stm32_fmc2_nand.o
                0x000000002ffeb86c                stm32_fmc2_init
 .text.spi_nand_reg
                0x000000002ffebc44       0x48 /home/lodge/STM32MP157/tf-a/tf-a-stm32mp/../build/optee/bl2/spi_nand.o
 .text.spi_nand_update_cfg
                0x000000002ffebc8c       0x38 /home/lodge/STM32MP157/tf-a/tf-a-stm32mp/../build/optee/bl2/spi_nand.o
 .text.spi_nand_wait_ready
                0x000000002ffebcc4       0x54 /home/lodge/STM32MP157/tf-a/tf-a-stm32mp/../build/optee/bl2/spi_nand.o
 .text.spi_nand_read_page
                0x000000002ffebd18       0xe8 /home/lodge/STM32MP157/tf-a/tf-a-stm32mp/../build/optee/bl2/spi_nand.o
 .text.spi_nand_mtd_read_page
                0x000000002ffebe00       0x20 /home/lodge/STM32MP157/tf-a/tf-a-stm32mp/../build/optee/bl2/spi_nand.o
 .text.spi_nand_mtd_block_is_bad
                0x000000002ffebe20       0x44 /home/lodge/STM32MP157/tf-a/tf-a-stm32mp/../build/optee/bl2/spi_nand.o
 .text.spi_nand_init
                0x000000002ffebe64       0xf4 /home/lodge/STM32MP157/tf-a/tf-a-stm32mp/../build/optee/bl2/spi_nand.o
                0x000000002ffebe64                spi_nand_init
 .text.spi_nor_reg
                0x000000002ffebf58       0x32 /home/lodge/STM32MP157/tf-a/tf-a-stm32mp/../build/optee/bl2/spi_nor.o
 .text.spi_nor_write_en
                0x000000002ffebf8a        0xc /home/lodge/STM32MP157/tf-a/tf-a-stm32mp/../build/optee/bl2/spi_nor.o
 .text.spi_nor_read_sr
                0x000000002ffebf96        0xc /home/lodge/STM32MP157/tf-a/tf-a-stm32mp/../build/optee/bl2/spi_nor.o
 *fill*         0x000000002ffebfa2        0x2 
 .text.spi_nor_clean_bar
                0x000000002ffebfa4       0x30 /home/lodge/STM32MP157/tf-a/tf-a-stm32mp/../build/optee/bl2/spi_nor.o
 .text.spi_nor_wait_ready
                0x000000002ffebfd4       0x74 /home/lodge/STM32MP157/tf-a/tf-a-stm32mp/../build/optee/bl2/spi_nor.o
 .text.spi_nor_read
                0x000000002ffec048       0xb0 /home/lodge/STM32MP157/tf-a/tf-a-stm32mp/../build/optee/bl2/spi_nor.o
                0x000000002ffec048                spi_nor_read
 .text.spi_nor_init
                0x000000002ffec0f8      0x18c /home/lodge/STM32MP157/tf-a/tf-a-stm32mp/../build/optee/bl2/spi_nor.o
                0x000000002ffec0f8                spi_nor_init
 .text.fdt32_to_cpu
                0x000000002ffec284        0x4 /home/lodge/STM32MP157/tf-a/tf-a-stm32mp/../build/optee/bl2/spi_mem.o
 .text.spi_mem_check_buswidth_req
                0x000000002ffec288       0x40 /home/lodge/STM32MP157/tf-a/tf-a-stm32mp/../build/optee/bl2/spi_mem.o
 .text.spi_mem_exec_op
                0x000000002ffec2c8       0x7c /home/lodge/STM32MP157/tf-a/tf-a-stm32mp/../build/optee/bl2/spi_mem.o
                0x000000002ffec2c8                spi_mem_exec_op
 .text.spi_mem_init_slave
                0x000000002ffec344      0x1d8 /home/lodge/STM32MP157/tf-a/tf-a-stm32mp/../build/optee/bl2/spi_mem.o
                0x000000002ffec344                spi_mem_init_slave
 .text.stm32_qspi_read_fifo
                0x000000002ffec51c        0x6 /home/lodge/STM32MP157/tf-a/tf-a-stm32mp/../build/optee/bl2/stm32_qspi.o
 .text.stm32_qspi_write_fifo
                0x000000002ffec522        0x6 /home/lodge/STM32MP157/tf-a/tf-a-stm32mp/../build/optee/bl2/stm32_qspi.o
 .text.stm32_qspi_claim_bus
                0x000000002ffec528       0x28 /home/lodge/STM32MP157/tf-a/tf-a-stm32mp/../build/optee/bl2/stm32_qspi.o
 .text.stm32_qspi_release_bus
                0x000000002ffec550       0x14 /home/lodge/STM32MP157/tf-a/tf-a-stm32mp/../build/optee/bl2/stm32_qspi.o
 .text.stm32_qspi_wait_for_not_busy
                0x000000002ffec564       0x58 /home/lodge/STM32MP157/tf-a/tf-a-stm32mp/../build/optee/bl2/stm32_qspi.o
 .text.stm32_qspi_set_speed
                0x000000002ffec5bc       0x74 /home/lodge/STM32MP157/tf-a/tf-a-stm32mp/../build/optee/bl2/stm32_qspi.o
 .text.stm32_qspi_set_mode
                0x000000002ffec630       0x3c /home/lodge/STM32MP157/tf-a/tf-a-stm32mp/../build/optee/bl2/stm32_qspi.o
 .text.stm32_qspi_exec_op
                0x000000002ffec66c      0x22c /home/lodge/STM32MP157/tf-a/tf-a-stm32mp/../build/optee/bl2/stm32_qspi.o
 .text.stm32_qspi_init
                0x000000002ffec898       0xcc /home/lodge/STM32MP157/tf-a/tf-a-stm32mp/../build/optee/bl2/stm32_qspi.o
                0x000000002ffec898                stm32_qspi_init
 .text.nand_read
                0x000000002ffec964      0x118 /home/lodge/STM32MP157/tf-a/tf-a-stm32mp/../build/optee/bl2/core.o
                0x000000002ffec964                nand_read
 .text.get_nand_device
                0x000000002ffeca7c        0x8 /home/lodge/STM32MP157/tf-a/tf-a-stm32mp/../build/optee/bl2/core.o
                0x000000002ffeca7c                get_nand_device
 .text.get_data_from_otp
                0x000000002ffeca84       0xe0 /home/lodge/STM32MP157/tf-a/tf-a-stm32mp/../build/optee/bl2/stm32mp1_boot_device.o
 .text.plat_get_raw_nand_data
                0x000000002ffecb64       0x10 /home/lodge/STM32MP157/tf-a/tf-a-stm32mp/../build/optee/bl2/stm32mp1_boot_device.o
                0x000000002ffecb64                plat_get_raw_nand_data
 .text.plat_get_spi_nand_data
                0x000000002ffecb74       0x32 /home/lodge/STM32MP157/tf-a/tf-a-stm32mp/../build/optee/bl2/stm32mp1_boot_device.o
                0x000000002ffecb74                plat_get_spi_nand_data
 .text.plat_get_nor_data
                0x000000002ffecba6       0x2c /home/lodge/STM32MP157/tf-a/tf-a-stm32mp/../build/optee/bl2/stm32mp1_boot_device.o
                0x000000002ffecba6                plat_get_nor_data
 *fill*         0x000000002ffecbd2        0x2 
 .text.set_reg  0x000000002ffecbd4       0x54 /home/lodge/STM32MP157/tf-a/tf-a-stm32mp/../build/optee/bl2/stm32mp1_ddr.o
 .text.board_ddr_power_init
                0x000000002ffecc28       0x1a /home/lodge/STM32MP157/tf-a/tf-a-stm32mp/../build/optee/bl2/stm32mp1_ddr.o
 .text.stm32mp1_mode_register_write.isra.0
                0x000000002ffecc42       0x22 /home/lodge/STM32MP157/tf-a/tf-a-stm32mp/../build/optee/bl2/stm32mp1_ddr.o
 .text.stm32mp1_ddrphy_idone_wait
                0x000000002ffecc64       0x60 /home/lodge/STM32MP157/tf-a/tf-a-stm32mp/../build/optee/bl2/stm32mp1_ddr.o
 .text.stm32mp1_wait_operating_mode
                0x000000002ffeccc4       0x68 /home/lodge/STM32MP157/tf-a/tf-a-stm32mp/../build/optee/bl2/stm32mp1_ddr.o
 .text.stm32mp1_wait_sw_done_ack
                0x000000002ffecd2c       0x50 /home/lodge/STM32MP157/tf-a/tf-a-stm32mp/../build/optee/bl2/stm32mp1_ddr.o
 .text.stm32mp1_ddr_init
                0x000000002ffecd7c      0x4c8 /home/lodge/STM32MP157/tf-a/tf-a-stm32mp/../build/optee/bl2/stm32mp1_ddr.o
                0x000000002ffecd7c                stm32mp1_ddr_init
 .text.stm32mp1_ddr_setup
                0x000000002ffed244      0x340 /home/lodge/STM32MP157/tf-a/tf-a-stm32mp/../build/optee/bl2/stm32mp1_ram.o
 .text.stm32mp1_ddr_clk_enable
                0x000000002ffed584       0x44 /home/lodge/STM32MP157/tf-a/tf-a-stm32mp/../build/optee/bl2/stm32mp1_ram.o
                0x000000002ffed584                stm32mp1_ddr_clk_enable
 .text.stm32mp1_ddr_probe
                0x000000002ffed5c8       0x3c /home/lodge/STM32MP157/tf-a/tf-a-stm32mp/../build/optee/bl2/stm32mp1_ram.o
                0x000000002ffed5c8                stm32mp1_ddr_probe
 .text.flush_bl_params_desc_args
                0x000000002ffed604       0x34 /home/lodge/STM32MP157/tf-a/tf-a-stm32mp/../build/optee/bl2/desc_image_load.o
                0x000000002ffed604                flush_bl_params_desc_args
 .text.flush_bl_params_desc
                0x000000002ffed638       0x1c /home/lodge/STM32MP157/tf-a/tf-a-stm32mp/../build/optee/bl2/desc_image_load.o
                0x000000002ffed638                flush_bl_params_desc
 .text.get_bl_params_node_index
                0x000000002ffed654       0x40 /home/lodge/STM32MP157/tf-a/tf-a-stm32mp/../build/optee/bl2/desc_image_load.o
                0x000000002ffed654                get_bl_params_node_index
 .text.get_bl_mem_params_node
                0x000000002ffed694       0x30 /home/lodge/STM32MP157/tf-a/tf-a-stm32mp/../build/optee/bl2/desc_image_load.o
                0x000000002ffed694                get_bl_mem_params_node
 .text.get_bl_load_info_from_mem_params_desc
                0x000000002ffed6c4       0x54 /home/lodge/STM32MP157/tf-a/tf-a-stm32mp/../build/optee/bl2/desc_image_load.o
                0x000000002ffed6c4                get_bl_load_info_from_mem_params_desc
 .text.get_next_bl_params_from_mem_params_desc
                0x000000002ffed718       0xc0 /home/lodge/STM32MP157/tf-a/tf-a-stm32mp/../build/optee/bl2/desc_image_load.o
                0x000000002ffed718                get_next_bl_params_from_mem_params_desc
 .text.plat_flush_next_bl_params
                0x000000002ffed7d8        0x4 /home/lodge/STM32MP157/tf-a/tf-a-stm32mp/../build/optee/bl2/plat_image_load.o
                0x000000002ffed7d8                plat_flush_next_bl_params
 .text.plat_get_bl_image_load_info
                0x000000002ffed7dc       0xa4 /home/lodge/STM32MP157/tf-a/tf-a-stm32mp/../build/optee/bl2/plat_image_load.o
                0x000000002ffed7dc                plat_get_bl_image_load_info
 .text.plat_get_next_bl_params
                0x000000002ffed880        0x4 /home/lodge/STM32MP157/tf-a/tf-a-stm32mp/../build/optee/bl2/plat_image_load.o
                0x000000002ffed880                plat_get_next_bl_params
 .text.tee_validate_header
                0x000000002ffed884       0x30 /home/lodge/STM32MP157/tf-a/tf-a-stm32mp/../build/optee/bl2/optee_utils.o
 .text.parse_optee_image
                0x000000002ffed8b4       0x5c /home/lodge/STM32MP157/tf-a/tf-a-stm32mp/../build/optee/bl2/optee_utils.o
 .text.get_optee_header_ep
                0x000000002ffed910       0x44 /home/lodge/STM32MP157/tf-a/tf-a-stm32mp/../build/optee/bl2/optee_utils.o
                0x000000002ffed910                get_optee_header_ep
 .text.parse_optee_header
                0x000000002ffed954       0xf4 /home/lodge/STM32MP157/tf-a/tf-a-stm32mp/../build/optee/bl2/optee_utils.o
                0x000000002ffed954                parse_optee_header
 .text.bl2_load_images
                0x000000002ffeda48      0x110 /home/lodge/STM32MP157/tf-a/tf-a-stm32mp/../build/optee/bl2/bl2_image_load_v2.o
                0x000000002ffeda48                bl2_load_images
 .text.bl2_el3_setup
                0x000000002ffedb58        0xe /home/lodge/STM32MP157/tf-a/tf-a-stm32mp/../build/optee/bl2/bl2_main.o
                0x000000002ffedb58                bl2_el3_setup
 *fill*         0x000000002ffedb66        0x2 
 .text.bl2_main
                0x000000002ffedb68       0x50 /home/lodge/STM32MP157/tf-a/tf-a-stm32mp/../build/optee/bl2/bl2_main.o
                0x000000002ffedb68                bl2_main
 .text.bl2_arch_setup
                0x000000002ffedbb8        0x2 /home/lodge/STM32MP157/tf-a/tf-a-stm32mp/../build/optee/bl2/bl2_arch_setup.o
                0x000000002ffedbb8                bl2_arch_setup
 *fill*         0x000000002ffedbba        0x2 
 .text.load_auth_image_internal
                0x000000002ffedbbc      0x138 /home/lodge/STM32MP157/tf-a/tf-a-stm32mp/../build/optee/bl2/bl_common.o
 .text.load_auth_image
                0x000000002ffedcf4       0x22 /home/lodge/STM32MP157/tf-a/tf-a-stm32mp/../build/optee/bl2/bl_common.o
                0x000000002ffedcf4                load_auth_image
 *fill*         0x000000002ffedd16        0x2 
 .text.print_entry_point_info
                0x000000002ffedd18       0x20 /home/lodge/STM32MP157/tf-a/tf-a-stm32mp/../build/optee/bl2/bl_common.o
                0x000000002ffedd18                print_entry_point_info
 .text.tf_log   0x000000002ffedd38       0x5c /home/lodge/STM32MP157/tf-a/tf-a-stm32mp/../build/optee/bl2/tf_log.o
                0x000000002ffedd38                tf_log
 .text.console_is_registered
                0x000000002ffedd94       0x2c /home/lodge/STM32MP157/tf-a/tf-a-stm32mp/../build/optee/bl2/multi_console.o
                0x000000002ffedd94                console_is_registered
 .text.console_register
                0x000000002ffeddc0       0x40 /home/lodge/STM32MP157/tf-a/tf-a-stm32mp/../build/optee/bl2/multi_console.o
                0x000000002ffeddc0                console_register
 .text.console_set_scope
                0x000000002ffede00       0x1c /home/lodge/STM32MP157/tf-a/tf-a-stm32mp/../build/optee/bl2/multi_console.o
                0x000000002ffede00                console_set_scope
 .text.console_putc
                0x000000002ffede1c       0x58 /home/lodge/STM32MP157/tf-a/tf-a-stm32mp/../build/optee/bl2/multi_console.o
                0x000000002ffede1c                console_putc
 .text.console_flush
                0x000000002ffede74       0x40 /home/lodge/STM32MP157/tf-a/tf-a-stm32mp/../build/optee/bl2/multi_console.o
                0x000000002ffede74                console_flush
 .text.bl2_el3_plat_prepare_exit
                0x000000002ffedeb4        0x2 /home/lodge/STM32MP157/tf-a/tf-a-stm32mp/../build/optee/bl2/plat_bl_common.o
                0x000000002ffedeb4                bl2_el3_plat_prepare_exit
 .text.plat_error_handler
                0x000000002ffedeb6        0x4 /home/lodge/STM32MP157/tf-a/tf-a-stm32mp/../build/optee/bl2/plat_bl_common.o
                0x000000002ffedeb6                plat_error_handler
 .text.bl2_plat_preload_setup
                0x000000002ffedeba        0x2 /home/lodge/STM32MP157/tf-a/tf-a-stm32mp/../build/optee/bl2/plat_bl_common.o
                0x000000002ffedeba                bl2_plat_preload_setup
 .text.bl2_plat_handle_pre_image_load
                0x000000002ffedebc        0x4 /home/lodge/STM32MP157/tf-a/tf-a-stm32mp/../build/optee/bl2/plat_bl_common.o
                0x000000002ffedebc                bl2_plat_handle_pre_image_load
 .text.plat_log_get_prefix
                0x000000002ffedec0       0x24 /home/lodge/STM32MP157/tf-a/tf-a-stm32mp/../build/optee/bl2/plat_log_common.o
                0x000000002ffedec0                plat_log_get_prefix
 .text.__popcountsi2
                0x000000002ffedee4       0x2a /home/lodge/STM32MP157/tf-a/tf-a-stm32mp/../build/optee/bl2/popcountsi2.o
                0x000000002ffedee4                __popcountsi2
 .text.__ctzdi2
                0x000000002ffedf0e       0x20 /home/lodge/STM32MP157/tf-a/tf-a-stm32mp/../build/optee/bl2/ctzdi2.o
                0x000000002ffedf0e                __ctzdi2
 .text.__udivmoddi4
                0x000000002ffedf2e      0x17e /home/lodge/STM32MP157/tf-a/tf-a-stm32mp/../build/optee/bl2/udivmoddi4.o
                0x000000002ffedf2e                __udivmoddi4
 .text.plat_get_syscnt_freq2
                0x000000002ffee0ac        0x6 /home/lodge/STM32MP157/tf-a/tf-a-stm32mp/../build/optee/bl2/stm32mp_common.o
                0x000000002ffee0ac                plat_get_syscnt_freq2
 *fill*         0x000000002ffee0b2        0x2 
 .text.stm32mp_save_boot_ctx_address
                0x000000002ffee0b4        0xc /home/lodge/STM32MP157/tf-a/tf-a-stm32mp/../build/optee/bl2/stm32mp_common.o
                0x000000002ffee0b4                stm32mp_save_boot_ctx_address
 .text.stm32mp_get_boot_ctx_address
                0x000000002ffee0c0        0xc /home/lodge/STM32MP157/tf-a/tf-a-stm32mp/../build/optee/bl2/stm32mp_common.o
                0x000000002ffee0c0                stm32mp_get_boot_ctx_address
 .text.stm32mp_ddrctrl_base
                0x000000002ffee0cc        0x8 /home/lodge/STM32MP157/tf-a/tf-a-stm32mp/../build/optee/bl2/stm32mp_common.o
                0x000000002ffee0cc                stm32mp_ddrctrl_base
 .text.stm32mp_ddrphyc_base
                0x000000002ffee0d4        0x8 /home/lodge/STM32MP157/tf-a/tf-a-stm32mp/../build/optee/bl2/stm32mp_common.o
                0x000000002ffee0d4                stm32mp_ddrphyc_base
 .text.stm32mp_pwr_base
                0x000000002ffee0dc        0x8 /home/lodge/STM32MP157/tf-a/tf-a-stm32mp/../build/optee/bl2/stm32mp_common.o
                0x000000002ffee0dc                stm32mp_pwr_base
 .text.stm32mp_rcc_base
                0x000000002ffee0e4        0x6 /home/lodge/STM32MP157/tf-a/tf-a-stm32mp/../build/optee/bl2/stm32mp_common.o
                0x000000002ffee0e4                stm32mp_rcc_base
 .text.stm32mp_lock_available
                0x000000002ffee0ea       0x10 /home/lodge/STM32MP157/tf-a/tf-a-stm32mp/../build/optee/bl2/stm32mp_common.o
                0x000000002ffee0ea                stm32mp_lock_available
 *fill*         0x000000002ffee0fa        0x2 
 .text.stm32_get_gpio_bank_base
                0x000000002ffee0fc       0x28 /home/lodge/STM32MP157/tf-a/tf-a-stm32mp/../build/optee/bl2/stm32mp_common.o
                0x000000002ffee0fc                stm32_get_gpio_bank_base
 .text.stm32_get_gpio_bank_offset
                0x000000002ffee124       0x20 /home/lodge/STM32MP157/tf-a/tf-a-stm32mp/../build/optee/bl2/stm32mp_common.o
                0x000000002ffee124                stm32_get_gpio_bank_offset
 .text.stm32mp_check_header
                0x000000002ffee144       0xc0 /home/lodge/STM32MP157/tf-a/tf-a-stm32mp/../build/optee/bl2/stm32mp_common.o
                0x000000002ffee144                stm32mp_check_header
 .text.stm32mp_get_cpu_supply_name
                0x000000002ffee204       0x2e /home/lodge/STM32MP157/tf-a/tf-a-stm32mp/../build/optee/bl2/stm32mp_common.o
                0x000000002ffee204                stm32mp_get_cpu_supply_name
 *fill*         0x000000002ffee232        0x2 
 .text.stm32mp_save_loaded_header
                0x000000002ffee234       0x1c /home/lodge/STM32MP157/tf-a/tf-a-stm32mp/../build/optee/bl2/stm32mp_common.o
                0x000000002ffee234                stm32mp_save_loaded_header
 .text.stm32mp_delete_loaded_header
                0x000000002ffee250       0x1c /home/lodge/STM32MP157/tf-a/tf-a-stm32mp/../build/optee/bl2/stm32mp_common.o
                0x000000002ffee250                stm32mp_delete_loaded_header
 .text.stm32mp_get_loaded_header
                0x000000002ffee26c       0x1c /home/lodge/STM32MP157/tf-a/tf-a-stm32mp/../build/optee/bl2/stm32mp_common.o
                0x000000002ffee26c                stm32mp_get_loaded_header
 .text.configure_mmu
                0x000000002ffee288       0x1c /home/lodge/STM32MP157/tf-a/tf-a-stm32mp/../build/optee/bl2/stm32mp1_private.o
                0x000000002ffee288                configure_mmu
 .text.stm32_get_gpio_bank_clock
                0x000000002ffee2a4       0x20 /home/lodge/STM32MP157/tf-a/tf-a-stm32mp/../build/optee/bl2/stm32mp1_private.o
                0x000000002ffee2a4                stm32_get_gpio_bank_clock
 .text.stm32_get_otp_index
                0x000000002ffee2c4       0x28 /home/lodge/STM32MP157/tf-a/tf-a-stm32mp/../build/optee/bl2/stm32mp1_private.o
                0x000000002ffee2c4                stm32_get_otp_index
 .text.stm32_get_otp_value_from_idx
                0x000000002ffee2ec       0x30 /home/lodge/STM32MP157/tf-a/tf-a-stm32mp/../build/optee/bl2/stm32mp1_private.o
                0x000000002ffee2ec                stm32_get_otp_value_from_idx
 .text.stm32_get_otp_value
                0x000000002ffee31c       0x48 /home/lodge/STM32MP157/tf-a/tf-a-stm32mp/../build/optee/bl2/stm32mp1_private.o
                0x000000002ffee31c                stm32_get_otp_value
 .text.get_part_number
                0x000000002ffee364       0x4c /home/lodge/STM32MP157/tf-a/tf-a-stm32mp/../build/optee/bl2/stm32mp1_private.o
 .text.stm32mp_supports_cpu_opp
                0x000000002ffee3b0       0x40 /home/lodge/STM32MP157/tf-a/tf-a-stm32mp/../build/optee/bl2/stm32mp1_private.o
                0x000000002ffee3b0                stm32mp_supports_cpu_opp
 .text.stm32mp_print_cpuinfo
                0x000000002ffee3f0      0x15c /home/lodge/STM32MP157/tf-a/tf-a-stm32mp/../build/optee/bl2/stm32mp1_private.o
                0x000000002ffee3f0                stm32mp_print_cpuinfo
 .text.stm32mp_print_boardinfo
                0x000000002ffee54c       0x4c /home/lodge/STM32MP157/tf-a/tf-a-stm32mp/../build/optee/bl2/stm32mp1_private.o
                0x000000002ffee54c                stm32mp_print_boardinfo
 .text.stm32mp_is_closed_device
                0x000000002ffee598       0x24 /home/lodge/STM32MP157/tf-a/tf-a-stm32mp/../build/optee/bl2/stm32mp1_private.o
                0x000000002ffee598                stm32mp_is_closed_device
 .text.stm32mp_is_auth_supported
                0x000000002ffee5bc       0x40 /home/lodge/STM32MP157/tf-a/tf-a-stm32mp/../build/optee/bl2/stm32mp1_private.o
                0x000000002ffee5bc                stm32mp_is_auth_supported
 .text.stm32_iwdg_get_instance
                0x000000002ffee5fc       0x28 /home/lodge/STM32MP157/tf-a/tf-a-stm32mp/../build/optee/bl2/stm32mp1_private.o
                0x000000002ffee5fc                stm32_iwdg_get_instance
 .text.stm32_iwdg_get_otp_config
                0x000000002ffee624       0x54 /home/lodge/STM32MP157/tf-a/tf-a-stm32mp/../build/optee/bl2/stm32mp1_private.o
                0x000000002ffee624                stm32_iwdg_get_otp_config
 .text.stm32_iwdg_shadow_update
                0x000000002ffee678       0x74 /home/lodge/STM32MP157/tf-a/tf-a-stm32mp/../build/optee/bl2/stm32mp1_private.o
                0x000000002ffee678                stm32_iwdg_shadow_update
 .text.plat_bind_regulator
                0x000000002ffee6ec       0x50 /home/lodge/STM32MP157/tf-a/tf-a-stm32mp/../build/optee/bl2/stm32mp1_private.o
                0x000000002ffee6ec                plat_bind_regulator
 .text.xlat_arch_get_max_supported_pa
                0x000000002ffee73c        0x8 /home/lodge/STM32MP157/tf-a/tf-a-stm32mp/../build/optee/bl2/xlat_tables_arch.o
                0x000000002ffee73c                xlat_arch_get_max_supported_pa
 .text.xlat_get_min_virt_addr_space_size
                0x000000002ffee744        0x6 /home/lodge/STM32MP157/tf-a/tf-a-stm32mp/../build/optee/bl2/xlat_tables_arch.o
                0x000000002ffee744                xlat_get_min_virt_addr_space_size
 .text.is_dcache_enabled
                0x000000002ffee74a       0x1c /home/lodge/STM32MP157/tf-a/tf-a-stm32mp/../build/optee/bl2/xlat_tables_arch.o
                0x000000002ffee74a                is_dcache_enabled
 *fill*         0x000000002ffee766        0x2 
 .text.xlat_arch_regime_get_xn_desc
                0x000000002ffee768       0x28 /home/lodge/STM32MP157/tf-a/tf-a-stm32mp/../build/optee/bl2/xlat_tables_arch.o
                0x000000002ffee768                xlat_arch_regime_get_xn_desc
 .text.xlat_arch_tlbi_va
                0x000000002ffee790       0x30 /home/lodge/STM32MP157/tf-a/tf-a-stm32mp/../build/optee/bl2/xlat_tables_arch.o
                0x000000002ffee790                xlat_arch_tlbi_va
 .text.xlat_arch_tlbi_va_sync
                0x000000002ffee7c0       0x10 /home/lodge/STM32MP157/tf-a/tf-a-stm32mp/../build/optee/bl2/xlat_tables_arch.o
                0x000000002ffee7c0                xlat_arch_tlbi_va_sync
 .text.xlat_arch_current_el
                0x000000002ffee7d0       0x3c /home/lodge/STM32MP157/tf-a/tf-a-stm32mp/../build/optee/bl2/xlat_tables_arch.o
                0x000000002ffee7d0                xlat_arch_current_el
 .text.is_mmu_enabled_ctx
                0x000000002ffee80c       0x40 /home/lodge/STM32MP157/tf-a/tf-a-stm32mp/../build/optee/bl2/xlat_tables_arch.o
                0x000000002ffee80c                is_mmu_enabled_ctx
 .text.setup_mmu_cfg
                0x000000002ffee84c       0xac /home/lodge/STM32MP157/tf-a/tf-a-stm32mp/../build/optee/bl2/xlat_tables_arch.o
                0x000000002ffee84c                setup_mmu_cfg
 .text.mmap_add_region
                0x000000002ffee8f8       0x28 /home/lodge/STM32MP157/tf-a/tf-a-stm32mp/../build/optee/bl2/xlat_tables_context.o
                0x000000002ffee8f8                mmap_add_region
 .text.mmap_add
                0x000000002ffee920        0xc /home/lodge/STM32MP157/tf-a/tf-a-stm32mp/../build/optee/bl2/xlat_tables_context.o
                0x000000002ffee920                mmap_add
 .text.mmap_add_dynamic_region
                0x000000002ffee92c       0x28 /home/lodge/STM32MP157/tf-a/tf-a-stm32mp/../build/optee/bl2/xlat_tables_context.o
                0x000000002ffee92c                mmap_add_dynamic_region
 .text.mmap_remove_dynamic_region
                0x000000002ffee954       0x10 /home/lodge/STM32MP157/tf-a/tf-a-stm32mp/../build/optee/bl2/xlat_tables_context.o
                0x000000002ffee954                mmap_remove_dynamic_region
 .text.init_xlat_tables
                0x000000002ffee964       0x3c /home/lodge/STM32MP157/tf-a/tf-a-stm32mp/../build/optee/bl2/xlat_tables_context.o
                0x000000002ffee964                init_xlat_tables
 .text.enable_mmu_svc_mon
                0x000000002ffee9a0       0x34 /home/lodge/STM32MP157/tf-a/tf-a-stm32mp/../build/optee/bl2/xlat_tables_context.o
                0x000000002ffee9a0                enable_mmu_svc_mon
 .text.mmap_add_region_check
                0x000000002ffee9d4      0x12e /home/lodge/STM32MP157/tf-a/tf-a-stm32mp/../build/optee/bl2/xlat_tables_core.o
 .text.xlat_clean_dcache_range
                0x000000002ffeeb02       0x1a /home/lodge/STM32MP157/tf-a/tf-a-stm32mp/../build/optee/bl2/xlat_tables_core.o
 .text.xlat_table_get_index
                0x000000002ffeeb1c       0x28 /home/lodge/STM32MP157/tf-a/tf-a-stm32mp/../build/optee/bl2/xlat_tables_core.o
 .text.xlat_tables_unmap_region
                0x000000002ffeeb44      0x13c /home/lodge/STM32MP157/tf-a/tf-a-stm32mp/../build/optee/bl2/xlat_tables_core.o
 .text.xlat_desc
                0x000000002ffeec80       0xa4 /home/lodge/STM32MP157/tf-a/tf-a-stm32mp/../build/optee/bl2/xlat_tables_core.o
                0x000000002ffeec80                xlat_desc
 .text.xlat_tables_map_region
                0x000000002ffeed24      0x1a8 /home/lodge/STM32MP157/tf-a/tf-a-stm32mp/../build/optee/bl2/xlat_tables_core.o
 .text.mmap_add_region_ctx
                0x000000002ffeeecc       0xe4 /home/lodge/STM32MP157/tf-a/tf-a-stm32mp/../build/optee/bl2/xlat_tables_core.o
                0x000000002ffeeecc                mmap_add_region_ctx
 .text.mmap_add_ctx
                0x000000002ffeefb0       0x18 /home/lodge/STM32MP157/tf-a/tf-a-stm32mp/../build/optee/bl2/xlat_tables_core.o
                0x000000002ffeefb0                mmap_add_ctx
 .text.mmap_add_dynamic_region_ctx
                0x000000002ffeefc8      0x160 /home/lodge/STM32MP157/tf-a/tf-a-stm32mp/../build/optee/bl2/xlat_tables_core.o
                0x000000002ffeefc8                mmap_add_dynamic_region_ctx
 .text.mmap_remove_dynamic_region_ctx
                0x000000002ffef128      0x108 /home/lodge/STM32MP157/tf-a/tf-a-stm32mp/../build/optee/bl2/xlat_tables_core.o
                0x000000002ffef128                mmap_remove_dynamic_region_ctx
 .text.init_xlat_tables_ctx
                0x000000002ffef230      0x154 /home/lodge/STM32MP157/tf-a/tf-a-stm32mp/../build/optee/bl2/xlat_tables_core.o
                0x000000002ffef230                init_xlat_tables_ctx
 .text.xlat_mmap_print
                0x000000002ffef384        0x2 /home/lodge/STM32MP157/tf-a/tf-a-stm32mp/../build/optee/bl2/xlat_tables_utils.o
                0x000000002ffef384                xlat_mmap_print
 .text.xlat_tables_print
                0x000000002ffef386        0x2 /home/lodge/STM32MP157/tf-a/tf-a-stm32mp/../build/optee/bl2/xlat_tables_utils.o
                0x000000002ffef386                xlat_tables_print
 .text.tzc400_set_action
                0x000000002ffef388       0x24 /home/lodge/STM32MP157/tf-a/tf-a-stm32mp/../build/optee/bl2/tzc400.o
                0x000000002ffef388                tzc400_set_action
 .text.tzc400_init
                0x000000002ffef3ac       0x5c /home/lodge/STM32MP157/tf-a/tf-a-stm32mp/../build/optee/bl2/tzc400.o
                0x000000002ffef3ac                tzc400_init
 .text.tzc400_configure_region
                0x000000002ffef408       0xb0 /home/lodge/STM32MP157/tf-a/tf-a-stm32mp/../build/optee/bl2/tzc400.o
                0x000000002ffef408                tzc400_configure_region
 .text.tzc400_enable_filters
                0x000000002ffef4b8       0x68 /home/lodge/STM32MP157/tf-a/tf-a-stm32mp/../build/optee/bl2/tzc400.o
                0x000000002ffef4b8                tzc400_enable_filters
 .text.tzc400_disable_filters
                0x000000002ffef520       0x4c /home/lodge/STM32MP157/tf-a/tf-a-stm32mp/../build/optee/bl2/tzc400.o
                0x000000002ffef520                tzc400_disable_filters
 .text.udelay   0x000000002ffef56c       0x5c /home/lodge/STM32MP157/tf-a/tf-a-stm32mp/../build/optee/bl2/delay_timer.o
                0x000000002ffef56c                udelay
 .text.mdelay   0x000000002ffef5c8        0xa /home/lodge/STM32MP157/tf-a/tf-a-stm32mp/../build/optee/bl2/delay_timer.o
                0x000000002ffef5c8                mdelay
 *fill*         0x000000002ffef5d2        0x2 
 .text.timer_init
                0x000000002ffef5d4       0x28 /home/lodge/STM32MP157/tf-a/tf-a-stm32mp/../build/optee/bl2/delay_timer.o
                0x000000002ffef5d4                timer_init
 .text.get_timer_value
                0x000000002ffef5fc        0x8 /home/lodge/STM32MP157/tf-a/tf-a-stm32mp/../build/optee/bl2/generic_delay_timer.o
 .text.generic_delay_timer_init_args
                0x000000002ffef604       0x18 /home/lodge/STM32MP157/tf-a/tf-a-stm32mp/../build/optee/bl2/generic_delay_timer.o
                0x000000002ffef604                generic_delay_timer_init_args
 .text.generic_delay_timer_init
                0x000000002ffef61c       0x44 /home/lodge/STM32MP157/tf-a/tf-a-stm32mp/../build/optee/bl2/generic_delay_timer.o
                0x000000002ffef61c                generic_delay_timer_init
 .text.fdt32_to_cpu
                0x000000002ffef660        0x4 /home/lodge/STM32MP157/tf-a/tf-a-stm32mp/../build/optee/bl2/bsec2.o
 .text.bsec_lock
                0x000000002ffef664       0x18 /home/lodge/STM32MP157/tf-a/tf-a-stm32mp/../build/optee/bl2/bsec2.o
 .text.bsec_unlock
                0x000000002ffef67c       0x18 /home/lodge/STM32MP157/tf-a/tf-a-stm32mp/../build/optee/bl2/bsec2.o
 .text.otp_bank_offset
                0x000000002ffef694       0x18 /home/lodge/STM32MP157/tf-a/tf-a-stm32mp/../build/optee/bl2/bsec2.o
 .text.bsec_check_error
                0x000000002ffef6ac       0x34 /home/lodge/STM32MP157/tf-a/tf-a-stm32mp/../build/optee/bl2/bsec2.o
 .text.bsec_find_otp_name_in_dt
                0x000000002ffef6e0       0xd0 /home/lodge/STM32MP157/tf-a/tf-a-stm32mp/../build/optee/bl2/bsec2.o
                0x000000002ffef6e0                bsec_find_otp_name_in_dt
 .text.bsec_read_otp
                0x000000002ffef7b0       0x20 /home/lodge/STM32MP157/tf-a/tf-a-stm32mp/../build/optee/bl2/bsec2.o
                0x000000002ffef7b0                bsec_read_otp
 .text.bsec_read_debug_conf
                0x000000002ffef7d0        0xc /home/lodge/STM32MP157/tf-a/tf-a-stm32mp/../build/optee/bl2/bsec2.o
                0x000000002ffef7d0                bsec_read_debug_conf
 .text.bsec_get_status
                0x000000002ffef7dc        0xc /home/lodge/STM32MP157/tf-a/tf-a-stm32mp/../build/optee/bl2/bsec2.o
                0x000000002ffef7dc                bsec_get_status
 .text.bsec_power_safmem
                0x000000002ffef7e8       0x64 /home/lodge/STM32MP157/tf-a/tf-a-stm32mp/../build/optee/bl2/bsec2.o
 .text.bsec_get_version
                0x000000002ffef84c       0x10 /home/lodge/STM32MP157/tf-a/tf-a-stm32mp/../build/optee/bl2/bsec2.o
                0x000000002ffef84c                bsec_get_version
 .text.bsec_get_id
                0x000000002ffef85c       0x10 /home/lodge/STM32MP157/tf-a/tf-a-stm32mp/../build/optee/bl2/bsec2.o
                0x000000002ffef85c                bsec_get_id
 .text.bsec_probe
                0x000000002ffef86c       0x50 /home/lodge/STM32MP157/tf-a/tf-a-stm32mp/../build/optee/bl2/bsec2.o
                0x000000002ffef86c                bsec_probe
 .text.bsec_set_sr_lock
                0x000000002ffef8bc       0x38 /home/lodge/STM32MP157/tf-a/tf-a-stm32mp/../build/optee/bl2/bsec2.o
                0x000000002ffef8bc                bsec_set_sr_lock
 .text.bsec_read_sr_lock
                0x000000002ffef8f4       0x38 /home/lodge/STM32MP157/tf-a/tf-a-stm32mp/../build/optee/bl2/bsec2.o
                0x000000002ffef8f4                bsec_read_sr_lock
 .text.bsec_shadow_register
                0x000000002ffef92c       0x7c /home/lodge/STM32MP157/tf-a/tf-a-stm32mp/../build/optee/bl2/bsec2.o
                0x000000002ffef92c                bsec_shadow_register
 .text.bsec_set_sw_lock
                0x000000002ffef9a8       0x38 /home/lodge/STM32MP157/tf-a/tf-a-stm32mp/../build/optee/bl2/bsec2.o
                0x000000002ffef9a8                bsec_set_sw_lock
 .text.bsec_read_sw_lock
                0x000000002ffef9e0       0x38 /home/lodge/STM32MP157/tf-a/tf-a-stm32mp/../build/optee/bl2/bsec2.o
                0x000000002ffef9e0                bsec_read_sw_lock
 .text.bsec_write_otp
                0x000000002ffefa18       0x44 /home/lodge/STM32MP157/tf-a/tf-a-stm32mp/../build/optee/bl2/bsec2.o
                0x000000002ffefa18                bsec_write_otp
 .text.bsec_read_sp_lock
                0x000000002ffefa5c       0x38 /home/lodge/STM32MP157/tf-a/tf-a-stm32mp/../build/optee/bl2/bsec2.o
                0x000000002ffefa5c                bsec_read_sp_lock
 .text.bsec_read_permanent_lock
                0x000000002ffefa94       0x38 /home/lodge/STM32MP157/tf-a/tf-a-stm32mp/../build/optee/bl2/bsec2.o
                0x000000002ffefa94                bsec_read_permanent_lock
 .text.bsec_program_otp
                0x000000002ffefacc       0xe0 /home/lodge/STM32MP157/tf-a/tf-a-stm32mp/../build/optee/bl2/bsec2.o
                0x000000002ffefacc                bsec_program_otp
 .text.bsec_shadow_read_otp
                0x000000002ffefbac       0x3c /home/lodge/STM32MP157/tf-a/tf-a-stm32mp/../build/optee/bl2/bsec2.o
                0x000000002ffefbac                bsec_shadow_read_otp
 .text.fdt32_to_cpu
                0x000000002ffefbe8        0x4 /home/lodge/STM32MP157/tf-a/tf-a-stm32mp/../build/optee/bl2/stm32mp_clkfunc.o
 .text.fdt_osc_read_freq
                0x000000002ffefbec       0x90 /home/lodge/STM32MP157/tf-a/tf-a-stm32mp/../build/optee/bl2/stm32mp_clkfunc.o
                0x000000002ffefbec                fdt_osc_read_freq
 .text.fdt_osc_read_bool
                0x000000002ffefc7c       0x74 /home/lodge/STM32MP157/tf-a/tf-a-stm32mp/../build/optee/bl2/stm32mp_clkfunc.o
                0x000000002ffefc7c                fdt_osc_read_bool
 .text.fdt_osc_read_uint32_default
                0x000000002ffefcf0       0x74 /home/lodge/STM32MP157/tf-a/tf-a-stm32mp/../build/optee/bl2/stm32mp_clkfunc.o
                0x000000002ffefcf0                fdt_osc_read_uint32_default
 .text.fdt_get_rcc_node
                0x000000002ffefd64        0xc /home/lodge/STM32MP157/tf-a/tf-a-stm32mp/../build/optee/bl2/stm32mp_clkfunc.o
                0x000000002ffefd64                fdt_get_rcc_node
 .text.fdt_rcc_read_uint32_array
                0x000000002ffefd70       0x24 /home/lodge/STM32MP157/tf-a/tf-a-stm32mp/../build/optee/bl2/stm32mp_clkfunc.o
                0x000000002ffefd70                fdt_rcc_read_uint32_array
 .text.fdt_rcc_subnode_offset
                0x000000002ffefd94       0x30 /home/lodge/STM32MP157/tf-a/tf-a-stm32mp/../build/optee/bl2/stm32mp_clkfunc.o
                0x000000002ffefd94                fdt_rcc_subnode_offset
 .text.fdt_rcc_read_prop
                0x000000002ffefdc4       0x30 /home/lodge/STM32MP157/tf-a/tf-a-stm32mp/../build/optee/bl2/stm32mp_clkfunc.o
                0x000000002ffefdc4                fdt_rcc_read_prop
 .text.fdt_get_rcc_secure_status
                0x000000002ffefdf4       0x18 /home/lodge/STM32MP157/tf-a/tf-a-stm32mp/../build/optee/bl2/stm32mp_clkfunc.o
                0x000000002ffefdf4                fdt_get_rcc_secure_status
 .text.fdt_get_clock_id
                0x000000002ffefe0c       0x38 /home/lodge/STM32MP157/tf-a/tf-a-stm32mp/../build/optee/bl2/stm32mp_clkfunc.o
                0x000000002ffefe0c                fdt_get_clock_id
 .text.fdt_is_pll1_predefined
                0x000000002ffefe44       0x14 /home/lodge/STM32MP157/tf-a/tf-a-stm32mp/../build/optee/bl2/stm32mp_clkfunc.o
                0x000000002ffefe44                fdt_is_pll1_predefined
 .text.stm32mp_stgen_get_counter
                0x000000002ffefe58        0xc /home/lodge/STM32MP157/tf-a/tf-a-stm32mp/../build/optee/bl2/stm32mp_clkfunc.o
                0x000000002ffefe58                stm32mp_stgen_get_counter
 .text.stm32mp_stgen_config
                0x000000002ffefe64       0x48 /home/lodge/STM32MP157/tf-a/tf-a-stm32mp/../build/optee/bl2/stm32mp_clkfunc.o
                0x000000002ffefe64                stm32mp_stgen_config
 .text.clock_is_always_on
                0x000000002ffefeac       0x1c /home/lodge/STM32MP157/tf-a/tf-a-stm32mp/../build/optee/bl2/stm32mp1_clk.o
 .text.stm32mp1_pll_compute_pllxcfgr2
                0x000000002ffefec8       0x1e /home/lodge/STM32MP157/tf-a/tf-a-stm32mp/../build/optee/bl2/stm32mp1_clk.o
 *fill*         0x000000002ffefee6        0x2 
 .text.stm32mp1_read_pll_freq
                0x000000002ffefee8       0xa8 /home/lodge/STM32MP157/tf-a/tf-a-stm32mp/../build/optee/bl2/stm32mp1_clk.o
 .text.get_clock_rate
                0x000000002ffeff90      0x198 /home/lodge/STM32MP157/tf-a/tf-a-stm32mp/../build/optee/bl2/stm32mp1_clk.o
 .text.stm32mp1_pll_start
                0x000000002fff0128       0x24 /home/lodge/STM32MP157/tf-a/tf-a-stm32mp/../build/optee/bl2/stm32mp1_clk.o
 .text.stm32mp1_mco_csg
                0x000000002fff014c       0x3a /home/lodge/STM32MP157/tf-a/tf-a-stm32mp/../build/optee/bl2/stm32mp1_clk.o
 .text.stm32mp1_clk_lock
                0x000000002fff0186       0x16 /home/lodge/STM32MP157/tf-a/tf-a-stm32mp/../build/optee/bl2/stm32mp1_clk.o
 .text.stm32mp1_clk_unlock
                0x000000002fff019c       0x16 /home/lodge/STM32MP157/tf-a/tf-a-stm32mp/../build/optee/bl2/stm32mp1_clk.o
 *fill*         0x000000002fff01b2        0x2 
 .text.stm32mp1_set_clkdiv
                0x000000002fff01b4       0x68 /home/lodge/STM32MP157/tf-a/tf-a-stm32mp/../build/optee/bl2/stm32mp1_clk.o
 .text.__clk_enable
                0x000000002fff021c       0x26 /home/lodge/STM32MP157/tf-a/tf-a-stm32mp/../build/optee/bl2/stm32mp1_clk.o
 .text.__clk_disable
                0x000000002fff0242       0x28 /home/lodge/STM32MP157/tf-a/tf-a-stm32mp/../build/optee/bl2/stm32mp1_clk.o
 *fill*         0x000000002fff026a        0x2 
 .text.stm32mp1_clk_get_gated_id
                0x000000002fff026c       0x34 /home/lodge/STM32MP157/tf-a/tf-a-stm32mp/../build/optee/bl2/stm32mp1_clk.o
 .text.stm32mp1_clk_get_parent
                0x000000002fff02a0       0x78 /home/lodge/STM32MP157/tf-a/tf-a-stm32mp/../build/optee/bl2/stm32mp1_clk.o
 .text.__stm32mp1_clk_enable
                0x000000002fff0318       0x78 /home/lodge/STM32MP157/tf-a/tf-a-stm32mp/../build/optee/bl2/stm32mp1_clk.o
 .text.__stm32mp1_clk_disable
                0x000000002fff0390       0x74 /home/lodge/STM32MP157/tf-a/tf-a-stm32mp/../build/optee/bl2/stm32mp1_clk.o
 .text.stm32mp1_check_pll_conf
                0x000000002fff0404      0x114 /home/lodge/STM32MP157/tf-a/tf-a-stm32mp/../build/optee/bl2/stm32mp1_clk.o
 .text.stm32mp1_pll_compute_pllxcfgr1
                0x000000002fff0518       0x8c /home/lodge/STM32MP157/tf-a/tf-a-stm32mp/../build/optee/bl2/stm32mp1_clk.o
 .text.stm32mp1_pll_config
                0x000000002fff05a4       0x58 /home/lodge/STM32MP157/tf-a/tf-a-stm32mp/../build/optee/bl2/stm32mp1_clk.o
 .text.stm32mp1_osc_wait.isra.0
                0x000000002fff05fc       0x7c /home/lodge/STM32MP157/tf-a/tf-a-stm32mp/../build/optee/bl2/stm32mp1_clk.o
 .text.stm32mp1_set_clksrc
                0x000000002fff0678       0x80 /home/lodge/STM32MP157/tf-a/tf-a-stm32mp/../build/optee/bl2/stm32mp1_clk.o
 .text.stm32mp1_pll_output
                0x000000002fff06f8       0x84 /home/lodge/STM32MP157/tf-a/tf-a-stm32mp/../build/optee/bl2/stm32mp1_clk.o
 .text.stm32mp1_pll_stop
                0x000000002fff077c       0x7c /home/lodge/STM32MP157/tf-a/tf-a-stm32mp/../build/optee/bl2/stm32mp1_clk.o
 .text.stm32mp1_clk_rcc_regs_lock
                0x000000002fff07f8        0xc /home/lodge/STM32MP157/tf-a/tf-a-stm32mp/../build/optee/bl2/stm32mp1_clk.o
                0x000000002fff07f8                stm32mp1_clk_rcc_regs_lock
 .text.stm32mp1_clk_rcc_regs_unlock
                0x000000002fff0804        0xc /home/lodge/STM32MP157/tf-a/tf-a-stm32mp/../build/optee/bl2/stm32mp1_clk.o
                0x000000002fff0804                stm32mp1_clk_rcc_regs_unlock
 .text.stm32mp_clk_enable
                0x000000002fff0810        0x6 /home/lodge/STM32MP157/tf-a/tf-a-stm32mp/../build/optee/bl2/stm32mp1_clk.o
                0x000000002fff0810                stm32mp_clk_enable
 .text.stm32mp_clk_disable
                0x000000002fff0816        0x6 /home/lodge/STM32MP157/tf-a/tf-a-stm32mp/../build/optee/bl2/stm32mp1_clk.o
                0x000000002fff0816                stm32mp_clk_disable
 .text.stm32mp1_clk_force_enable
                0x000000002fff081c        0x6 /home/lodge/STM32MP157/tf-a/tf-a-stm32mp/../build/optee/bl2/stm32mp1_clk.o
                0x000000002fff081c                stm32mp1_clk_force_enable
 .text.stm32mp_clk_get_rate
                0x000000002fff0822       0x16 /home/lodge/STM32MP157/tf-a/tf-a-stm32mp/../build/optee/bl2/stm32mp1_clk.o
                0x000000002fff0822                stm32mp_clk_get_rate
 .text.clk_get_pll1_settings
                0x000000002fff0838      0x1f4 /home/lodge/STM32MP157/tf-a/tf-a-stm32mp/../build/optee/bl2/stm32mp1_clk.o
 .text.stm32mp1_clk_get_maxfreq_opp
                0x000000002fff0a2c       0x54 /home/lodge/STM32MP157/tf-a/tf-a-stm32mp/../build/optee/bl2/stm32mp1_clk.o
                0x000000002fff0a2c                stm32mp1_clk_get_maxfreq_opp
 .text.stm32mp1_clk_lp_load_opp_pll1_settings
                0x000000002fff0a80       0x20 /home/lodge/STM32MP157/tf-a/tf-a-stm32mp/../build/optee/bl2/stm32mp1_clk.o
                0x000000002fff0a80                stm32mp1_clk_lp_load_opp_pll1_settings
 .text.stm32mp1_clk_init
                0x000000002fff0aa0      0x6e0 /home/lodge/STM32MP157/tf-a/tf-a-stm32mp/../build/optee/bl2/stm32mp1_clk.o
                0x000000002fff0aa0                stm32mp1_clk_init
 .text.stm32mp1_clk_probe
                0x000000002fff1180       0xa4 /home/lodge/STM32MP157/tf-a/tf-a-stm32mp/../build/optee/bl2/stm32mp1_clk.o
                0x000000002fff1180                stm32mp1_clk_probe
 .text.ddr_enable_clock
                0x000000002fff1224       0x22 /home/lodge/STM32MP157/tf-a/tf-a-stm32mp/../build/optee/bl2/stm32mp1_ddr_helpers.o
                0x000000002fff1224                ddr_enable_clock
 *fill*         0x000000002fff1246        0x2 
 .text.ddr_read_sr_mode
                0x000000002fff1248       0x18 /home/lodge/STM32MP157/tf-a/tf-a-stm32mp/../build/optee/bl2/stm32mp1_ddr_helpers.o
                0x000000002fff1248                ddr_read_sr_mode
 .text.ddr_set_sr_mode
                0x000000002fff1260      0x1cc /home/lodge/STM32MP157/tf-a/tf-a-stm32mp/../build/optee/bl2/stm32mp1_ddr_helpers.o
                0x000000002fff1260                ddr_set_sr_mode
 .text.fdt32_to_cpu
                0x000000002fff142c        0x4 /home/lodge/STM32MP157/tf-a/tf-a-stm32mp/../build/optee/bl2/stm32_gpio.o
 .text.set_gpio
                0x000000002fff1430       0xd8 /home/lodge/STM32MP157/tf-a/tf-a-stm32mp/../build/optee/bl2/stm32_gpio.o
                0x000000002fff1430                set_gpio
 .text.dt_set_pinctrl_config
                0x000000002fff1508      0x204 /home/lodge/STM32MP157/tf-a/tf-a-stm32mp/../build/optee/bl2/stm32_gpio.o
                0x000000002fff1508                dt_set_pinctrl_config
 .text.i2c_wait_flag
                0x000000002fff170c       0x44 /home/lodge/STM32MP157/tf-a/tf-a-stm32mp/../build/optee/bl2/stm32_i2c.o
 .text.i2c_transfer_config.isra.0
                0x000000002fff1750       0x2c /home/lodge/STM32MP157/tf-a/tf-a-stm32mp/../build/optee/bl2/stm32_i2c.o
 .text.i2c_ack_failed
                0x000000002fff177c       0x8e /home/lodge/STM32MP157/tf-a/tf-a-stm32mp/../build/optee/bl2/stm32_i2c.o
 .text.i2c_wait_txis
                0x000000002fff180a       0x42 /home/lodge/STM32MP157/tf-a/tf-a-stm32mp/../build/optee/bl2/stm32_i2c.o
 .text.i2c_wait_stop
                0x000000002fff184c       0x42 /home/lodge/STM32MP157/tf-a/tf-a-stm32mp/../build/optee/bl2/stm32_i2c.o
 *fill*         0x000000002fff188e        0x2 
 .text.i2c_read.constprop.0
                0x000000002fff1890      0x1ec /home/lodge/STM32MP157/tf-a/tf-a-stm32mp/../build/optee/bl2/stm32_i2c.o
 .text.i2c_write
                0x000000002fff1a7c      0x224 /home/lodge/STM32MP157/tf-a/tf-a-stm32mp/../build/optee/bl2/stm32_i2c.o
 .text.stm32_i2c_get_setup_from_fdt
                0x000000002fff1ca0       0x60 /home/lodge/STM32MP157/tf-a/tf-a-stm32mp/../build/optee/bl2/stm32_i2c.o
                0x000000002fff1ca0                stm32_i2c_get_setup_from_fdt
 .text.stm32_i2c_init
                0x000000002fff1d00      0x45c /home/lodge/STM32MP157/tf-a/tf-a-stm32mp/../build/optee/bl2/stm32_i2c.o
                0x000000002fff1d00                stm32_i2c_init
 .text.stm32_i2c_mem_write
                0x000000002fff215c       0x1c /home/lodge/STM32MP157/tf-a/tf-a-stm32mp/../build/optee/bl2/stm32_i2c.o
                0x000000002fff215c                stm32_i2c_mem_write
 .text.stm32_i2c_mem_read
                0x000000002fff2178       0x12 /home/lodge/STM32MP157/tf-a/tf-a-stm32mp/../build/optee/bl2/stm32_i2c.o
                0x000000002fff2178                stm32_i2c_mem_read
 *fill*         0x000000002fff218a        0x2 
 .text.stm32_i2c_is_device_ready
                0x000000002fff218c      0x144 /home/lodge/STM32MP157/tf-a/tf-a-stm32mp/../build/optee/bl2/stm32_i2c.o
                0x000000002fff218c                stm32_i2c_is_device_ready
 .text.stm32_iwdg_refresh
                0x000000002fff22d0       0x40 /home/lodge/STM32MP157/tf-a/tf-a-stm32mp/../build/optee/bl2/stm32_iwdg.o
                0x000000002fff22d0                stm32_iwdg_refresh
 .text.stm32_iwdg_init
                0x000000002fff2310      0x114 /home/lodge/STM32MP157/tf-a/tf-a-stm32mp/../build/optee/bl2/stm32_iwdg.o
                0x000000002fff2310                stm32_iwdg_init
 .text.fdt32_to_cpu
                0x000000002fff2424        0x4 /home/lodge/STM32MP157/tf-a/tf-a-stm32mp/../build/optee/bl2/stm32mp_pmic.o
 .text.dt_get_pmic_node
                0x000000002fff2428       0x20 /home/lodge/STM32MP157/tf-a/tf-a-stm32mp/../build/optee/bl2/stm32mp_pmic.o
 .text.dt_pmic_get_regulator_voltage
                0x000000002fff2448       0x60 /home/lodge/STM32MP157/tf-a/tf-a-stm32mp/../build/optee/bl2/stm32mp_pmic.o
 .text.pmic_operate
                0x000000002fff24a8      0x17c /home/lodge/STM32MP157/tf-a/tf-a-stm32mp/../build/optee/bl2/stm32mp_pmic.o
 .text.pmic_regulator_enable
                0x000000002fff2624       0x2e /home/lodge/STM32MP157/tf-a/tf-a-stm32mp/../build/optee/bl2/stm32mp_pmic.o
 .text.pmic_regulator_disable
                0x000000002fff2652       0x2e /home/lodge/STM32MP157/tf-a/tf-a-stm32mp/../build/optee/bl2/stm32mp_pmic.o
 .text.dt_pmic_status
                0x000000002fff2680       0x28 /home/lodge/STM32MP157/tf-a/tf-a-stm32mp/../build/optee/bl2/stm32mp_pmic.o
                0x000000002fff2680                dt_pmic_status
 .text.pmic_configure_boot_on_regulators
                0x000000002fff26a8        0xa /home/lodge/STM32MP157/tf-a/tf-a-stm32mp/../build/optee/bl2/stm32mp_pmic.o
                0x000000002fff26a8                pmic_configure_boot_on_regulators
 *fill*         0x000000002fff26b2        0x2 
 .text.dt_pmic_find_supply
                0x000000002fff26b4       0x7c /home/lodge/STM32MP157/tf-a/tf-a-stm32mp/../build/optee/bl2/stm32mp_pmic.o
                0x000000002fff26b4                dt_pmic_find_supply
 .text.initialize_pmic_i2c
                0x000000002fff2730      0x108 /home/lodge/STM32MP157/tf-a/tf-a-stm32mp/../build/optee/bl2/stm32mp_pmic.o
                0x000000002fff2730                initialize_pmic_i2c
 .text.is_pmic_regulator
                0x000000002fff2838       0x38 /home/lodge/STM32MP157/tf-a/tf-a-stm32mp/../build/optee/bl2/stm32mp_pmic.o
                0x000000002fff2838                is_pmic_regulator
 .text.bind_pmic_regulator
                0x000000002fff2870        0xc /home/lodge/STM32MP157/tf-a/tf-a-stm32mp/../build/optee/bl2/stm32mp_pmic.o
                0x000000002fff2870                bind_pmic_regulator
 .text.initialize_pmic
                0x000000002fff287c       0x12 /home/lodge/STM32MP157/tf-a/tf-a-stm32mp/../build/optee/bl2/stm32mp_pmic.o
                0x000000002fff287c                initialize_pmic
 .text.configure_pmic
                0x000000002fff288e       0x14 /home/lodge/STM32MP157/tf-a/tf-a-stm32mp/../build/optee/bl2/stm32mp_pmic.o
                0x000000002fff288e                configure_pmic
 *fill*         0x000000002fff28a2        0x2 
 .text.print_pmic_info_and_debug
                0x000000002fff28a4       0x34 /home/lodge/STM32MP157/tf-a/tf-a-stm32mp/../build/optee/bl2/stm32mp_pmic.o
                0x000000002fff28a4                print_pmic_info_and_debug
 .text.pmic_ddr_power_init
                0x000000002fff28d8      0x150 /home/lodge/STM32MP157/tf-a/tf-a-stm32mp/../build/optee/bl2/stm32mp_pmic.o
                0x000000002fff28d8                pmic_ddr_power_init
 .text.get_regulator_data
                0x000000002fff2a28       0x3c /home/lodge/STM32MP157/tf-a/tf-a-stm32mp/../build/optee/bl2/stpmic1.o
 .text.voltage_to_index
                0x000000002fff2a64       0x2a /home/lodge/STM32MP157/tf-a/tf-a-stm32mp/../build/optee/bl2/stpmic1.o
 *fill*         0x000000002fff2a8e        0x2 
 .text.stpmic1_register_read
                0x000000002fff2a90       0x28 /home/lodge/STM32MP157/tf-a/tf-a-stm32mp/../build/optee/bl2/stpmic1.o
                0x000000002fff2a90                stpmic1_register_read
 .text.stpmic1_is_regulator_enabled
                0x000000002fff2ab8       0x28 /home/lodge/STM32MP157/tf-a/tf-a-stm32mp/../build/optee/bl2/stpmic1.o
                0x000000002fff2ab8                stpmic1_is_regulator_enabled
 .text.stpmic1_regulator_voltage_get
                0x000000002fff2ae0       0x74 /home/lodge/STM32MP157/tf-a/tf-a-stm32mp/../build/optee/bl2/stpmic1.o
                0x000000002fff2ae0                stpmic1_regulator_voltage_get
 .text.stpmic1_register_write
                0x000000002fff2b54       0x58 /home/lodge/STM32MP157/tf-a/tf-a-stm32mp/../build/optee/bl2/stpmic1.o
                0x000000002fff2b54                stpmic1_register_write
 .text.stpmic1_register_update
                0x000000002fff2bac       0x2e /home/lodge/STM32MP157/tf-a/tf-a-stm32mp/../build/optee/bl2/stpmic1.o
                0x000000002fff2bac                stpmic1_register_update
 .text.stpmic1_regulator_enable
                0x000000002fff2bda       0x14 /home/lodge/STM32MP157/tf-a/tf-a-stm32mp/../build/optee/bl2/stpmic1.o
                0x000000002fff2bda                stpmic1_regulator_enable
 .text.stpmic1_regulator_disable
                0x000000002fff2bee       0x14 /home/lodge/STM32MP157/tf-a/tf-a-stm32mp/../build/optee/bl2/stpmic1.o
                0x000000002fff2bee                stpmic1_regulator_disable
 *fill*         0x000000002fff2c02        0x2 
 .text.stpmic1_regulator_voltage_set
                0x000000002fff2c04       0x5c /home/lodge/STM32MP157/tf-a/tf-a-stm32mp/../build/optee/bl2/stpmic1.o
                0x000000002fff2c04                stpmic1_regulator_voltage_set
 .text.stpmic1_regulator_pull_down_set
                0x000000002fff2c60       0x24 /home/lodge/STM32MP157/tf-a/tf-a-stm32mp/../build/optee/bl2/stpmic1.o
                0x000000002fff2c60                stpmic1_regulator_pull_down_set
 .text.stpmic1_regulator_mask_reset_set
                0x000000002fff2c84       0x1a /home/lodge/STM32MP157/tf-a/tf-a-stm32mp/../build/optee/bl2/stpmic1.o
                0x000000002fff2c84                stpmic1_regulator_mask_reset_set
 *fill*         0x000000002fff2c9e        0x2 
 .text.stpmic1_bind_i2c
                0x000000002fff2ca0       0x14 /home/lodge/STM32MP157/tf-a/tf-a-stm32mp/../build/optee/bl2/stpmic1.o
                0x000000002fff2ca0                stpmic1_bind_i2c
 .text.stpmic1_dump_regulators
                0x000000002fff2cb4        0x2 /home/lodge/STM32MP157/tf-a/tf-a-stm32mp/../build/optee/bl2/stpmic1.o
                0x000000002fff2cb4                stpmic1_dump_regulators
 .text.stpmic1_get_version
                0x000000002fff2cb6       0x1e /home/lodge/STM32MP157/tf-a/tf-a-stm32mp/../build/optee/bl2/stpmic1.o
                0x000000002fff2cb6                stpmic1_get_version
 .text.dummy_regulator_enable
                0x000000002fff2cd4        0x4 /home/lodge/STM32MP157/tf-a/tf-a-stm32mp/../build/optee/bl2/stm32mp_dummy_regulator.o
 .text.dummy_regulator_disable
                0x000000002fff2cd8        0x4 /home/lodge/STM32MP157/tf-a/tf-a-stm32mp/../build/optee/bl2/stm32mp_dummy_regulator.o
 .text.bind_dummy_regulator
                0x000000002fff2cdc        0xc /home/lodge/STM32MP157/tf-a/tf-a-stm32mp/../build/optee/bl2/stm32mp_dummy_regulator.o
                0x000000002fff2cdc                bind_dummy_regulator
 .text.stm32mp_regulator_enable
                0x000000002fff2ce8       0x1c /home/lodge/STM32MP157/tf-a/tf-a-stm32mp/../build/optee/bl2/stm32mp_regulator.o
                0x000000002fff2ce8                stm32mp_regulator_enable
 .text.stm32mp_regulator_disable
                0x000000002fff2d04       0x24 /home/lodge/STM32MP157/tf-a/tf-a-stm32mp/../build/optee/bl2/stm32mp_regulator.o
                0x000000002fff2d04                stm32mp_regulator_disable
 .text.stm32mp_regulator_register
                0x000000002fff2d28        0x4 /home/lodge/STM32MP157/tf-a/tf-a-stm32mp/../build/optee/bl2/stm32mp_regulator.o
                0x000000002fff2d28                stm32mp_regulator_register
 .text.stm32mp_reset_assert_to
                0x000000002fff2d2c       0x78 /home/lodge/STM32MP157/tf-a/tf-a-stm32mp/../build/optee/bl2/stm32mp1_reset.o
                0x000000002fff2d2c                stm32mp_reset_assert_to
 .text.stm32mp_reset_deassert_to
                0x000000002fff2da4       0x7c /home/lodge/STM32MP157/tf-a/tf-a-stm32mp/../build/optee/bl2/stm32mp1_reset.o
                0x000000002fff2da4                stm32mp_reset_deassert_to
 .text.fdt32_to_cpu
                0x000000002fff2e20        0x4 /home/lodge/STM32MP157/tf-a/tf-a-stm32mp/../build/optee/bl2/stm32mp_dt.o
 .text.fdt_get_node_parent_address_cells
                0x000000002fff2e24       0x24 /home/lodge/STM32MP157/tf-a/tf-a-stm32mp/../build/optee/bl2/stm32mp_dt.o
 .text.dt_get_stdout_node_offset
                0x000000002fff2e48       0x7c /home/lodge/STM32MP157/tf-a/tf-a-stm32mp/../build/optee/bl2/stm32mp_dt.o
 .text.dt_get_opp_freqvolt_from_subnode
                0x000000002fff2ec4       0xc4 /home/lodge/STM32MP157/tf-a/tf-a-stm32mp/../build/optee/bl2/stm32mp_dt.o
 .text.dt_open_and_check
                0x000000002fff2f88       0x1c /home/lodge/STM32MP157/tf-a/tf-a-stm32mp/../build/optee/bl2/stm32mp_dt.o
                0x000000002fff2f88                dt_open_and_check
 .text.fdt_get_address
                0x000000002fff2fa4       0x18 /home/lodge/STM32MP157/tf-a/tf-a-stm32mp/../build/optee/bl2/stm32mp_dt.o
                0x000000002fff2fa4                fdt_get_address
 .text.fdt_check_node
                0x000000002fff2fbc       0x20 /home/lodge/STM32MP157/tf-a/tf-a-stm32mp/../build/optee/bl2/stm32mp_dt.o
                0x000000002fff2fbc                fdt_check_node
 .text.fdt_get_status
                0x000000002fff2fdc       0x64 /home/lodge/STM32MP157/tf-a/tf-a-stm32mp/../build/optee/bl2/stm32mp_dt.o
                0x000000002fff2fdc                fdt_get_status
 .text.fdt_read_uint32_default
                0x000000002fff3040       0x28 /home/lodge/STM32MP157/tf-a/tf-a-stm32mp/../build/optee/bl2/stm32mp_dt.o
                0x000000002fff3040                fdt_read_uint32_default
 .text.fdt_read_uint32_array
                0x000000002fff3068       0x4c /home/lodge/STM32MP157/tf-a/tf-a-stm32mp/../build/optee/bl2/stm32mp_dt.o
                0x000000002fff3068                fdt_read_uint32_array
 .text.fdt_get_reg_props_by_name
                0x000000002fff30b4       0x98 /home/lodge/STM32MP157/tf-a/tf-a-stm32mp/../build/optee/bl2/stm32mp_dt.o
                0x000000002fff30b4                fdt_get_reg_props_by_name
 .text.dt_set_stdout_pinctrl
                0x000000002fff314c       0x18 /home/lodge/STM32MP157/tf-a/tf-a-stm32mp/../build/optee/bl2/stm32mp_dt.o
                0x000000002fff314c                dt_set_stdout_pinctrl
 .text.dt_fill_device_info
                0x000000002fff3164       0x88 /home/lodge/STM32MP157/tf-a/tf-a-stm32mp/../build/optee/bl2/stm32mp_dt.o
                0x000000002fff3164                dt_fill_device_info
 .text.dt_get_node
                0x000000002fff31ec       0x24 /home/lodge/STM32MP157/tf-a/tf-a-stm32mp/../build/optee/bl2/stm32mp_dt.o
                0x000000002fff31ec                dt_get_node
 .text.dt_get_stdout_uart_info
                0x000000002fff3210       0x1e /home/lodge/STM32MP157/tf-a/tf-a-stm32mp/../build/optee/bl2/stm32mp_dt.o
                0x000000002fff3210                dt_get_stdout_uart_info
 *fill*         0x000000002fff322e        0x2 
 .text.dt_get_node_by_compatible
                0x000000002fff3230       0x28 /home/lodge/STM32MP157/tf-a/tf-a-stm32mp/../build/optee/bl2/stm32mp_dt.o
                0x000000002fff3230                dt_get_node_by_compatible
 .text.dt_match_instance_by_compatible
                0x000000002fff3258       0x6c /home/lodge/STM32MP157/tf-a/tf-a-stm32mp/../build/optee/bl2/stm32mp_dt.o
                0x000000002fff3258                dt_match_instance_by_compatible
 .text.dt_get_ddr_size
                0x000000002fff32c4       0x24 /home/lodge/STM32MP157/tf-a/tf-a-stm32mp/../build/optee/bl2/stm32mp_dt.o
                0x000000002fff32c4                dt_get_ddr_size
 .text.dt_get_max_opp_freqvolt
                0x000000002fff32e8       0x88 /home/lodge/STM32MP157/tf-a/tf-a-stm32mp/../build/optee/bl2/stm32mp_dt.o
                0x000000002fff32e8                dt_get_max_opp_freqvolt
 .text.dt_get_pwr_vdd_voltage
                0x000000002fff3370       0x54 /home/lodge/STM32MP157/tf-a/tf-a-stm32mp/../build/optee/bl2/stm32mp_dt.o
                0x000000002fff3370                dt_get_pwr_vdd_voltage
 .text.dt_get_cpu_regulator_name
                0x000000002fff33c4       0x50 /home/lodge/STM32MP157/tf-a/tf-a-stm32mp/../build/optee/bl2/stm32mp_dt.o
                0x000000002fff33c4                dt_get_cpu_regulator_name
 .text.dt_get_board_model
                0x000000002fff3414       0x2c /home/lodge/STM32MP157/tf-a/tf-a-stm32mp/../build/optee/bl2/stm32mp_dt.o
                0x000000002fff3414                dt_get_board_model
 .text.stm32mp_lock_shregs
                0x000000002fff3440       0x18 /home/lodge/STM32MP157/tf-a/tf-a-stm32mp/../build/optee/bl2/stm32mp_shres_helpers.o
                0x000000002fff3440                stm32mp_lock_shregs
 .text.stm32mp_unlock_shregs
                0x000000002fff3458       0x18 /home/lodge/STM32MP157/tf-a/tf-a-stm32mp/../build/optee/bl2/stm32mp_shres_helpers.o
                0x000000002fff3458                stm32mp_unlock_shregs
 .text.stm32mp_mmio_clrbits_32_shregs
                0x000000002fff3470       0x1a /home/lodge/STM32MP157/tf-a/tf-a-stm32mp/../build/optee/bl2/stm32mp_shres_helpers.o
                0x000000002fff3470                stm32mp_mmio_clrbits_32_shregs
 .text.stm32mp_mmio_setbits_32_shregs
                0x000000002fff348a       0x18 /home/lodge/STM32MP157/tf-a/tf-a-stm32mp/../build/optee/bl2/stm32mp_shres_helpers.o
                0x000000002fff348a                stm32mp_mmio_setbits_32_shregs
 *fill*         0x000000002fff34a2        0x2 
 .text.stm32_pm_get_optee_ep
                0x000000002fff34a4       0x48 /home/lodge/STM32MP157/tf-a/tf-a-stm32mp/../build/optee/bl2/stm32mp1_context.o
                0x000000002fff34a4                stm32_pm_get_optee_ep
 .text.stm32_get_zdata_from_context
                0x000000002fff34ec       0x1c /home/lodge/STM32MP157/tf-a/tf-a-stm32mp/../build/optee/bl2/stm32mp1_context.o
                0x000000002fff34ec                stm32_get_zdata_from_context
 .text.stm32_get_pll1_settings_from_context
                0x000000002fff3508       0x58 /home/lodge/STM32MP157/tf-a/tf-a-stm32mp/../build/optee/bl2/stm32mp1_context.o
                0x000000002fff3508                stm32_get_pll1_settings_from_context
 .text.stm32_save_boot_interface
                0x000000002fff3560       0x34 /home/lodge/STM32MP157/tf-a/tf-a-stm32mp/../build/optee/bl2/stm32mp1_context.o
                0x000000002fff3560                stm32_save_boot_interface
 .text.stm32_restore_ddr_training_area
                0x000000002fff3594       0x28 /home/lodge/STM32MP157/tf-a/tf-a-stm32mp/../build/optee/bl2/stm32mp1_context.o
                0x000000002fff3594                stm32_restore_ddr_training_area
 .text.stm32mp1_dbgmcu_init
                0x000000002fff35bc       0x30 /home/lodge/STM32MP157/tf-a/tf-a-stm32mp/../build/optee/bl2/stm32mp1_dbgmcu.o
 .text.stm32mp1_dbgmcu_get_chip_version
                0x000000002fff35ec       0x2c /home/lodge/STM32MP157/tf-a/tf-a-stm32mp/../build/optee/bl2/stm32mp1_dbgmcu.o
                0x000000002fff35ec                stm32mp1_dbgmcu_get_chip_version
 .text.stm32mp1_dbgmcu_get_chip_dev_id
                0x000000002fff3618       0x30 /home/lodge/STM32MP157/tf-a/tf-a-stm32mp/../build/optee/bl2/stm32mp1_dbgmcu.o
                0x000000002fff3618                stm32mp1_dbgmcu_get_chip_dev_id
 .text.stm32mp1_dbgmcu_freeze_iwdg2
                0x000000002fff3648       0x2c /home/lodge/STM32MP157/tf-a/tf-a-stm32mp/../build/optee/bl2/stm32mp1_dbgmcu.o
                0x000000002fff3648                stm32mp1_dbgmcu_freeze_iwdg2
 .text.stm32mp1_arch_security_setup
                0x000000002fff3674       0x50 /home/lodge/STM32MP157/tf-a/tf-a-stm32mp/../build/optee/bl2/stm32mp1_security.o
                0x000000002fff3674                stm32mp1_arch_security_setup
 .text.stm32mp1_security_setup
                0x000000002fff36c4       0x9c /home/lodge/STM32MP157/tf-a/tf-a-stm32mp/../build/optee/bl2/stm32mp1_security.o
                0x000000002fff36c4                stm32mp1_security_setup
 .text.stm32mp1_syscfg_enable_io_compensation
                0x000000002fff3760       0x60 /home/lodge/STM32MP157/tf-a/tf-a-stm32mp/../build/optee/bl2/stm32mp1_syscfg.o
                0x000000002fff3760                stm32mp1_syscfg_enable_io_compensation
 .text.stm32mp1_syscfg_init
                0x000000002fff37c0       0x94 /home/lodge/STM32MP157/tf-a/tf-a-stm32mp/../build/optee/bl2/stm32mp1_syscfg.o
                0x000000002fff37c0                stm32mp1_syscfg_init
 .text          0x000000002fff3854       0x24 /home/lodge/STM32MP157/tf-a/tf-a-stm32mp/../build/optee/bl2/aeabi_uldivmod.o
                0x000000002fff3854                __aeabi_uldivmod
 .text.fdt32_to_cpu
                0x000000002fff3878        0x4 /home/lodge/STM32MP157/tf-a/tf-a-stm32mp/../build/optee/lib/libfdt.a(fdt.o)
 .text.fdt_check_header
                0x000000002fff387c       0x58 /home/lodge/STM32MP157/tf-a/tf-a-stm32mp/../build/optee/lib/libfdt.a(fdt.o)
                0x000000002fff387c                fdt_check_header
 .text.fdt_offset_ptr
                0x000000002fff38d4       0x3c /home/lodge/STM32MP157/tf-a/tf-a-stm32mp/../build/optee/lib/libfdt.a(fdt.o)
                0x000000002fff38d4                fdt_offset_ptr
 .text.fdt_next_tag
                0x000000002fff3910       0xc8 /home/lodge/STM32MP157/tf-a/tf-a-stm32mp/../build/optee/lib/libfdt.a(fdt.o)
                0x000000002fff3910                fdt_next_tag
 .text.fdt_check_node_offset_
                0x000000002fff39d8       0x24 /home/lodge/STM32MP157/tf-a/tf-a-stm32mp/../build/optee/lib/libfdt.a(fdt.o)
                0x000000002fff39d8                fdt_check_node_offset_
 .text.fdt_check_prop_offset_
                0x000000002fff39fc       0x24 /home/lodge/STM32MP157/tf-a/tf-a-stm32mp/../build/optee/lib/libfdt.a(fdt.o)
                0x000000002fff39fc                fdt_check_prop_offset_
 .text.fdt_next_node
                0x000000002fff3a20       0x6e /home/lodge/STM32MP157/tf-a/tf-a-stm32mp/../build/optee/lib/libfdt.a(fdt.o)
                0x000000002fff3a20                fdt_next_node
 .text.fdt_first_subnode
                0x000000002fff3a8e       0x26 /home/lodge/STM32MP157/tf-a/tf-a-stm32mp/../build/optee/lib/libfdt.a(fdt.o)
                0x000000002fff3a8e                fdt_first_subnode
 .text.fdt_next_subnode
                0x000000002fff3ab4       0x2a /home/lodge/STM32MP157/tf-a/tf-a-stm32mp/../build/optee/lib/libfdt.a(fdt.o)
                0x000000002fff3ab4                fdt_next_subnode
 *fill*         0x000000002fff3ade        0x2 
 .text.fdt_address_cells
                0x000000002fff3ae0       0x48 /home/lodge/STM32MP157/tf-a/tf-a-stm32mp/../build/optee/lib/libfdt.a(fdt_addresses.o)
                0x000000002fff3ae0                fdt_address_cells
 .text.fdt_size_cells
                0x000000002fff3b28       0x48 /home/lodge/STM32MP157/tf-a/tf-a-stm32mp/../build/optee/lib/libfdt.a(fdt_addresses.o)
                0x000000002fff3b28                fdt_size_cells
 .text.fdt32_to_cpu
                0x000000002fff3b70        0x4 /home/lodge/STM32MP157/tf-a/tf-a-stm32mp/../build/optee/lib/libfdt.a(fdt_ro.o)
 .text.nextprop_
                0x000000002fff3b74       0x32 /home/lodge/STM32MP157/tf-a/tf-a-stm32mp/../build/optee/lib/libfdt.a(fdt_ro.o)
 .text.fdt_get_property_by_offset_
                0x000000002fff3ba6       0x36 /home/lodge/STM32MP157/tf-a/tf-a-stm32mp/../build/optee/lib/libfdt.a(fdt_ro.o)
 .text.fdt_string
                0x000000002fff3bdc       0x10 /home/lodge/STM32MP157/tf-a/tf-a-stm32mp/../build/optee/lib/libfdt.a(fdt_ro.o)
                0x000000002fff3bdc                fdt_string
 .text.fdt_get_name
                0x000000002fff3bec       0x5e /home/lodge/STM32MP157/tf-a/tf-a-stm32mp/../build/optee/lib/libfdt.a(fdt_ro.o)
                0x000000002fff3bec                fdt_get_name
 .text.fdt_subnode_offset_namelen
                0x000000002fff3c4a       0x80 /home/lodge/STM32MP157/tf-a/tf-a-stm32mp/../build/optee/lib/libfdt.a(fdt_ro.o)
                0x000000002fff3c4a                fdt_subnode_offset_namelen
 .text.fdt_subnode_offset
                0x000000002fff3cca       0x1e /home/lodge/STM32MP157/tf-a/tf-a-stm32mp/../build/optee/lib/libfdt.a(fdt_ro.o)
                0x000000002fff3cca                fdt_subnode_offset
 .text.fdt_first_property_offset
                0x000000002fff3ce8       0x18 /home/lodge/STM32MP157/tf-a/tf-a-stm32mp/../build/optee/lib/libfdt.a(fdt_ro.o)
                0x000000002fff3ce8                fdt_first_property_offset
 .text.fdt_next_property_offset
                0x000000002fff3d00       0x18 /home/lodge/STM32MP157/tf-a/tf-a-stm32mp/../build/optee/lib/libfdt.a(fdt_ro.o)
                0x000000002fff3d00                fdt_next_property_offset
 .text.fdt_get_property_namelen_
                0x000000002fff3d18       0x76 /home/lodge/STM32MP157/tf-a/tf-a-stm32mp/../build/optee/lib/libfdt.a(fdt_ro.o)
 .text.fdt_getprop_namelen
                0x000000002fff3d8e       0x3e /home/lodge/STM32MP157/tf-a/tf-a-stm32mp/../build/optee/lib/libfdt.a(fdt_ro.o)
                0x000000002fff3d8e                fdt_getprop_namelen
 .text.fdt_getprop
                0x000000002fff3dcc       0x22 /home/lodge/STM32MP157/tf-a/tf-a-stm32mp/../build/optee/lib/libfdt.a(fdt_ro.o)
                0x000000002fff3dcc                fdt_getprop
 *fill*         0x000000002fff3dee        0x2 
 .text.fdt_get_phandle
                0x000000002fff3df0       0x44 /home/lodge/STM32MP157/tf-a/tf-a-stm32mp/../build/optee/lib/libfdt.a(fdt_ro.o)
                0x000000002fff3df0                fdt_get_phandle
 .text.fdt_get_alias_namelen
                0x000000002fff3e34       0x2c /home/lodge/STM32MP157/tf-a/tf-a-stm32mp/../build/optee/lib/libfdt.a(fdt_ro.o)
                0x000000002fff3e34                fdt_get_alias_namelen
 .text.fdt_path_offset_namelen
                0x000000002fff3e60       0x90 /home/lodge/STM32MP157/tf-a/tf-a-stm32mp/../build/optee/lib/libfdt.a(fdt_ro.o)
                0x000000002fff3e60                fdt_path_offset_namelen
 .text.fdt_path_offset
                0x000000002fff3ef0       0x1a /home/lodge/STM32MP157/tf-a/tf-a-stm32mp/../build/optee/lib/libfdt.a(fdt_ro.o)
                0x000000002fff3ef0                fdt_path_offset
 .text.fdt_supernode_atdepth_offset
                0x000000002fff3f0a       0x68 /home/lodge/STM32MP157/tf-a/tf-a-stm32mp/../build/optee/lib/libfdt.a(fdt_ro.o)
                0x000000002fff3f0a                fdt_supernode_atdepth_offset
 .text.fdt_node_depth
                0x000000002fff3f72       0x1e /home/lodge/STM32MP157/tf-a/tf-a-stm32mp/../build/optee/lib/libfdt.a(fdt_ro.o)
                0x000000002fff3f72                fdt_node_depth
 .text.fdt_parent_offset
                0x000000002fff3f90       0x20 /home/lodge/STM32MP157/tf-a/tf-a-stm32mp/../build/optee/lib/libfdt.a(fdt_ro.o)
                0x000000002fff3f90                fdt_parent_offset
 .text.fdt_node_offset_by_phandle
                0x000000002fff3fb0       0x42 /home/lodge/STM32MP157/tf-a/tf-a-stm32mp/../build/optee/lib/libfdt.a(fdt_ro.o)
                0x000000002fff3fb0                fdt_node_offset_by_phandle
 .text.fdt_stringlist_contains
                0x000000002fff3ff2       0x46 /home/lodge/STM32MP157/tf-a/tf-a-stm32mp/../build/optee/lib/libfdt.a(fdt_ro.o)
                0x000000002fff3ff2                fdt_stringlist_contains
 .text.fdt_stringlist_search
                0x000000002fff4038       0x66 /home/lodge/STM32MP157/tf-a/tf-a-stm32mp/../build/optee/lib/libfdt.a(fdt_ro.o)
                0x000000002fff4038                fdt_stringlist_search
 *fill*         0x000000002fff409e        0x2 
 .text.fdt_node_check_compatible
                0x000000002fff40a0       0x28 /home/lodge/STM32MP157/tf-a/tf-a-stm32mp/../build/optee/lib/libfdt.a(fdt_ro.o)
                0x000000002fff40a0                fdt_node_check_compatible
 .text.fdt_node_offset_by_compatible
                0x000000002fff40c8       0x40 /home/lodge/STM32MP157/tf-a/tf-a-stm32mp/../build/optee/lib/libfdt.a(fdt_ro.o)
                0x000000002fff40c8                fdt_node_offset_by_compatible
 .text.__assert
                0x000000002fff4108       0x18 /home/lodge/STM32MP157/tf-a/tf-a-stm32mp/../build/optee/lib/libc.a(assert.o)
                0x000000002fff4108                __assert
 .text.memchr   0x000000002fff4120       0x1c /home/lodge/STM32MP157/tf-a/tf-a-stm32mp/../build/optee/lib/libc.a(memchr.o)
                0x000000002fff4120                memchr
 .text.memcmp   0x000000002fff413c       0x1c /home/lodge/STM32MP157/tf-a/tf-a-stm32mp/../build/optee/lib/libc.a(memcmp.o)
                0x000000002fff413c                memcmp
 .text.memcpy   0x000000002fff4158       0x16 /home/lodge/STM32MP157/tf-a/tf-a-stm32mp/../build/optee/lib/libc.a(memcpy.o)
                0x000000002fff4158                memcpy
 .text.memmove  0x000000002fff416e       0x2c /home/lodge/STM32MP157/tf-a/tf-a-stm32mp/../build/optee/lib/libc.a(memmove.o)
                0x000000002fff416e                memmove
 .text.memset   0x000000002fff419a       0x10 /home/lodge/STM32MP157/tf-a/tf-a-stm32mp/../build/optee/lib/libc.a(memset.o)
                0x000000002fff419a                memset
 .text.unsigned_num_print
                0x000000002fff41aa       0x7c /home/lodge/STM32MP157/tf-a/tf-a-stm32mp/../build/optee/lib/libc.a(printf.o)
 *fill*         0x000000002fff4226        0x2 
 .text.vprintf  0x000000002fff4228      0x198 /home/lodge/STM32MP157/tf-a/tf-a-stm32mp/../build/optee/lib/libc.a(printf.o)
                0x000000002fff4228                vprintf
 .text.printf   0x000000002fff43c0       0x1a /home/lodge/STM32MP157/tf-a/tf-a-stm32mp/../build/optee/lib/libc.a(printf.o)
                0x000000002fff43c0                printf
 .text.putchar  0x000000002fff43da       0x16 /home/lodge/STM32MP157/tf-a/tf-a-stm32mp/../build/optee/lib/libc.a(putchar.o)
                0x000000002fff43da                putchar
 .text.unsigned_dec_print
                0x000000002fff43f0       0x4a /home/lodge/STM32MP157/tf-a/tf-a-stm32mp/../build/optee/lib/libc.a(snprintf.o)
 *fill*         0x000000002fff443a        0x2 
 .text.snprintf
                0x000000002fff443c       0xe0 /home/lodge/STM32MP157/tf-a/tf-a-stm32mp/../build/optee/lib/libc.a(snprintf.o)
                0x000000002fff443c                snprintf
 .text.strchr   0x000000002fff451c       0x16 /home/lodge/STM32MP157/tf-a/tf-a-stm32mp/../build/optee/lib/libc.a(strchr.o)
                0x000000002fff451c                strchr
 .text.strcmp   0x000000002fff4532       0x18 /home/lodge/STM32MP157/tf-a/tf-a-stm32mp/../build/optee/lib/libc.a(strcmp.o)
                0x000000002fff4532                strcmp
 .text.strlen   0x000000002fff454a       0x10 /home/lodge/STM32MP157/tf-a/tf-a-stm32mp/../build/optee/lib/libc.a(strlen.o)
                0x000000002fff454a                strlen
 .text.strncmp  0x000000002fff455a       0x28 /home/lodge/STM32MP157/tf-a/tf-a-stm32mp/../build/optee/lib/libc.a(strncmp.o)
                0x000000002fff455a                strncmp
 .text.strnlen  0x000000002fff4582       0x14 /home/lodge/STM32MP157/tf-a/tf-a-stm32mp/../build/optee/lib/libc.a(strnlen.o)
                0x000000002fff4582                strnlen
 .text.strrchr  0x000000002fff4596       0x1a /home/lodge/STM32MP157/tf-a/tf-a-stm32mp/../build/optee/lib/libc.a(strrchr.o)
                0x000000002fff4596                strrchr
 *(.rodata*)
 .rodata.build_message
                0x000000002fff45b0       0x1e /home/lodge/STM32MP157/tf-a/tf-a-stm32mp/../build/optee/bl2/build_message.o
                0x000000002fff45b0                build_message
 .rodata.version_string
                0x000000002fff45ce       0x1f /home/lodge/STM32MP157/tf-a/tf-a-stm32mp/../build/optee/bl2/build_message.o
                0x000000002fff45ce                version_string
 .rodata.block_seek.str1.1
                0x000000002fff45ed       0x16 /home/lodge/STM32MP157/tf-a/tf-a-stm32mp/../build/optee/bl2/io_block.o
 *fill*         0x000000002fff4603        0x1 
 .rodata.block_dev_connector
                0x000000002fff4604        0x4 /home/lodge/STM32MP157/tf-a/tf-a-stm32mp/../build/optee/bl2/io_block.o
 .rodata.block_dev_funcs
                0x000000002fff4608       0x24 /home/lodge/STM32MP157/tf-a/tf-a-stm32mp/../build/optee/bl2/io_block.o
 .rodata.dummy_dev_open.str1.1
                0x000000002fff462c       0x16 /home/lodge/STM32MP157/tf-a/tf-a-stm32mp/../build/optee/bl2/io_dummy.o
 .rodata.dummy_block_open.str1.1
                0x000000002fff4642       0x31 /home/lodge/STM32MP157/tf-a/tf-a-stm32mp/../build/optee/bl2/io_dummy.o
 *fill*         0x000000002fff4673        0x1 
 .rodata.dummy_dev_connector
                0x000000002fff4674        0x4 /home/lodge/STM32MP157/tf-a/tf-a-stm32mp/../build/optee/bl2/io_dummy.o
 .rodata.dummy_dev_funcs
                0x000000002fff4678       0x24 /home/lodge/STM32MP157/tf-a/tf-a-stm32mp/../build/optee/bl2/io_dummy.o
 .rodata.dummy_dev_info
                0x000000002fff469c        0x8 /home/lodge/STM32MP157/tf-a/tf-a-stm32mp/../build/optee/bl2/io_dummy.o
 .rodata.mtd_read.str1.1
                0x000000002fff46a4       0x14 /home/lodge/STM32MP157/tf-a/tf-a-stm32mp/../build/optee/bl2/io_mtd.o
 .rodata.mtd_dev_connector
                0x000000002fff46b8        0x4 /home/lodge/STM32MP157/tf-a/tf-a-stm32mp/../build/optee/bl2/io_mtd.o
 .rodata.mtd_dev_funcs
                0x000000002fff46bc       0x24 /home/lodge/STM32MP157/tf-a/tf-a-stm32mp/../build/optee/bl2/io_mtd.o
 .rodata.free_entity.isra.0.str1.1
                0x000000002fff46e0       0x18 /home/lodge/STM32MP157/tf-a/tf-a-stm32mp/../build/optee/bl2/io_storage.o
 .rodata.hash_write_data.str1.1
                0x000000002fff46f8       0x13 /home/lodge/STM32MP157/tf-a/tf-a-stm32mp/../build/optee/bl2/stm32_hash.o
 .rodata.stm32_hash_update.str1.1
                0x000000002fff470b       0x1f /home/lodge/STM32MP157/tf-a/tf-a-stm32mp/../build/optee/bl2/stm32_hash.o
 .rodata.stm32_hash_register.str1.1
                0x000000002fff472a       0x12 /home/lodge/STM32MP157/tf-a/tf-a-stm32mp/../build/optee/bl2/stm32_hash.o
 .rodata.__func__.0
                0x000000002fff473c       0x16 /home/lodge/STM32MP157/tf-a/tf-a-stm32mp/../build/optee/bl2/stm32_hash.o
 .rodata.__func__.1
                0x000000002fff4752        0xf /home/lodge/STM32MP157/tf-a/tf-a-stm32mp/../build/optee/bl2/stm32_hash.o
 .rodata.stm32image_dev_open.str1.1
                0x000000002fff4761       0x1e /home/lodge/STM32MP157/tf-a/tf-a-stm32mp/../build/optee/bl2/io_stm32image.o
 .rodata.stm32image_dev_init.str1.1
                0x000000002fff477f       0x44 /home/lodge/STM32MP157/tf-a/tf-a-stm32mp/../build/optee/bl2/io_stm32image.o
 .rodata.stm32image_partition_read.str1.1
                0x000000002fff47c3       0x4e /home/lodge/STM32MP157/tf-a/tf-a-stm32mp/../build/optee/bl2/io_stm32image.o
 .rodata.stm32image_partition_size.str1.1
                0x000000002fff4811       0x19 /home/lodge/STM32MP157/tf-a/tf-a-stm32mp/../build/optee/bl2/io_stm32image.o
 .rodata.stm32image_partition_open.str1.1
                0x000000002fff482a       0x1d /home/lodge/STM32MP157/tf-a/tf-a-stm32mp/../build/optee/bl2/io_stm32image.o
 .rodata.__func__.0
                0x000000002fff4847       0x1a /home/lodge/STM32MP157/tf-a/tf-a-stm32mp/../build/optee/bl2/io_stm32image.o
 .rodata.__func__.1
                0x000000002fff4861       0x1a /home/lodge/STM32MP157/tf-a/tf-a-stm32mp/../build/optee/bl2/io_stm32image.o
 *fill*         0x000000002fff487b        0x1 
 .rodata.stm32image_dev_connector
                0x000000002fff487c        0x4 /home/lodge/STM32MP157/tf-a/tf-a-stm32mp/../build/optee/bl2/io_stm32image.o
 .rodata.stm32image_dev_funcs
                0x000000002fff4880       0x24 /home/lodge/STM32MP157/tf-a/tf-a-stm32mp/../build/optee/bl2/io_stm32image.o
 .rodata.boot_mmc.str1.1
                0x000000002fff48a4       0x79 /home/lodge/STM32MP157/tf-a/tf-a-stm32mp/../build/optee/bl2/bl2_io_storage.o
 .rodata.stm32mp_io_setup.str1.1
                0x000000002fff491d       0xd4 /home/lodge/STM32MP157/tf-a/tf-a-stm32mp/../build/optee/bl2/bl2_io_storage.o
 *fill*         0x000000002fff49f1        0x3 
 .rodata.bl2_block_spec
                0x000000002fff49f4        0x8 /home/lodge/STM32MP157/tf-a/tf-a-stm32mp/../build/optee/bl2/bl2_io_storage.o
 .rodata.bl33_partition_spec
                0x000000002fff49fc       0x34 /home/lodge/STM32MP157/tf-a/tf-a-stm32mp/../build/optee/bl2/bl2_io_storage.o
 .rodata.mmc_block_dev_spec
                0x000000002fff4a30       0x14 /home/lodge/STM32MP157/tf-a/tf-a-stm32mp/../build/optee/bl2/bl2_io_storage.o
 .rodata.optee_header_partition_spec
                0x000000002fff4a44       0x34 /home/lodge/STM32MP157/tf-a/tf-a-stm32mp/../build/optee/bl2/bl2_io_storage.o
 .rodata.optee_paged_partition_spec
                0x000000002fff4a78       0x34 /home/lodge/STM32MP157/tf-a/tf-a-stm32mp/../build/optee/bl2/bl2_io_storage.o
 .rodata.optee_pager_partition_spec
                0x000000002fff4aac       0x34 /home/lodge/STM32MP157/tf-a/tf-a-stm32mp/../build/optee/bl2/bl2_io_storage.o
 .rodata.policies
                0x000000002fff4ae0      0x168 /home/lodge/STM32MP157/tf-a/tf-a-stm32mp/../build/optee/bl2/bl2_io_storage.o
 .rodata.bl2_platform_setup.str1.1
                0x000000002fff4c48       0x57 /home/lodge/STM32MP157/tf-a/tf-a-stm32mp/../build/optee/bl2/bl2_plat_setup.o
 .rodata.bl2_el3_plat_arch_setup.str1.1
                0x000000002fff4c9f      0x2f5 /home/lodge/STM32MP157/tf-a/tf-a-stm32mp/../build/optee/bl2/bl2_plat_setup.o
 .rodata.bl2_plat_handle_post_image_load.str1.1
                0x000000002fff4f94       0x1c /home/lodge/STM32MP157/tf-a/tf-a-stm32mp/../build/optee/bl2/bl2_plat_setup.o
 .rodata.debug_msg
                0x000000002fff4fb0      0x272 /home/lodge/STM32MP157/tf-a/tf-a-stm32mp/../build/optee/bl2/bl2_plat_setup.o
 .rodata.auth_mod_get_parent_id.str1.1
                0x000000002fff5222       0x18 /home/lodge/STM32MP157/tf-a/tf-a-stm32mp/../build/optee/bl2/auth_mod.o
 .rodata.auth_mod_verify_img.str1.1
                0x000000002fff523a       0x42 /home/lodge/STM32MP157/tf-a/tf-a-stm32mp/../build/optee/bl2/auth_mod.o
 .rodata.crypto_mod_init.str1.1
                0x000000002fff527c       0x36 /home/lodge/STM32MP157/tf-a/tf-a-stm32mp/../build/optee/bl2/crypto_mod.o
 .rodata.img_parser_init.str1.1
                0x000000002fff52b2       0x1e /home/lodge/STM32MP157/tf-a/tf-a-stm32mp/../build/optee/bl2/img_parser_mod.o
 .rodata.__compound_literal.0
                0x000000002fff52d0       0x50 /home/lodge/STM32MP157/tf-a/tf-a-stm32mp/../build/optee/bl2/stm32mp_cot.o
 .rodata.__compound_literal.1
                0x000000002fff5320       0x50 /home/lodge/STM32MP157/tf-a/tf-a-stm32mp/../build/optee/bl2/stm32mp_cot.o
 .rodata.__compound_literal.2
                0x000000002fff5370       0x50 /home/lodge/STM32MP157/tf-a/tf-a-stm32mp/../build/optee/bl2/stm32mp_cot.o
 .rodata.__compound_literal.3
                0x000000002fff53c0       0x50 /home/lodge/STM32MP157/tf-a/tf-a-stm32mp/../build/optee/bl2/stm32mp_cot.o
 .rodata.bl32_extra1_image
                0x000000002fff5410       0x14 /home/lodge/STM32MP157/tf-a/tf-a-stm32mp/../build/optee/bl2/stm32mp_cot.o
 .rodata.bl32_extra2_image
                0x000000002fff5424       0x14 /home/lodge/STM32MP157/tf-a/tf-a-stm32mp/../build/optee/bl2/stm32mp_cot.o
 .rodata.bl32_image
                0x000000002fff5438       0x14 /home/lodge/STM32MP157/tf-a/tf-a-stm32mp/../build/optee/bl2/stm32mp_cot.o
 .rodata.bl33_image
                0x000000002fff544c       0x14 /home/lodge/STM32MP157/tf-a/tf-a-stm32mp/../build/optee/bl2/stm32mp_cot.o
 .rodata.cot_desc
                0x000000002fff5460       0x5c /home/lodge/STM32MP157/tf-a/tf-a-stm32mp/../build/optee/bl2/stm32mp_cot.o
 .rodata.cot_desc_ptr
                0x000000002fff54bc        0x4 /home/lodge/STM32MP157/tf-a/tf-a-stm32mp/../build/optee/bl2/stm32mp_cot.o
                0x000000002fff54bc                cot_desc_ptr
 .rodata.crypto_verify_signature.str1.1
                0x000000002fff54c0       0x8f /home/lodge/STM32MP157/tf-a/tf-a-stm32mp/../build/optee/bl2/stm32mp_crypto_lib.o
 .rodata.str1.1
                0x000000002fff554f       0x11 /home/lodge/STM32MP157/tf-a/tf-a-stm32mp/../build/optee/bl2/stm32mp_crypto_lib.o
 .rodata.crypto_lib_desc
                0x000000002fff5560       0x10 /home/lodge/STM32MP157/tf-a/tf-a-stm32mp/../build/optee/bl2/stm32mp_crypto_lib.o
                0x000000002fff5560                crypto_lib_desc
 .rodata.str1.1
                0x000000002fff5570       0x15 /home/lodge/STM32MP157/tf-a/tf-a-stm32mp/../build/optee/bl2/stm32mp_img_parser_lib.o
 .rodata.plat_get_rotpk_info.str1.1
                0x000000002fff5585        0x8 /home/lodge/STM32MP157/tf-a/tf-a-stm32mp/../build/optee/bl2/stm32mp_trusted_boot.o
 .rodata.plat_get_nv_ctr.str1.1
                0x000000002fff558d        0xe /home/lodge/STM32MP157/tf-a/tf-a-stm32mp/../build/optee/bl2/stm32mp_trusted_boot.o
 .rodata.mmc_device_state.str1.1
                0x000000002fff558d       0x20 /home/lodge/STM32MP157/tf-a/tf-a-stm32mp/../build/optee/bl2/mmc.o
 .rodata.mmc_read_blocks.str1.1
                0x000000002fff55ad       0x12 /home/lodge/STM32MP157/tf-a/tf-a-stm32mp/../build/optee/bl2/mmc.o
 .rodata.mmc_init.str1.1
                0x000000002fff55bf       0x95 /home/lodge/STM32MP157/tf-a/tf-a-stm32mp/../build/optee/bl2/mmc.o
 .rodata.sd_tran_speed_base
                0x000000002fff5654       0x10 /home/lodge/STM32MP157/tf-a/tf-a-stm32mp/../build/optee/bl2/mmc.o
 .rodata.tran_speed_base
                0x000000002fff5664       0x10 /home/lodge/STM32MP157/tf-a/tf-a-stm32mp/../build/optee/bl2/mmc.o
 .rodata.parse_gpt_entry.str1.1
                0x000000002fff5674       0x18 /home/lodge/STM32MP157/tf-a/tf-a-stm32mp/../build/optee/bl2/gpt.o
 .rodata.load_partition_table.str1.1
                0x000000002fff568c       0xad /home/lodge/STM32MP157/tf-a/tf-a-stm32mp/../build/optee/bl2/partition.o
 .rodata.mmc_dev_open.str1.1
                0x000000002fff5739       0x17 /home/lodge/STM32MP157/tf-a/tf-a-stm32mp/../build/optee/bl2/io_mmc.o
 .rodata.mmc_dev_connector
                0x000000002fff5750        0x4 /home/lodge/STM32MP157/tf-a/tf-a-stm32mp/../build/optee/bl2/io_mmc.o
 .rodata.mmc_dev_funcs
                0x000000002fff5754       0x24 /home/lodge/STM32MP157/tf-a/tf-a-stm32mp/../build/optee/bl2/io_mmc.o
 .rodata.mmc_dev_info
                0x000000002fff5778        0x8 /home/lodge/STM32MP157/tf-a/tf-a-stm32mp/../build/optee/bl2/io_mmc.o
 .rodata.dump_registers.str1.1
                0x000000002fff5780      0x168 /home/lodge/STM32MP157/tf-a/tf-a-stm32mp/../build/optee/bl2/stm32_sdmmc2.o
 .rodata.stm32_sdmmc2_send_cmd.part.0.str1.1
                0x000000002fff58e8       0xbc /home/lodge/STM32MP157/tf-a/tf-a-stm32mp/../build/optee/bl2/stm32_sdmmc2.o
 .rodata.stm32_sdmmc2_send_cmd.str1.1
                0x000000002fff59a4       0x1e /home/lodge/STM32MP157/tf-a/tf-a-stm32mp/../build/optee/bl2/stm32_sdmmc2.o
 .rodata.stm32_sdmmc2_read.str1.1
                0x000000002fff59c2       0x59 /home/lodge/STM32MP157/tf-a/tf-a-stm32mp/../build/optee/bl2/stm32_sdmmc2.o
 .rodata.stm32_sdmmc2_prepare.str1.1
                0x000000002fff5a1b        0xf /home/lodge/STM32MP157/tf-a/tf-a-stm32mp/../build/optee/bl2/stm32_sdmmc2.o
 .rodata.stm32_sdmmc2_mmc_init.str1.1
                0x000000002fff5a2a       0x4e /home/lodge/STM32MP157/tf-a/tf-a-stm32mp/../build/optee/bl2/stm32_sdmmc2.o
                                         0x66 (size before relaxing)
 .rodata.__func__.0
                0x000000002fff5a78       0x1a /home/lodge/STM32MP157/tf-a/tf-a-stm32mp/../build/optee/bl2/stm32_sdmmc2.o
 .rodata.__func__.1
                0x000000002fff5a92       0x12 /home/lodge/STM32MP157/tf-a/tf-a-stm32mp/../build/optee/bl2/stm32_sdmmc2.o
 .rodata.__func__.2
                0x000000002fff5aa4       0x16 /home/lodge/STM32MP157/tf-a/tf-a-stm32mp/../build/optee/bl2/stm32_sdmmc2.o
 *fill*         0x000000002fff5aba        0x2 
 .rodata.stm32_sdmmc2_ops
                0x000000002fff5abc       0x18 /home/lodge/STM32MP157/tf-a/tf-a-stm32mp/../build/optee/bl2/stm32_sdmmc2.o
 .rodata.nand_read_param_page.str1.1
                0x000000002fff5ad4       0x32 /home/lodge/STM32MP157/tf-a/tf-a-stm32mp/../build/optee/bl2/raw_nand.o
 .rodata.nand_mtd_block_is_bad.str1.1
                0x000000002fff5b06       0x12 /home/lodge/STM32MP157/tf-a/tf-a-stm32mp/../build/optee/bl2/raw_nand.o
 .rodata.nand_raw_init.str1.1
                0x000000002fff5b18       0x4a /home/lodge/STM32MP157/tf-a/tf-a-stm32mp/../build/optee/bl2/raw_nand.o
 .rodata.stm32_fmc2_read_page.str1.1
                0x000000002fff5b62       0x3e /home/lodge/STM32MP157/tf-a/tf-a-stm32mp/../build/optee/bl2/stm32_fmc2_nand.o
 .rodata.stm32_fmc2_init.str1.1
                0x000000002fff5ba0       0x6b /home/lodge/STM32MP157/tf-a/tf-a-stm32mp/../build/optee/bl2/stm32_fmc2_nand.o
                                         0x6f (size before relaxing)
 .rodata.__func__.0
                0x000000002fff5c0b       0x17 /home/lodge/STM32MP157/tf-a/tf-a-stm32mp/../build/optee/bl2/stm32_fmc2_nand.o
 *fill*         0x000000002fff5c22        0x2 
 .rodata.ctrl_ops
                0x000000002fff5c24        0x8 /home/lodge/STM32MP157/tf-a/tf-a-stm32mp/../build/optee/bl2/stm32_fmc2_nand.o
 .rodata.spi_nand_mtd_block_is_bad.str1.1
                0x000000002fff5c2c       0x12 /home/lodge/STM32MP157/tf-a/tf-a-stm32mp/../build/optee/bl2/spi_nand.o
 .rodata.spi_nor_init.str1.1
                0x000000002fff5c3e       0x39 /home/lodge/STM32MP157/tf-a/tf-a-stm32mp/../build/optee/bl2/spi_nor.o
 .rodata.spi_mem_exec_op.str1.1
                0x000000002fff5c77       0x2d /home/lodge/STM32MP157/tf-a/tf-a-stm32mp/../build/optee/bl2/spi_mem.o
 .rodata.spi_mem_init_slave.str1.1
                0x000000002fff5ca4      0x100 /home/lodge/STM32MP157/tf-a/tf-a-stm32mp/../build/optee/bl2/spi_mem.o
                                        0x104 (size before relaxing)
 .rodata.stm32_qspi_wait_for_not_busy.str1.1
                0x000000002fff5da4       0x13 /home/lodge/STM32MP157/tf-a/tf-a-stm32mp/../build/optee/bl2/stm32_qspi.o
 .rodata.stm32_qspi_exec_op.str1.1
                0x000000002fff5da4       0x4e /home/lodge/STM32MP157/tf-a/tf-a-stm32mp/../build/optee/bl2/stm32_qspi.o
 .rodata.stm32_qspi_init.str1.1
                0x000000002fff5df2       0x2f /home/lodge/STM32MP157/tf-a/tf-a-stm32mp/../build/optee/bl2/stm32_qspi.o
                                         0x34 (size before relaxing)
 .rodata.__func__.0
                0x000000002fff5e21       0x14 /home/lodge/STM32MP157/tf-a/tf-a-stm32mp/../build/optee/bl2/stm32_qspi.o
 .rodata.__func__.1
                0x000000002fff5e35       0x10 /home/lodge/STM32MP157/tf-a/tf-a-stm32mp/../build/optee/bl2/stm32_qspi.o
 .rodata.__func__.2
                0x000000002fff5e45       0x1d /home/lodge/STM32MP157/tf-a/tf-a-stm32mp/../build/optee/bl2/stm32_qspi.o
 .rodata.__func__.3
                0x000000002fff5e62       0x13 /home/lodge/STM32MP157/tf-a/tf-a-stm32mp/../build/optee/bl2/stm32_qspi.o
 *fill*         0x000000002fff5e75        0x3 
 .rodata.stm32_qspi_bus_ops
                0x000000002fff5e78       0x14 /home/lodge/STM32MP157/tf-a/tf-a-stm32mp/../build/optee/bl2/stm32_qspi.o
 .rodata.get_data_from_otp.str1.1
                0x000000002fff5e8c       0x74 /home/lodge/STM32MP157/tf-a/tf-a-stm32mp/../build/optee/bl2/stm32mp1_boot_device.o
 .rodata.set_reg.str1.1
                0x000000002fff5f00       0x21 /home/lodge/STM32MP157/tf-a/tf-a-stm32mp/../build/optee/bl2/stm32mp1_ddr.o
 .rodata.stm32mp1_ddr_init.str1.1
                0x000000002fff5f21       0x19 /home/lodge/STM32MP157/tf-a/tf-a-stm32mp/../build/optee/bl2/stm32mp1_ddr.o
 .rodata.str1.1
                0x000000002fff5f3a      0x307 /home/lodge/STM32MP157/tf-a/tf-a-stm32mp/../build/optee/bl2/stm32mp1_ddr.o
                                        0x320 (size before relaxing)
 *fill*         0x000000002fff6241        0x3 
 .rodata.ddr_map
                0x000000002fff6244       0x48 /home/lodge/STM32MP157/tf-a/tf-a-stm32mp/../build/optee/bl2/stm32mp1_ddr.o
 .rodata.ddr_perf
                0x000000002fff628c       0x88 /home/lodge/STM32MP157/tf-a/tf-a-stm32mp/../build/optee/bl2/stm32mp1_ddr.o
 .rodata.ddr_reg
                0x000000002fff6314       0xc8 /home/lodge/STM32MP157/tf-a/tf-a-stm32mp/../build/optee/bl2/stm32mp1_ddr.o
 .rodata.ddr_registers
                0x000000002fff63dc       0x70 /home/lodge/STM32MP157/tf-a/tf-a-stm32mp/../build/optee/bl2/stm32mp1_ddr.o
 .rodata.ddr_timing
                0x000000002fff644c       0x60 /home/lodge/STM32MP157/tf-a/tf-a-stm32mp/../build/optee/bl2/stm32mp1_ddr.o
 .rodata.ddrphy_cal
                0x000000002fff64ac       0x60 /home/lodge/STM32MP157/tf-a/tf-a-stm32mp/../build/optee/bl2/stm32mp1_ddr.o
 .rodata.ddrphy_reg
                0x000000002fff650c       0x58 /home/lodge/STM32MP157/tf-a/tf-a-stm32mp/../build/optee/bl2/stm32mp1_ddr.o
 .rodata.ddrphy_timing
                0x000000002fff6564       0x50 /home/lodge/STM32MP157/tf-a/tf-a-stm32mp/../build/optee/bl2/stm32mp1_ddr.o
 .rodata.stm32mp1_ddr_setup.str1.1
                0x000000002fff65b4      0x189 /home/lodge/STM32MP157/tf-a/tf-a-stm32mp/../build/optee/bl2/stm32mp1_ram.o
 .rodata.stm32mp1_ddr_clk_enable.str1.1
                0x000000002fff673d       0x2f /home/lodge/STM32MP157/tf-a/tf-a-stm32mp/../build/optee/bl2/stm32mp1_ram.o
 .rodata.__func__.0
                0x000000002fff676c       0x13 /home/lodge/STM32MP157/tf-a/tf-a-stm32mp/../build/optee/bl2/stm32mp1_ram.o
 .rodata.flush_bl_params_desc_args.str1.1
                0x000000002fff677f       0x19 /home/lodge/STM32MP157/tf-a/tf-a-stm32mp/../build/optee/bl2/desc_image_load.o
 .rodata.tee_validate_header.str1.1
                0x000000002fff6798       0x30 /home/lodge/STM32MP157/tf-a/tf-a-stm32mp/../build/optee/bl2/optee_utils.o
 .rodata.parse_optee_image.str1.1
                0x000000002fff67c8       0x4d /home/lodge/STM32MP157/tf-a/tf-a-stm32mp/../build/optee/bl2/optee_utils.o
 .rodata.get_optee_header_ep.str1.1
                0x000000002fff6815       0x18 /home/lodge/STM32MP157/tf-a/tf-a-stm32mp/../build/optee/bl2/optee_utils.o
 .rodata.parse_optee_header.str1.1
                0x000000002fff682d       0xee /home/lodge/STM32MP157/tf-a/tf-a-stm32mp/../build/optee/bl2/optee_utils.o
 .rodata.bl2_load_images.str1.1
                0x000000002fff691b      0x114 /home/lodge/STM32MP157/tf-a/tf-a-stm32mp/../build/optee/bl2/bl2_image_load_v2.o
 .rodata.bl2_main.str1.1
                0x000000002fff6a2f       0x1e /home/lodge/STM32MP157/tf-a/tf-a-stm32mp/../build/optee/bl2/bl2_main.o
 .rodata.load_auth_image_internal.str1.1
                0x000000002fff6a4d       0xd8 /home/lodge/STM32MP157/tf-a/tf-a-stm32mp/../build/optee/bl2/bl_common.o
                                        0x12d (size before relaxing)
 .rodata.print_entry_point_info.str1.1
                0x000000002fff6b25       0x2c /home/lodge/STM32MP157/tf-a/tf-a-stm32mp/../build/optee/bl2/bl_common.o
 .rodata.tf_log.str1.1
                0x000000002fff6b51       0x10 /home/lodge/STM32MP157/tf-a/tf-a-stm32mp/../build/optee/bl2/tf_log.o
 .rodata.console_unregister.str1.1
                0x000000002fff6b61       0x20 /home/lodge/STM32MP157/tf-a/tf-a-stm32mp/../build/optee/bl2/multi_console.o
 .rodata.str1.1
                0x000000002fff6b81       0x32 /home/lodge/STM32MP157/tf-a/tf-a-stm32mp/../build/optee/bl2/plat_log_common.o
 *fill*         0x000000002fff6bb3        0x1 
 .rodata.plat_prefix_str
                0x000000002fff6bb4       0x14 /home/lodge/STM32MP157/tf-a/tf-a-stm32mp/../build/optee/bl2/plat_log_common.o
 .rodata.stm32_get_gpio_bank_base.str1.1
                0x000000002fff6bc8       0x20 /home/lodge/STM32MP157/tf-a/tf-a-stm32mp/../build/optee/bl2/stm32mp_common.o
 .rodata.stm32mp_check_header.str1.1
                0x000000002fff6be8       0x41 /home/lodge/STM32MP157/tf-a/tf-a-stm32mp/../build/optee/bl2/stm32mp_common.o
 .rodata.stm32_get_gpio_bank_clock.str1.1
                0x000000002fff6c29       0x24 /home/lodge/STM32MP157/tf-a/tf-a-stm32mp/../build/optee/bl2/stm32mp1_private.o
 .rodata.stm32_get_otp_value_from_idx.str1.1
                0x000000002fff6c4d       0x1a /home/lodge/STM32MP157/tf-a/tf-a-stm32mp/../build/optee/bl2/stm32mp1_private.o
 .rodata.stm32_get_otp_value.str1.1
                0x000000002fff6c67       0x16 /home/lodge/STM32MP157/tf-a/tf-a-stm32mp/../build/optee/bl2/stm32mp1_private.o
 .rodata.get_part_number.str1.1
                0x000000002fff6c7d       0x36 /home/lodge/STM32MP157/tf-a/tf-a-stm32mp/../build/optee/bl2/stm32mp1_private.o
 .rodata.stm32mp_print_cpuinfo.str1.1
                0x000000002fff6cb3       0x92 /home/lodge/STM32MP157/tf-a/tf-a-stm32mp/../build/optee/bl2/stm32mp1_private.o
                                         0x99 (size before relaxing)
 .rodata.stm32mp_print_boardinfo.str1.1
                0x000000002fff6d45       0x2e /home/lodge/STM32MP157/tf-a/tf-a-stm32mp/../build/optee/bl2/stm32mp1_private.o
 .rodata.stm32mp_is_closed_device.str1.1
                0x000000002fff6d73        0x9 /home/lodge/STM32MP157/tf-a/tf-a-stm32mp/../build/optee/bl2/stm32mp1_private.o
 .rodata.stm32_iwdg_get_otp_config.str1.1
                0x000000002fff6d7c        0x8 /home/lodge/STM32MP157/tf-a/tf-a-stm32mp/../build/optee/bl2/stm32mp1_private.o
 .rodata.plat_bind_regulator.str1.1
                0x000000002fff6d84       0x14 /home/lodge/STM32MP157/tf-a/tf-a-stm32mp/../build/optee/bl2/stm32mp1_private.o
 .rodata.str1.1
                0x000000002fff6d98        0xc /home/lodge/STM32MP157/tf-a/tf-a-stm32mp/../build/optee/bl2/stm32mp1_private.o
 .rodata.CSWTCH.52
                0x000000002fff6da4       0x10 /home/lodge/STM32MP157/tf-a/tf-a-stm32mp/../build/optee/bl2/stm32mp1_private.o
 *fill*         0x000000002fff6db4        0x4 
 .rodata.stm32mp1_mmap
                0x000000002fff6db8       0x60 /home/lodge/STM32MP157/tf-a/tf-a-stm32mp/../build/optee/bl2/stm32mp1_private.o
 .rodata.xlat_arch_regime_get_xn_desc.str1.1
                0x000000002fff6e18       0x2e /home/lodge/STM32MP157/tf-a/tf-a-stm32mp/../build/optee/bl2/xlat_tables_arch.o
 .rodata.mmap_add_alloc_va.str1.1
                0x000000002fff6e46       0x29 /home/lodge/STM32MP157/tf-a/tf-a-stm32mp/../build/optee/bl2/xlat_tables_context.o
 .rodata.xlat_table_get_index.str1.1
                0x000000002fff6e6f       0x26 /home/lodge/STM32MP157/tf-a/tf-a-stm32mp/../build/optee/bl2/xlat_tables_core.o
 .rodata.mmap_add_region_ctx.str1.1
                0x000000002fff6e95       0x2b /home/lodge/STM32MP157/tf-a/tf-a-stm32mp/../build/optee/bl2/xlat_tables_core.o
 .rodata.init_xlat_tables_ctx.str1.1
                0x000000002fff6ec0       0x4f /home/lodge/STM32MP157/tf-a/tf-a-stm32mp/../build/optee/bl2/xlat_tables_core.o
 .rodata.tzc400_set_action.str1.1
                0x000000002fff6f0f       0x19 /home/lodge/STM32MP157/tf-a/tf-a-stm32mp/../build/optee/bl2/tzc400.o
 .rodata.tzc400_init.str1.1
                0x000000002fff6f28       0x24 /home/lodge/STM32MP157/tf-a/tf-a-stm32mp/../build/optee/bl2/tzc400.o
 .rodata.tzc400_enable_filters.str1.1
                0x000000002fff6f4c       0x30 /home/lodge/STM32MP157/tf-a/tf-a-stm32mp/../build/optee/bl2/tzc400.o
 .rodata.udelay.str1.1
                0x000000002fff6f7c       0x22 /home/lodge/STM32MP157/tf-a/tf-a-stm32mp/../build/optee/bl2/delay_timer.o
 .rodata.generic_delay_timer_init.str1.1
                0x000000002fff6f9e       0x2a /home/lodge/STM32MP157/tf-a/tf-a-stm32mp/../build/optee/bl2/generic_delay_timer.o
 .rodata.otp_bank_offset.str1.1
                0x000000002fff6fc8       0x18 /home/lodge/STM32MP157/tf-a/tf-a-stm32mp/../build/optee/bl2/bsec2.o
 .rodata.bsec_find_otp_name_in_dt.str1.1
                0x000000002fff6fe0       0x85 /home/lodge/STM32MP157/tf-a/tf-a-stm32mp/../build/optee/bl2/bsec2.o
                                         0x89 (size before relaxing)
 .rodata.bsec_probe.str1.1
                0x000000002fff7065       0x12 /home/lodge/STM32MP157/tf-a/tf-a-stm32mp/../build/optee/bl2/bsec2.o
 .rodata.bsec_shadow_register.str1.1
                0x000000002fff7077       0x29 /home/lodge/STM32MP157/tf-a/tf-a-stm32mp/../build/optee/bl2/bsec2.o
 .rodata.bsec_write_otp.str1.1
                0x000000002fff70a0       0x2a /home/lodge/STM32MP157/tf-a/tf-a-stm32mp/../build/optee/bl2/bsec2.o
 .rodata.bsec_program_otp.str1.1
                0x000000002fff70ca       0xa8 /home/lodge/STM32MP157/tf-a/tf-a-stm32mp/../build/optee/bl2/bsec2.o
 .rodata.bsec_shadow_read_otp.str1.1
                0x000000002fff7172       0x37 /home/lodge/STM32MP157/tf-a/tf-a-stm32mp/../build/optee/bl2/bsec2.o
 .rodata.fdt_osc_read_freq.str1.1
                0x000000002fff71a9       0x18 /home/lodge/STM32MP157/tf-a/tf-a-stm32mp/../build/optee/bl2/stm32mp_clkfunc.o
 .rodata.fdt_get_rcc_node.str1.1
                0x000000002fff71c1       0x10 /home/lodge/STM32MP157/tf-a/tf-a-stm32mp/../build/optee/bl2/stm32mp_clkfunc.o
 .rodata.fdt_get_clock_id.str1.1
                0x000000002fff71d1       0x10 /home/lodge/STM32MP157/tf-a/tf-a-stm32mp/../build/optee/bl2/stm32mp_clkfunc.o
                                          0x7 (size before relaxing)
 .rodata.fdt_is_pll1_predefined.str1.1
                0x000000002fff71d1        0x9 /home/lodge/STM32MP157/tf-a/tf-a-stm32mp/../build/optee/bl2/stm32mp_clkfunc.o
 .rodata.stm32mp1_set_clkdiv.str1.1
                0x000000002fff71da       0x27 /home/lodge/STM32MP157/tf-a/tf-a-stm32mp/../build/optee/bl2/stm32mp1_clk.o
 .rodata.stm32mp1_clk_get_gated_id.str1.1
                0x000000002fff7201       0x1a /home/lodge/STM32MP157/tf-a/tf-a-stm32mp/../build/optee/bl2/stm32mp1_clk.o
 .rodata.__stm32mp1_clk_enable.str1.1
                0x000000002fff721b       0x1c /home/lodge/STM32MP157/tf-a/tf-a-stm32mp/../build/optee/bl2/stm32mp1_clk.o
 .rodata.__stm32mp1_clk_disable.str1.1
                0x000000002fff7237       0x1d /home/lodge/STM32MP157/tf-a/tf-a-stm32mp/../build/optee/bl2/stm32mp1_clk.o
 .rodata.stm32mp1_check_pll_conf.str1.1
                0x000000002fff7254        0x5 /home/lodge/STM32MP157/tf-a/tf-a-stm32mp/../build/optee/bl2/stm32mp1_clk.o
 .rodata.stm32mp1_osc_wait.isra.0.str1.1
                0x000000002fff7259       0x2c /home/lodge/STM32MP157/tf-a/tf-a-stm32mp/../build/optee/bl2/stm32mp1_clk.o
 .rodata.stm32mp1_set_clksrc.str1.1
                0x000000002fff7285       0x27 /home/lodge/STM32MP157/tf-a/tf-a-stm32mp/../build/optee/bl2/stm32mp1_clk.o
 .rodata.stm32mp1_pll_output.str1.1
                0x000000002fff72ac       0x23 /home/lodge/STM32MP157/tf-a/tf-a-stm32mp/../build/optee/bl2/stm32mp1_clk.o
 .rodata.stm32mp1_pll_stop.str1.1
                0x000000002fff72cf       0x22 /home/lodge/STM32MP157/tf-a/tf-a-stm32mp/../build/optee/bl2/stm32mp1_clk.o
 .rodata.stm32mp1_clk_get_maxfreq_opp.str1.1
                0x000000002fff72f1       0x1e /home/lodge/STM32MP157/tf-a/tf-a-stm32mp/../build/optee/bl2/stm32mp1_clk.o
 .rodata.stm32mp1_clk_init.str1.1
                0x000000002fff730f       0x8b /home/lodge/STM32MP157/tf-a/tf-a-stm32mp/../build/optee/bl2/stm32mp1_clk.o
                                         0x8f (size before relaxing)
 .rodata.str1.1
                0x000000002fff739a       0x31 /home/lodge/STM32MP157/tf-a/tf-a-stm32mp/../build/optee/bl2/stm32mp1_clk.o
 .rodata.__func__.0
                0x000000002fff73cb       0x1a /home/lodge/STM32MP157/tf-a/tf-a-stm32mp/../build/optee/bl2/stm32mp1_clk.o
 .rodata.axiss_parents
                0x000000002fff73e5        0x3 /home/lodge/STM32MP157/tf-a/tf-a-stm32mp/../build/optee/bl2/stm32mp1_clk.o
 .rodata.fmc_parents
                0x000000002fff73e8        0x4 /home/lodge/STM32MP157/tf-a/tf-a-stm32mp/../build/optee/bl2/stm32mp1_clk.o
 .rodata.i2c12_parents
                0x000000002fff73ec        0x4 /home/lodge/STM32MP157/tf-a/tf-a-stm32mp/../build/optee/bl2/stm32mp1_clk.o
 .rodata.i2c35_parents
                0x000000002fff73f0        0x4 /home/lodge/STM32MP157/tf-a/tf-a-stm32mp/../build/optee/bl2/stm32mp1_clk.o
 .rodata.i2c46_parents
                0x000000002fff73f4        0x4 /home/lodge/STM32MP157/tf-a/tf-a-stm32mp/../build/optee/bl2/stm32mp1_clk.o
 .rodata.mcuss_parents
                0x000000002fff73f8        0x4 /home/lodge/STM32MP157/tf-a/tf-a-stm32mp/../build/optee/bl2/stm32mp1_clk.o
 .rodata.mpu_parents
                0x000000002fff73fc        0x4 /home/lodge/STM32MP157/tf-a/tf-a-stm32mp/../build/optee/bl2/stm32mp1_clk.o
 .rodata.parent_id_clock_id
                0x000000002fff7400       0x22 /home/lodge/STM32MP157/tf-a/tf-a-stm32mp/../build/optee/bl2/stm32mp1_clk.o
 .rodata.per_parents
                0x000000002fff7422        0x3 /home/lodge/STM32MP157/tf-a/tf-a-stm32mp/../build/optee/bl2/stm32mp1_clk.o
 .rodata.pllncfgr2
                0x000000002fff7425        0x3 /home/lodge/STM32MP157/tf-a/tf-a-stm32mp/../build/optee/bl2/stm32mp1_clk.o
 .rodata.qspi_parents
                0x000000002fff7428        0x4 /home/lodge/STM32MP157/tf-a/tf-a-stm32mp/../build/optee/bl2/stm32mp1_clk.o
 .rodata.rng1_parents
                0x000000002fff742c        0x4 /home/lodge/STM32MP157/tf-a/tf-a-stm32mp/../build/optee/bl2/stm32mp1_clk.o
 .rodata.rtc_parents
                0x000000002fff7430        0x4 /home/lodge/STM32MP157/tf-a/tf-a-stm32mp/../build/optee/bl2/stm32mp1_clk.o
 .rodata.sdmmc12_parents
                0x000000002fff7434        0x4 /home/lodge/STM32MP157/tf-a/tf-a-stm32mp/../build/optee/bl2/stm32mp1_clk.o
 .rodata.sdmmc3_parents
                0x000000002fff7438        0x4 /home/lodge/STM32MP157/tf-a/tf-a-stm32mp/../build/optee/bl2/stm32mp1_clk.o
 .rodata.spi6_parents
                0x000000002fff743c        0x6 /home/lodge/STM32MP157/tf-a/tf-a-stm32mp/../build/optee/bl2/stm32mp1_clk.o
 .rodata.stgen_parents
                0x000000002fff7442        0x2 /home/lodge/STM32MP157/tf-a/tf-a-stm32mp/../build/optee/bl2/stm32mp1_clk.o
 .rodata.stm32mp1_axi_div
                0x000000002fff7444        0x8 /home/lodge/STM32MP157/tf-a/tf-a-stm32mp/../build/optee/bl2/stm32mp1_clk.o
 .rodata.stm32mp1_clk_gate
                0x000000002fff744c      0x1b8 /home/lodge/STM32MP157/tf-a/tf-a-stm32mp/../build/optee/bl2/stm32mp1_clk.o
 .rodata.stm32mp1_clk_pll
                0x000000002fff7604       0x80 /home/lodge/STM32MP157/tf-a/tf-a-stm32mp/../build/optee/bl2/stm32mp1_clk.o
 .rodata.stm32mp1_clk_sel
                0x000000002fff7684      0x108 /home/lodge/STM32MP157/tf-a/tf-a-stm32mp/../build/optee/bl2/stm32mp1_clk.o
 .rodata.stm32mp1_mcu_div
                0x000000002fff778c       0x10 /home/lodge/STM32MP157/tf-a/tf-a-stm32mp/../build/optee/bl2/stm32mp1_clk.o
 .rodata.stm32mp1_mpu_apbx_div
                0x000000002fff779c        0x8 /home/lodge/STM32MP157/tf-a/tf-a-stm32mp/../build/optee/bl2/stm32mp1_clk.o
 .rodata.stm32mp1_pll
                0x000000002fff77a4        0x6 /home/lodge/STM32MP157/tf-a/tf-a-stm32mp/../build/optee/bl2/stm32mp1_clk.o
 .rodata.uart234578_parents
                0x000000002fff77aa        0x5 /home/lodge/STM32MP157/tf-a/tf-a-stm32mp/../build/optee/bl2/stm32mp1_clk.o
 .rodata.uart6_parents
                0x000000002fff77af        0x5 /home/lodge/STM32MP157/tf-a/tf-a-stm32mp/../build/optee/bl2/stm32mp1_clk.o
 .rodata.usart1_parents
                0x000000002fff77b4        0x6 /home/lodge/STM32MP157/tf-a/tf-a-stm32mp/../build/optee/bl2/stm32mp1_clk.o
 .rodata.usbo_parents
                0x000000002fff77ba        0x2 /home/lodge/STM32MP157/tf-a/tf-a-stm32mp/../build/optee/bl2/stm32mp1_clk.o
 .rodata.usbphy_parents
                0x000000002fff77bc        0x3 /home/lodge/STM32MP157/tf-a/tf-a-stm32mp/../build/optee/bl2/stm32mp1_clk.o
 .rodata.ddr_set_sr_mode.str1.1
                0x000000002fff77bf       0x1c /home/lodge/STM32MP157/tf-a/tf-a-stm32mp/../build/optee/bl2/stm32mp1_ddr_helpers.o
 .rodata.CSWTCH.26
                0x000000002fff77db        0xa /home/lodge/STM32MP157/tf-a/tf-a-stm32mp/../build/optee/bl2/stm32mp1_ddr_helpers.o
 .rodata.set_gpio.str1.1
                0x000000002fff77e5       0x1d /home/lodge/STM32MP157/tf-a/tf-a-stm32mp/../build/optee/bl2/stm32_gpio.o
 .rodata.dt_set_pinctrl_config.str1.1
                0x000000002fff7802       0x75 /home/lodge/STM32MP157/tf-a/tf-a-stm32mp/../build/optee/bl2/stm32_gpio.o
                                         0x79 (size before relaxing)
 .rodata.stm32_i2c_get_setup_from_fdt.str1.1
                0x000000002fff7877       0x4d /home/lodge/STM32MP157/tf-a/tf-a-stm32mp/../build/optee/bl2/stm32_i2c.o
                                         0x5d (size before relaxing)
 .rodata.stm32_i2c_init.str1.1
                0x000000002fff78c4      0x146 /home/lodge/STM32MP157/tf-a/tf-a-stm32mp/../build/optee/bl2/stm32_i2c.o
 *fill*         0x000000002fff7a0a        0x2 
 .rodata.i2c_specs
                0x000000002fff7a0c       0x60 /home/lodge/STM32MP157/tf-a/tf-a-stm32mp/../build/optee/bl2/stm32_i2c.o
 .rodata.stm32_iwdg_init.str1.1
                0x000000002fff7a6c       0x63 /home/lodge/STM32MP157/tf-a/tf-a-stm32mp/../build/optee/bl2/stm32_iwdg.o
 .rodata.dt_get_pmic_node.str1.1
                0x000000002fff7acf        0xb /home/lodge/STM32MP157/tf-a/tf-a-stm32mp/../build/optee/bl2/stm32mp_pmic.o
 .rodata.dt_pmic_get_regulator_voltage.str1.1
                0x000000002fff7ada       0x30 /home/lodge/STM32MP157/tf-a/tf-a-stm32mp/../build/optee/bl2/stm32mp_pmic.o
 .rodata.pmic_operate.str1.1
                0x000000002fff7b0a       0x53 /home/lodge/STM32MP157/tf-a/tf-a-stm32mp/../build/optee/bl2/stm32mp_pmic.o
                                         0x72 (size before relaxing)
 .rodata.dt_pmic_find_supply.str1.1
                0x000000002fff7b5d        0xf /home/lodge/STM32MP157/tf-a/tf-a-stm32mp/../build/optee/bl2/stm32mp_pmic.o
 .rodata.initialize_pmic_i2c.str1.1
                0x000000002fff7b6c       0x55 /home/lodge/STM32MP157/tf-a/tf-a-stm32mp/../build/optee/bl2/stm32mp_pmic.o
                                         0x59 (size before relaxing)
 .rodata.is_pmic_regulator.str1.1
                0x000000002fff7bc1       0x16 /home/lodge/STM32MP157/tf-a/tf-a-stm32mp/../build/optee/bl2/stm32mp_pmic.o
 .rodata.print_pmic_info_and_debug.str1.1
                0x000000002fff7bd7       0x31 /home/lodge/STM32MP157/tf-a/tf-a-stm32mp/../build/optee/bl2/stm32mp_pmic.o
 .rodata.pmic_ddr_power_init.str1.1
                0x000000002fff7c08       0x14 /home/lodge/STM32MP157/tf-a/tf-a-stm32mp/../build/optee/bl2/stm32mp_pmic.o
 .rodata.pmic_regu_ops
                0x000000002fff7c1c        0x8 /home/lodge/STM32MP157/tf-a/tf-a-stm32mp/../build/optee/bl2/stm32mp_pmic.o
 .rodata.stpmic1_regulator_voltage_get.str1.1
                0x000000002fff7c24        0xe /home/lodge/STM32MP157/tf-a/tf-a-stm32mp/../build/optee/bl2/stpmic1.o
 .rodata.str1.1
                0x000000002fff7c32       0x3c /home/lodge/STM32MP157/tf-a/tf-a-stm32mp/../build/optee/bl2/stpmic1.o
                                         0x50 (size before relaxing)
 .rodata.buck1_voltage_table
                0x000000002fff7c6e       0x80 /home/lodge/STM32MP157/tf-a/tf-a-stm32mp/../build/optee/bl2/stpmic1.o
 .rodata.buck2_voltage_table
                0x000000002fff7cee       0x4a /home/lodge/STM32MP157/tf-a/tf-a-stm32mp/../build/optee/bl2/stpmic1.o
 .rodata.buck3_voltage_table
                0x000000002fff7d38       0x70 /home/lodge/STM32MP157/tf-a/tf-a-stm32mp/../build/optee/bl2/stpmic1.o
 .rodata.buck4_voltage_table
                0x000000002fff7da8       0x7a /home/lodge/STM32MP157/tf-a/tf-a-stm32mp/../build/optee/bl2/stpmic1.o
 .rodata.fixed_5v_voltage_table
                0x000000002fff7e22        0x2 /home/lodge/STM32MP157/tf-a/tf-a-stm32mp/../build/optee/bl2/stpmic1.o
 .rodata.ldo1_voltage_table
                0x000000002fff7e24       0x32 /home/lodge/STM32MP157/tf-a/tf-a-stm32mp/../build/optee/bl2/stpmic1.o
 .rodata.ldo2_voltage_table
                0x000000002fff7e56       0x32 /home/lodge/STM32MP157/tf-a/tf-a-stm32mp/../build/optee/bl2/stpmic1.o
 .rodata.ldo3_voltage_table
                0x000000002fff7e88       0x42 /home/lodge/STM32MP157/tf-a/tf-a-stm32mp/../build/optee/bl2/stpmic1.o
 .rodata.ldo4_voltage_table
                0x000000002fff7eca        0x2 /home/lodge/STM32MP157/tf-a/tf-a-stm32mp/../build/optee/bl2/stpmic1.o
 .rodata.ldo5_voltage_table
                0x000000002fff7ecc       0x3e /home/lodge/STM32MP157/tf-a/tf-a-stm32mp/../build/optee/bl2/stpmic1.o
 .rodata.ldo6_voltage_table
                0x000000002fff7f0a       0x32 /home/lodge/STM32MP157/tf-a/tf-a-stm32mp/../build/optee/bl2/stpmic1.o
 .rodata.regulators_table
                0x000000002fff7f3c       0xe0 /home/lodge/STM32MP157/tf-a/tf-a-stm32mp/../build/optee/bl2/stpmic1.o
 .rodata.vref_ddr_voltage_table
                0x000000002fff801c        0x2 /home/lodge/STM32MP157/tf-a/tf-a-stm32mp/../build/optee/bl2/stpmic1.o
 *fill*         0x000000002fff801e        0x2 
 .rodata.dummy_regu_ops
                0x000000002fff8020        0x8 /home/lodge/STM32MP157/tf-a/tf-a-stm32mp/../build/optee/bl2/stm32mp_dummy_regulator.o
 .rodata.stm32mp_regulator_enable.str1.1
                0x000000002fff8028       0x29 /home/lodge/STM32MP157/tf-a/tf-a-stm32mp/../build/optee/bl2/stm32mp_regulator.o
 .rodata.dt_get_stdout_node_offset.str1.1
                0x000000002fff8051       0x25 /home/lodge/STM32MP157/tf-a/tf-a-stm32mp/../build/optee/bl2/stm32mp_dt.o
 .rodata.dt_get_opp_freqvolt_from_subnode.str1.1
                0x000000002fff8076       0x26 /home/lodge/STM32MP157/tf-a/tf-a-stm32mp/../build/optee/bl2/stm32mp_dt.o
 .rodata.fdt_get_status.str1.1
                0x000000002fff809c       0x13 /home/lodge/STM32MP157/tf-a/tf-a-stm32mp/../build/optee/bl2/stm32mp_dt.o
                                         0x1a (size before relaxing)
 .rodata.fdt_get_reg_props_by_name.str1.1
                0x000000002fff80af       0x26 /home/lodge/STM32MP157/tf-a/tf-a-stm32mp/../build/optee/bl2/stm32mp_dt.o
                                         0x2a (size before relaxing)
 .rodata.dt_fill_device_info.str1.1
                0x000000002fff80d5        0x7 /home/lodge/STM32MP157/tf-a/tf-a-stm32mp/../build/optee/bl2/stm32mp_dt.o
                                          0xe (size before relaxing)
 .rodata.dt_get_node_by_compatible.str1.1
                0x000000002fff80dc       0x1c /home/lodge/STM32MP157/tf-a/tf-a-stm32mp/../build/optee/bl2/stm32mp_dt.o
 .rodata.dt_get_ddr_size.str1.1
                0x000000002fff80f8       0x1c /home/lodge/STM32MP157/tf-a/tf-a-stm32mp/../build/optee/bl2/stm32mp_dt.o
 .rodata.dt_get_max_opp_freqvolt.str1.1
                0x000000002fff80f8       0x14 /home/lodge/STM32MP157/tf-a/tf-a-stm32mp/../build/optee/bl2/stm32mp_dt.o
 .rodata.dt_get_pwr_vdd_voltage.str1.1
                0x000000002fff810c       0x1f /home/lodge/STM32MP157/tf-a/tf-a-stm32mp/../build/optee/bl2/stm32mp_dt.o
                                         0x37 (size before relaxing)
 .rodata.dt_get_cpu_regulator_name.str1.1
                0x000000002fff812b       0x17 /home/lodge/STM32MP157/tf-a/tf-a-stm32mp/../build/optee/bl2/stm32mp_dt.o
                                         0x26 (size before relaxing)
 .rodata.dt_get_board_model.str1.1
                0x000000002fff8142        0x8 /home/lodge/STM32MP157/tf-a/tf-a-stm32mp/../build/optee/bl2/stm32mp_dt.o
 .rodata.stm32_pm_get_optee_ep.str1.1
                0x000000002fff814a       0x18 /home/lodge/STM32MP157/tf-a/tf-a-stm32mp/../build/optee/bl2/stm32mp1_context.o
 .rodata.stm32_get_pll1_settings_from_context.str1.1
                0x000000002fff8162       0x24 /home/lodge/STM32MP157/tf-a/tf-a-stm32mp/../build/optee/bl2/stm32mp1_context.o
 .rodata.stm32mp1_dbgmcu_init.str1.1
                0x000000002fff8186       0x36 /home/lodge/STM32MP157/tf-a/tf-a-stm32mp/../build/optee/bl2/stm32mp1_dbgmcu.o
 .rodata.stm32mp1_dbgmcu_get_chip_version.str1.1
                0x000000002fff81bc       0x23 /home/lodge/STM32MP157/tf-a/tf-a-stm32mp/../build/optee/bl2/stm32mp1_dbgmcu.o
 .rodata.stm32mp1_syscfg_enable_io_compensation.str1.1
                0x000000002fff81df       0x21 /home/lodge/STM32MP157/tf-a/tf-a-stm32mp/../build/optee/bl2/stm32mp1_syscfg.o
 .rodata.stm32mp1_syscfg_init.str1.1
                0x000000002fff8200       0x8e /home/lodge/STM32MP157/tf-a/tf-a-stm32mp/../build/optee/bl2/stm32mp1_syscfg.o
                                         0x96 (size before relaxing)
 .rodata.str1.1
                0x000000002fff828e       0x29 /home/lodge/STM32MP157/tf-a/tf-a-stm32mp/../build/optee/bl2/bl2_el3_entrypoint.o
 .rodata.str1.1
                0x000000002fff82b7       0x1f /home/lodge/STM32MP157/tf-a/tf-a-stm32mp/../build/optee/bl2/cpu_helpers.o
 .rodata.panic_str
                0x000000002fff82d6       0x14 /home/lodge/STM32MP157/tf-a/tf-a-stm32mp/../build/optee/bl2/debug.o
 .rodata.assert_str
                0x000000002fff82ea       0x15 /home/lodge/STM32MP157/tf-a/tf-a-stm32mp/../build/optee/bl2/debug.o
 .rodata.str1.1
                0x000000002fff82ff       0x28 /home/lodge/STM32MP157/tf-a/tf-a-stm32mp/../build/optee/bl2/stm32_console.o
 .rodata.str1.1
                0x000000002fff8327       0x28 /home/lodge/STM32MP157/tf-a/tf-a-stm32mp/../build/optee/bl2/enable_mmu.o
 .rodata.rev_err_str
                0x000000002fff834f       0xa0 /home/lodge/STM32MP157/tf-a/tf-a-stm32mp/../build/optee/bl2/stm32mp1_helper.o
 .rodata.fdt_address_cells.str1.1
                0x000000002fff83ef        0xf /home/lodge/STM32MP157/tf-a/tf-a-stm32mp/../build/optee/lib/libfdt.a(fdt_addresses.o)
 .rodata.fdt_size_cells.str1.1
                0x000000002fff83fe        0xc /home/lodge/STM32MP157/tf-a/tf-a-stm32mp/../build/optee/lib/libfdt.a(fdt_addresses.o)
 .rodata.fdt_get_phandle.str1.1
                0x000000002fff840a        0xe /home/lodge/STM32MP157/tf-a/tf-a-stm32mp/../build/optee/lib/libfdt.a(fdt_ro.o)
                                         0x16 (size before relaxing)
 .rodata.fdt_get_alias_namelen.str1.1
                0x000000002fff8418        0x9 /home/lodge/STM32MP157/tf-a/tf-a-stm32mp/../build/optee/lib/libfdt.a(fdt_ro.o)
 .rodata.fdt_node_check_compatible.str1.1
                0x000000002fff8421        0xb /home/lodge/STM32MP157/tf-a/tf-a-stm32mp/../build/optee/lib/libfdt.a(fdt_ro.o)
 .rodata.__assert.str1.1
                0x000000002fff842c        0xf /home/lodge/STM32MP157/tf-a/tf-a-stm32mp/../build/optee/lib/libc.a(assert.o)
 .rodata.vprintf.str1.1
                0x000000002fff843b       0x15 /home/lodge/STM32MP157/tf-a/tf-a-stm32mp/../build/optee/lib/libc.a(printf.o)
 .rodata.snprintf.str1.1
                0x000000002fff8450       0x39 /home/lodge/STM32MP157/tf-a/tf-a-stm32mp/../build/optee/lib/libc.a(snprintf.o)
                0x000000002fff8490                . = ALIGN (0x8)
 *fill*         0x000000002fff8489        0x7 
                0x000000002fff8490                __CPU_OPS_START__ = .
 *(cpu_ops)
 cpu_ops        0x000000002fff8490        0x8 /home/lodge/STM32MP157/tf-a/tf-a-stm32mp/../build/optee/bl2/cortex_a7.o
                0x000000002fff8498                __CPU_OPS_END__ = .
                0x000000002fff8498                . = ALIGN (0x8)
                0x000000002fff8498                __PARSER_LIB_DESCS_START__ = .
 *(.img_parser_lib_descs)
 .img_parser_lib_descs
                0x000000002fff8498       0x14 /home/lodge/STM32MP157/tf-a/tf-a-stm32mp/../build/optee/bl2/stm32mp_img_parser_lib.o
                0x000000002fff84ac                __PARSER_LIB_DESCS_END__ = .
 *(.vectors)
 *fill*         0x000000002fff84ac       0x14 
 .vectors       0x000000002fff84c0       0x20 /home/lodge/STM32MP157/tf-a/tf-a-stm32mp/../build/optee/bl2/bl2_el3_exceptions.o
                0x000000002fff84c0                bl2_vector_table
 .vectors.__stub
                0x000000002fff84e0       0x40 linker stubs
                0x000000002fff8520                __RO_END_UNALIGNED__ = .
                0x000000002fff9000                . = ALIGN (0x1000)
 *fill*         0x000000002fff8520      0xae0 
                0x000000002fff9000                __RO_END__ = .
                0x0000000000000001                ASSERT ((__CPU_OPS_END__ > __CPU_OPS_START__), cpu_ops not defined for this platform.)
                0x000000002fff9000                __RW_START__ = .

.glue_7         0x000000002fff9000        0x0
 .glue_7        0x000000002fff9000        0x0 linker stubs

.glue_7t        0x000000002fff9000        0x0
 .glue_7t       0x000000002fff9000        0x0 linker stubs

.vfp11_veneer   0x000000002fff9000        0x0
 .vfp11_veneer  0x000000002fff9000        0x0 linker stubs

.v4_bx          0x000000002fff9000        0x0
 .v4_bx         0x000000002fff9000        0x0 linker stubs

.iplt           0x000000002fff9000        0x0
 .iplt          0x000000002fff9000        0x0 /home/lodge/STM32MP157/tf-a/tf-a-stm32mp/../build/optee/bl2/io_block.o

.rel.dyn        0x000000002fff9000        0x0
 .rel.iplt      0x000000002fff9000        0x0 /home/lodge/STM32MP157/tf-a/tf-a-stm32mp/../build/optee/bl2/io_block.o

.data           0x000000002fff9000      0x34c
                0x000000002fff9000                __DATA_RAM_START__ = .
 *(.data*)
 .data.stm32image_dev_info
                0x000000002fff9000        0x8 /home/lodge/STM32MP157/tf-a/tf-a-stm32mp/../build/optee/bl2/io_stm32image.o
 .data.backup_id.1
                0x000000002fff9008        0x4 /home/lodge/STM32MP157/tf-a/tf-a-stm32mp/../build/optee/bl2/bl2_io_storage.o
 .data.gpt_block_spec
                0x000000002fff900c        0x8 /home/lodge/STM32MP157/tf-a/tf-a-stm32mp/../build/optee/bl2/bl2_io_storage.o
 *fill*         0x000000002fff9014        0x4 
 .data.nand_dev_spec
                0x000000002fff9018       0x18 /home/lodge/STM32MP157/tf-a/tf-a-stm32mp/../build/optee/bl2/bl2_io_storage.o
 .data.spi_nand_dev_spec
                0x000000002fff9030       0x18 /home/lodge/STM32MP157/tf-a/tf-a-stm32mp/../build/optee/bl2/bl2_io_storage.o
 .data.spi_nor_dev_spec
                0x000000002fff9048       0x18 /home/lodge/STM32MP157/tf-a/tf-a-stm32mp/../build/optee/bl2/bl2_io_storage.o
 .data.stm32image_dev_info_spec
                0x000000002fff9060       0xe0 /home/lodge/STM32MP157/tf-a/tf-a-stm32mp/../build/optee/bl2/bl2_io_storage.o
 .data.stm32_header_pk
                0x000000002fff9140        0x8 /home/lodge/STM32MP157/tf-a/tf-a-stm32mp/../build/optee/bl2/stm32mp_cot.o
 .data.stm32_header_sig
                0x000000002fff9148        0x8 /home/lodge/STM32MP157/tf-a/tf-a-stm32mp/../build/optee/bl2/stm32mp_cot.o
 .data.stm32_header_sig_alg
                0x000000002fff9150        0x8 /home/lodge/STM32MP157/tf-a/tf-a-stm32mp/../build/optee/bl2/stm32mp_cot.o
 .data.stm32_load
                0x000000002fff9158        0x8 /home/lodge/STM32MP157/tf-a/tf-a-stm32mp/../build/optee/bl2/stm32mp_cot.o
 .data.bl2_mem_params_descs
                0x000000002fff9160      0x170 /home/lodge/STM32MP157/tf-a/tf-a-stm32mp/../build/optee/bl2/plat_bl2_mem_params_desc.o
 .data.bl_mem_params_desc_num
                0x000000002fff92d0        0x4 /home/lodge/STM32MP157/tf-a/tf-a-stm32mp/../build/optee/bl2/plat_bl2_mem_params_desc.o
                0x000000002fff92d0                bl_mem_params_desc_num
 .data.bl_mem_params_desc_ptr
                0x000000002fff92d4        0x4 /home/lodge/STM32MP157/tf-a/tf-a-stm32mp/../build/optee/bl2/plat_bl2_mem_params_desc.o
                0x000000002fff92d4                bl_mem_params_desc_ptr
 .data.max_log_level
                0x000000002fff92d8        0x4 /home/lodge/STM32MP157/tf-a/tf-a-stm32mp/../build/optee/bl2/tf_log.o
 .data.console_state
                0x000000002fff92dc        0x1 /home/lodge/STM32MP157/tf-a/tf-a-stm32mp/../build/optee/bl2/multi_console.o
                0x000000002fff92dc                console_state
 *fill*         0x000000002fff92dd        0x3 
 .data.tf_xlat_ctx
                0x000000002fff92e0       0x48 /home/lodge/STM32MP157/tf-a/tf-a-stm32mp/../build/optee/bl2/xlat_tables_context.o
 .data.stm32mp_osc_node_label
                0x000000002fff9328       0x18 /home/lodge/STM32MP157/tf-a/tf-a-stm32mp/../build/optee/bl2/stm32mp1_clk.o
                0x000000002fff9328                stm32mp_osc_node_label
 .data.i2c_node.0
                0x000000002fff9340        0x4 /home/lodge/STM32MP157/tf-a/tf-a-stm32mp/../build/optee/bl2/stm32mp_pmic.o
 .data.node.1   0x000000002fff9344        0x4 /home/lodge/STM32MP157/tf-a/tf-a-stm32mp/../build/optee/bl2/stm32mp_pmic.o
 .data.status.2
                0x000000002fff9348        0x4 /home/lodge/STM32MP157/tf-a/tf-a-stm32mp/../build/optee/bl2/stm32mp_pmic.o
                0x000000002fff934c                __DATA_RAM_END__ = .

.igot.plt       0x000000002fff934c        0x0
 .igot.plt      0x000000002fff934c        0x0 /home/lodge/STM32MP157/tf-a/tf-a-stm32mp/../build/optee/bl2/io_block.o

stacks          0x000000002fff9380      0xc00
                0x000000002fff9380                __STACKS_START__ = .
 *(tzfw_normal_stacks)
 tzfw_normal_stacks
                0x000000002fff9380      0xc00 /home/lodge/STM32MP157/tf-a/tf-a-stm32mp/../build/optee/bl2/platform_up_stack.o
                0x000000002fff9f80                __STACKS_END__ = .

.bss            0x000000002fffa000     0x26fc
                0x000000002fffa000                __BSS_START__ = .
 *(SORT_BY_ALIGNMENT(.bss*))
 .bss.block_buffer
                0x000000002fffa000      0x800 /home/lodge/STM32MP157/tf-a/tf-a-stm32mp/../build/optee/bl2/bl2_io_storage.o
 .bss.tf_base_xlat_table
                0x000000002fffa800       0x20 /home/lodge/STM32MP157/tf-a/tf-a-stm32mp/../build/optee/bl2/xlat_tables_context.o
 .bss.mmc_ext_csd
                0x000000002fffa820      0x200 /home/lodge/STM32MP157/tf-a/tf-a-stm32mp/../build/optee/bl2/mmc.o
 .bss.scr       0x000000002fffaa20        0x8 /home/lodge/STM32MP157/tf-a/tf-a-stm32mp/../build/optee/bl2/mmc.o
 .bss.state_pool
                0x000000002fffaa28       0x18 /home/lodge/STM32MP157/tf-a/tf-a-stm32mp/../build/optee/bl2/io_block.o
 .bss.state_pool
                0x000000002fffaa40       0x18 /home/lodge/STM32MP157/tf-a/tf-a-stm32mp/../build/optee/bl2/io_mtd.o
 .bss.stm32image_dev
                0x000000002fffaa58       0xe0 /home/lodge/STM32MP157/tf-a/tf-a-stm32mp/../build/optee/bl2/io_stm32image.o
 .bss.list      0x000000002fffab38      0x158 /home/lodge/STM32MP157/tf-a/tf-a-stm32mp/../build/optee/bl2/partition.o
 .bss.seek_offset
                0x000000002fffac90        0x8 /home/lodge/STM32MP157/tf-a/tf-a-stm32mp/../build/optee/bl2/io_mmc.o
 .bss.spinand_dev
                0x000000002fffac98       0x40 /home/lodge/STM32MP157/tf-a/tf-a-stm32mp/../build/optee/bl2/spi_nand.o
 .bss.nor_dev   0x000000002fffacd8       0x40 /home/lodge/STM32MP157/tf-a/tf-a-stm32mp/../build/optee/bl2/spi_nor.o
 .bss.nand_dev  0x000000002fffad18       0x30 /home/lodge/STM32MP157/tf-a/tf-a-stm32mp/../build/optee/bl2/core.o
 .bss.ddr_priv_data
                0x000000002fffad48       0x20 /home/lodge/STM32MP157/tf-a/tf-a-stm32mp/../build/optee/bl2/stm32mp1_ram.o
 .bss.mmu_cfg_params
                0x000000002fffad68       0x18 /home/lodge/STM32MP157/tf-a/tf-a-stm32mp/../build/optee/bl2/xlat_tables_context.o
                0x000000002fffad68                mmu_cfg_params
 .bss.tf_mmap   0x000000002fffad80      0x120 /home/lodge/STM32MP157/tf-a/tf-a-stm32mp/../build/optee/bl2/xlat_tables_context.o
 .bss.block_dev_count
                0x000000002fffaea0        0x4 /home/lodge/STM32MP157/tf-a/tf-a-stm32mp/../build/optee/bl2/io_block.o
 .bss.dev_info_pool
                0x000000002fffaea4        0x8 /home/lodge/STM32MP157/tf-a/tf-a-stm32mp/../build/optee/bl2/io_block.o
 .bss.current_file
                0x000000002fffaeac        0x8 /home/lodge/STM32MP157/tf-a/tf-a-stm32mp/../build/optee/bl2/io_dummy.o
 .bss.dev_info_pool
                0x000000002fffaeb4        0x8 /home/lodge/STM32MP157/tf-a/tf-a-stm32mp/../build/optee/bl2/io_mtd.o
 .bss.dev_count
                0x000000002fffaebc        0x4 /home/lodge/STM32MP157/tf-a/tf-a-stm32mp/../build/optee/bl2/io_storage.o
 .bss.entity_count
                0x000000002fffaec0        0x4 /home/lodge/STM32MP157/tf-a/tf-a-stm32mp/../build/optee/bl2/io_storage.o
 .bss.entity_map
                0x000000002fffaec4       0x10 /home/lodge/STM32MP157/tf-a/tf-a-stm32mp/../build/optee/bl2/io_storage.o
 .bss.entity_pool
                0x000000002fffaed4       0x20 /home/lodge/STM32MP157/tf-a/tf-a-stm32mp/../build/optee/bl2/io_storage.o
 .bss.stm32_hash
                0x000000002fffaef4        0xc /home/lodge/STM32MP157/tf-a/tf-a-stm32mp/../build/optee/bl2/stm32_hash.o
 .bss.stm32_remain
                0x000000002fffaf00        0x8 /home/lodge/STM32MP157/tf-a/tf-a-stm32mp/../build/optee/bl2/stm32_hash.o
 .bss.backend_dev_handle
                0x000000002fffaf08        0x4 /home/lodge/STM32MP157/tf-a/tf-a-stm32mp/../build/optee/bl2/io_stm32image.o
 .bss.backend_image_spec
                0x000000002fffaf0c        0x4 /home/lodge/STM32MP157/tf-a/tf-a-stm32mp/../build/optee/bl2/io_stm32image.o
 .bss.current_part
                0x000000002fffaf10        0x4 /home/lodge/STM32MP157/tf-a/tf-a-stm32mp/../build/optee/bl2/io_stm32image.o
 .bss.first_lba_buffer
                0x000000002fffaf14      0x200 /home/lodge/STM32MP157/tf-a/tf-a-stm32mp/../build/optee/bl2/io_stm32image.o
 .bss.stm32_img
                0x000000002fffb114        0x4 /home/lodge/STM32MP157/tf-a/tf-a-stm32mp/../build/optee/bl2/io_stm32image.o
 .bss.backup_nb.0
                0x000000002fffb118        0x4 /home/lodge/STM32MP157/tf-a/tf-a-stm32mp/../build/optee/bl2/bl2_io_storage.o
 .bss.dummy_dev_con
                0x000000002fffb11c        0x4 /home/lodge/STM32MP157/tf-a/tf-a-stm32mp/../build/optee/bl2/bl2_io_storage.o
 .bss.dummy_dev_handle
                0x000000002fffb120        0x4 /home/lodge/STM32MP157/tf-a/tf-a-stm32mp/../build/optee/bl2/bl2_io_storage.o
 .bss.image_dev_handle
                0x000000002fffb124        0x4 /home/lodge/STM32MP157/tf-a/tf-a-stm32mp/../build/optee/bl2/bl2_io_storage.o
 .bss.mmc_dev_con
                0x000000002fffb128        0x4 /home/lodge/STM32MP157/tf-a/tf-a-stm32mp/../build/optee/bl2/bl2_io_storage.o
 .bss.nand_dev_con
                0x000000002fffb12c        0x4 /home/lodge/STM32MP157/tf-a/tf-a-stm32mp/../build/optee/bl2/bl2_io_storage.o
 .bss.spi_dev_con
                0x000000002fffb130        0x4 /home/lodge/STM32MP157/tf-a/tf-a-stm32mp/../build/optee/bl2/bl2_io_storage.o
 .bss.stm32image_block_spec
                0x000000002fffb134        0x8 /home/lodge/STM32MP157/tf-a/tf-a-stm32mp/../build/optee/bl2/bl2_io_storage.o
 .bss.stm32image_dev_con
                0x000000002fffb13c        0x4 /home/lodge/STM32MP157/tf-a/tf-a-stm32mp/../build/optee/bl2/bl2_io_storage.o
 .bss.storage_dev_handle
                0x000000002fffb140        0x4 /home/lodge/STM32MP157/tf-a/tf-a-stm32mp/../build/optee/bl2/bl2_io_storage.o
 .bss.console   0x000000002fffb144       0x18 /home/lodge/STM32MP157/tf-a/tf-a-stm32mp/../build/optee/bl2/bl2_plat_setup.o
 .bss.parser_lib_descs
                0x000000002fffb15c        0x4 /home/lodge/STM32MP157/tf-a/tf-a-stm32mp/../build/optee/bl2/img_parser_mod.o
 .bss.parser_lib_indices
                0x000000002fffb160        0xc /home/lodge/STM32MP157/tf-a/tf-a-stm32mp/../build/optee/bl2/img_parser_mod.o
 .bss.auth_img_flags
                0x000000002fffb16c       0x78 /home/lodge/STM32MP157/tf-a/tf-a-stm32mp/../build/optee/bl2/stm32mp_cot.o
                0x000000002fffb16c                auth_img_flags
 .bss.auth_ops  0x000000002fffb1e4        0x8 /home/lodge/STM32MP157/tf-a/tf-a-stm32mp/../build/optee/bl2/stm32mp_crypto_lib.o
 .bss.root_pk_hash
                0x000000002fffb1ec       0x20 /home/lodge/STM32MP157/tf-a/tf-a-stm32mp/../build/optee/bl2/stm32mp_trusted_boot.o
 .bss.mmc_csd   0x000000002fffb20c       0x10 /home/lodge/STM32MP157/tf-a/tf-a-stm32mp/../build/optee/bl2/mmc.o
 .bss.mmc_dev_info
                0x000000002fffb21c        0x4 /home/lodge/STM32MP157/tf-a/tf-a-stm32mp/../build/optee/bl2/mmc.o
 .bss.mmc_flags
                0x000000002fffb220        0x4 /home/lodge/STM32MP157/tf-a/tf-a-stm32mp/../build/optee/bl2/mmc.o
 .bss.mmc_ocr_value
                0x000000002fffb224        0x4 /home/lodge/STM32MP157/tf-a/tf-a-stm32mp/../build/optee/bl2/mmc.o
 .bss.ops       0x000000002fffb228        0x4 /home/lodge/STM32MP157/tf-a/tf-a-stm32mp/../build/optee/bl2/mmc.o
 .bss.rca       0x000000002fffb22c        0x4 /home/lodge/STM32MP157/tf-a/tf-a-stm32mp/../build/optee/bl2/mmc.o
 .bss.sdmmc2_params
                0x000000002fffb230       0x3c /home/lodge/STM32MP157/tf-a/tf-a-stm32mp/../build/optee/bl2/stm32_sdmmc2.o
 .bss.rawnand_dev
                0x000000002fffb26c        0x8 /home/lodge/STM32MP157/tf-a/tf-a-stm32mp/../build/optee/bl2/raw_nand.o
 .bss.stm32_fmc2
                0x000000002fffb274       0x28 /home/lodge/STM32MP157/tf-a/tf-a-stm32mp/../build/optee/bl2/stm32_fmc2_nand.o
 .bss.spi_slave
                0x000000002fffb29c       0x10 /home/lodge/STM32MP157/tf-a/tf-a-stm32mp/../build/optee/bl2/spi_mem.o
 .bss.stm32_qspi
                0x000000002fffb2ac       0x14 /home/lodge/STM32MP157/tf-a/tf-a-stm32mp/../build/optee/bl2/stm32_qspi.o
 .bss.bl_load_info
                0x000000002fffb2c0        0xc /home/lodge/STM32MP157/tf-a/tf-a-stm32mp/../build/optee/bl2/desc_image_load.o
 .bss.next_bl_params
                0x000000002fffb2cc        0xc /home/lodge/STM32MP157/tf-a/tf-a-stm32mp/../build/optee/bl2/desc_image_load.o
 .bss.console_list
                0x000000002fffb2d8        0x4 /home/lodge/STM32MP157/tf-a/tf-a-stm32mp/../build/optee/bl2/multi_console.o
                0x000000002fffb2d8                console_list
 .bss.boot_ctx_address
                0x000000002fffb2dc        0x4 /home/lodge/STM32MP157/tf-a/tf-a-stm32mp/../build/optee/bl2/stm32mp_common.o
 .bss.latest_stm32_header
                0x000000002fffb2e0        0x4 /home/lodge/STM32MP157/tf-a/tf-a-stm32mp/../build/optee/bl2/stm32mp_common.o
 .bss.part_number.0
                0x000000002fffb2e4        0x4 /home/lodge/STM32MP157/tf-a/tf-a-stm32mp/../build/optee/bl2/stm32mp1_private.o
 .bss.tf_mapped_regions
                0x000000002fffb2e8       0x10 /home/lodge/STM32MP157/tf-a/tf-a-stm32mp/../build/optee/bl2/xlat_tables_context.o
 .bss.tzc400    0x000000002fffb2f8        0x8 /home/lodge/STM32MP157/tf-a/tf-a-stm32mp/../build/optee/bl2/tzc400.o
 .bss.timer_ops
                0x000000002fffb300        0x4 /home/lodge/STM32MP157/tf-a/tf-a-stm32mp/../build/optee/bl2/delay_timer.o
 .bss.ops       0x000000002fffb304        0xc /home/lodge/STM32MP157/tf-a/tf-a-stm32mp/../build/optee/bl2/generic_delay_timer.o
 .bss.bsec_base
                0x000000002fffb310        0x4 /home/lodge/STM32MP157/tf-a/tf-a-stm32mp/../build/optee/bl2/bsec2.o
 .bss.bsec_spinlock
                0x000000002fffb314        0x4 /home/lodge/STM32MP157/tf-a/tf-a-stm32mp/../build/optee/bl2/bsec2.o
 .bss.current_opp_khz
                0x000000002fffb318        0x4 /home/lodge/STM32MP157/tf-a/tf-a-stm32mp/../build/optee/bl2/stm32mp1_clk.o
 .bss.gate_refcounts
                0x000000002fffb31c       0xdc /home/lodge/STM32MP157/tf-a/tf-a-stm32mp/../build/optee/bl2/stm32mp1_clk.o
 .bss.pll1_settings
                0x000000002fffb3f8       0x4c /home/lodge/STM32MP157/tf-a/tf-a-stm32mp/../build/optee/bl2/stm32mp1_clk.o
 .bss.refcount_lock
                0x000000002fffb444        0x4 /home/lodge/STM32MP157/tf-a/tf-a-stm32mp/../build/optee/bl2/stm32mp1_clk.o
 .bss.reg_lock  0x000000002fffb448        0x4 /home/lodge/STM32MP157/tf-a/tf-a-stm32mp/../build/optee/bl2/stm32mp1_clk.o
 .bss.stm32mp1_osc
                0x000000002fffb44c       0x18 /home/lodge/STM32MP157/tf-a/tf-a-stm32mp/../build/optee/bl2/stm32mp1_clk.o
 .bss.stm32_iwdg
                0x000000002fffb464       0x20 /home/lodge/STM32MP157/tf-a/tf-a-stm32mp/../build/optee/bl2/stm32_iwdg.o
 .bss.i2c_handle
                0x000000002fffb484       0x24 /home/lodge/STM32MP157/tf-a/tf-a-stm32mp/../build/optee/bl2/stm32mp_pmic.o
 .bss.pmic_i2c_addr
                0x000000002fffb4a8        0x4 /home/lodge/STM32MP157/tf-a/tf-a-stm32mp/../build/optee/bl2/stm32mp_pmic.o
 .bss.pmic_i2c_handle
                0x000000002fffb4ac        0x4 /home/lodge/STM32MP157/tf-a/tf-a-stm32mp/../build/optee/bl2/stpmic1.o
 .bss.fdt_checked
                0x000000002fffb4b0        0x4 /home/lodge/STM32MP157/tf-a/tf-a-stm32mp/../build/optee/bl2/stm32mp_dt.o
 .bss.shregs_lock
                0x000000002fffb4b4        0x4 /home/lodge/STM32MP157/tf-a/tf-a-stm32mp/../build/optee/bl2/stm32mp_shres_helpers.o
 .bss.sd_switch_func_status
                0x000000002fffb4b8       0x40 /home/lodge/STM32MP157/tf-a/tf-a-stm32mp/../build/optee/bl2/mmc.o
 .bss.pmic_i2c_addr
                0x000000002fffb4f8        0x2 /home/lodge/STM32MP157/tf-a/tf-a-stm32mp/../build/optee/bl2/stpmic1.o
 .bss.wakeup_standby
                0x000000002fffb4fa        0x1 /home/lodge/STM32MP157/tf-a/tf-a-stm32mp/../build/optee/bl2/bl2_plat_setup.o
 .bss.mbr_sector
                0x000000002fffb4fb      0x200 /home/lodge/STM32MP157/tf-a/tf-a-stm32mp/../build/optee/bl2/partition.o
 .bss.next_cmd_is_acmd
                0x000000002fffb6fb        0x1 /home/lodge/STM32MP157/tf-a/tf-a-stm32mp/../build/optee/bl2/stm32_sdmmc2.o
 .bss.scratch_buff
                0x000000002fffb6fc     0x1000 /home/lodge/STM32MP157/tf-a/tf-a-stm32mp/../build/optee/bl2/core.o
 *(COMMON)
                0x000000002fffc6fc                __BSS_END__ = .

xlat_table
 *(xlat_table)
                0x000000002fffc6fc                __RW_END__ = .
                0x000000002fffc6fc                __BL2_END__ = .
                0x00000000000026fc                __BSS_SIZE__ = SIZEOF (.bss)
                0x0000000000000001                ASSERT ((. <= 0x2ffff000), BL2 image has exceeded its limit.)
LOAD /home/lodge/STM32MP157/tf-a/tf-a-stm32mp/../build/optee/bl2/build_message.o
LOAD /home/lodge/STM32MP157/tf-a/tf-a-stm32mp/../build/optee/bl2/io_block.o
LOAD /home/lodge/STM32MP157/tf-a/tf-a-stm32mp/../build/optee/bl2/io_dummy.o
LOAD /home/lodge/STM32MP157/tf-a/tf-a-stm32mp/../build/optee/bl2/io_mtd.o
LOAD /home/lodge/STM32MP157/tf-a/tf-a-stm32mp/../build/optee/bl2/io_storage.o
LOAD /home/lodge/STM32MP157/tf-a/tf-a-stm32mp/../build/optee/bl2/stm32_hash.o
LOAD /home/lodge/STM32MP157/tf-a/tf-a-stm32mp/../build/optee/bl2/io_stm32image.o
LOAD /home/lodge/STM32MP157/tf-a/tf-a-stm32mp/../build/optee/bl2/bl2_io_storage.o
LOAD /home/lodge/STM32MP157/tf-a/tf-a-stm32mp/../build/optee/bl2/bl2_plat_setup.o
LOAD /home/lodge/STM32MP157/tf-a/tf-a-stm32mp/../build/optee/bl2/auth_mod.o
LOAD /home/lodge/STM32MP157/tf-a/tf-a-stm32mp/../build/optee/bl2/crypto_mod.o
LOAD /home/lodge/STM32MP157/tf-a/tf-a-stm32mp/../build/optee/bl2/img_parser_mod.o
LOAD /home/lodge/STM32MP157/tf-a/tf-a-stm32mp/../build/optee/bl2/stm32mp_cot.o
LOAD /home/lodge/STM32MP157/tf-a/tf-a-stm32mp/../build/optee/bl2/stm32mp_crypto_lib.o
LOAD /home/lodge/STM32MP157/tf-a/tf-a-stm32mp/../build/optee/bl2/stm32mp_img_parser_lib.o
LOAD /home/lodge/STM32MP157/tf-a/tf-a-stm32mp/../build/optee/bl2/stm32mp_trusted_boot.o
LOAD /home/lodge/STM32MP157/tf-a/tf-a-stm32mp/../build/optee/bl2/mmc.o
LOAD /home/lodge/STM32MP157/tf-a/tf-a-stm32mp/../build/optee/bl2/gpt.o
LOAD /home/lodge/STM32MP157/tf-a/tf-a-stm32mp/../build/optee/bl2/partition.o
LOAD /home/lodge/STM32MP157/tf-a/tf-a-stm32mp/../build/optee/bl2/io_mmc.o
LOAD /home/lodge/STM32MP157/tf-a/tf-a-stm32mp/../build/optee/bl2/stm32_sdmmc2.o
LOAD /home/lodge/STM32MP157/tf-a/tf-a-stm32mp/../build/optee/bl2/raw_nand.o
LOAD /home/lodge/STM32MP157/tf-a/tf-a-stm32mp/../build/optee/bl2/stm32_fmc2_nand.o
LOAD /home/lodge/STM32MP157/tf-a/tf-a-stm32mp/../build/optee/bl2/spi_nand.o
LOAD /home/lodge/STM32MP157/tf-a/tf-a-stm32mp/../build/optee/bl2/spi_nor.o
LOAD /home/lodge/STM32MP157/tf-a/tf-a-stm32mp/../build/optee/bl2/spi_mem.o
LOAD /home/lodge/STM32MP157/tf-a/tf-a-stm32mp/../build/optee/bl2/stm32_qspi.o
LOAD /home/lodge/STM32MP157/tf-a/tf-a-stm32mp/../build/optee/bl2/core.o
LOAD /home/lodge/STM32MP157/tf-a/tf-a-stm32mp/../build/optee/bl2/stm32mp1_boot_device.o
LOAD /home/lodge/STM32MP157/tf-a/tf-a-stm32mp/../build/optee/bl2/stm32mp1_ddr.o
LOAD /home/lodge/STM32MP157/tf-a/tf-a-stm32mp/../build/optee/bl2/stm32mp1_ram.o
LOAD /home/lodge/STM32MP157/tf-a/tf-a-stm32mp/../build/optee/bl2/desc_image_load.o
LOAD /home/lodge/STM32MP157/tf-a/tf-a-stm32mp/../build/optee/bl2/plat_bl2_mem_params_desc.o
LOAD /home/lodge/STM32MP157/tf-a/tf-a-stm32mp/../build/optee/bl2/plat_image_load.o
LOAD /home/lodge/STM32MP157/tf-a/tf-a-stm32mp/../build/optee/bl2/optee_utils.o
LOAD /home/lodge/STM32MP157/tf-a/tf-a-stm32mp/../build/optee/bl2/bl2_image_load_v2.o
LOAD /home/lodge/STM32MP157/tf-a/tf-a-stm32mp/../build/optee/bl2/bl2_main.o
LOAD /home/lodge/STM32MP157/tf-a/tf-a-stm32mp/../build/optee/bl2/bl2_arch_setup.o
LOAD /home/lodge/STM32MP157/tf-a/tf-a-stm32mp/../build/optee/bl2/errata_report.o
LOAD /home/lodge/STM32MP157/tf-a/tf-a-stm32mp/../build/optee/bl2/bl_common.o
LOAD /home/lodge/STM32MP157/tf-a/tf-a-stm32mp/../build/optee/bl2/tf_log.o
LOAD /home/lodge/STM32MP157/tf-a/tf-a-stm32mp/../build/optee/bl2/multi_console.o
LOAD /home/lodge/STM32MP157/tf-a/tf-a-stm32mp/../build/optee/bl2/plat_bl_common.o
LOAD /home/lodge/STM32MP157/tf-a/tf-a-stm32mp/../build/optee/bl2/plat_log_common.o
LOAD /home/lodge/STM32MP157/tf-a/tf-a-stm32mp/../build/optee/bl2/plat_common.o
LOAD /home/lodge/STM32MP157/tf-a/tf-a-stm32mp/../build/optee/bl2/popcountdi2.o
LOAD /home/lodge/STM32MP157/tf-a/tf-a-stm32mp/../build/optee/bl2/popcountsi2.o
LOAD /home/lodge/STM32MP157/tf-a/tf-a-stm32mp/../build/optee/bl2/ctzdi2.o
LOAD /home/lodge/STM32MP157/tf-a/tf-a-stm32mp/../build/optee/bl2/divdi3.o
LOAD /home/lodge/STM32MP157/tf-a/tf-a-stm32mp/../build/optee/bl2/divmoddi4.o
LOAD /home/lodge/STM32MP157/tf-a/tf-a-stm32mp/../build/optee/bl2/lshrdi3.o
LOAD /home/lodge/STM32MP157/tf-a/tf-a-stm32mp/../build/optee/bl2/udivmoddi4.o
LOAD /home/lodge/STM32MP157/tf-a/tf-a-stm32mp/../build/optee/bl2/stm32mp_common.o
LOAD /home/lodge/STM32MP157/tf-a/tf-a-stm32mp/../build/optee/bl2/stm32mp1_private.o
LOAD /home/lodge/STM32MP157/tf-a/tf-a-stm32mp/../build/optee/bl2/xlat_tables_arch.o
LOAD /home/lodge/STM32MP157/tf-a/tf-a-stm32mp/../build/optee/bl2/xlat_tables_context.o
LOAD /home/lodge/STM32MP157/tf-a/tf-a-stm32mp/../build/optee/bl2/xlat_tables_core.o
LOAD /home/lodge/STM32MP157/tf-a/tf-a-stm32mp/../build/optee/bl2/xlat_tables_utils.o
LOAD /home/lodge/STM32MP157/tf-a/tf-a-stm32mp/../build/optee/bl2/tzc400.o
LOAD /home/lodge/STM32MP157/tf-a/tf-a-stm32mp/../build/optee/bl2/delay_timer.o
LOAD /home/lodge/STM32MP157/tf-a/tf-a-stm32mp/../build/optee/bl2/generic_delay_timer.o
LOAD /home/lodge/STM32MP157/tf-a/tf-a-stm32mp/../build/optee/bl2/bsec2.o
LOAD /home/lodge/STM32MP157/tf-a/tf-a-stm32mp/../build/optee/bl2/stm32mp_clkfunc.o
LOAD /home/lodge/STM32MP157/tf-a/tf-a-stm32mp/../build/optee/bl2/stm32mp1_clk.o
LOAD /home/lodge/STM32MP157/tf-a/tf-a-stm32mp/../build/optee/bl2/stm32mp1_ddr_helpers.o
LOAD /home/lodge/STM32MP157/tf-a/tf-a-stm32mp/../build/optee/bl2/stm32_gpio.o
LOAD /home/lodge/STM32MP157/tf-a/tf-a-stm32mp/../build/optee/bl2/stm32_i2c.o
LOAD /home/lodge/STM32MP157/tf-a/tf-a-stm32mp/../build/optee/bl2/stm32_iwdg.o
LOAD /home/lodge/STM32MP157/tf-a/tf-a-stm32mp/../build/optee/bl2/stm32mp_pmic.o
LOAD /home/lodge/STM32MP157/tf-a/tf-a-stm32mp/../build/optee/bl2/stpmic1.o
LOAD /home/lodge/STM32MP157/tf-a/tf-a-stm32mp/../build/optee/bl2/stm32mp_dummy_regulator.o
LOAD /home/lodge/STM32MP157/tf-a/tf-a-stm32mp/../build/optee/bl2/stm32mp_regulator.o
LOAD /home/lodge/STM32MP157/tf-a/tf-a-stm32mp/../build/optee/bl2/stm32mp1_reset.o
LOAD /home/lodge/STM32MP157/tf-a/tf-a-stm32mp/../build/optee/bl2/stm32mp_dt.o
LOAD /home/lodge/STM32MP157/tf-a/tf-a-stm32mp/../build/optee/bl2/stm32mp_shres_helpers.o
LOAD /home/lodge/STM32MP157/tf-a/tf-a-stm32mp/../build/optee/bl2/stm32mp1_context.o
LOAD /home/lodge/STM32MP157/tf-a/tf-a-stm32mp/../build/optee/bl2/stm32mp1_dbgmcu.o
LOAD /home/lodge/STM32MP157/tf-a/tf-a-stm32mp/../build/optee/bl2/stm32mp1_security.o
LOAD /home/lodge/STM32MP157/tf-a/tf-a-stm32mp/../build/optee/bl2/stm32mp1_syscfg.o
LOAD /home/lodge/STM32MP157/tf-a/tf-a-stm32mp/../build/optee/bl2/spinlock.o
LOAD /home/lodge/STM32MP157/tf-a/tf-a-stm32mp/../build/optee/bl2/platform_up_stack.o
LOAD /home/lodge/STM32MP157/tf-a/tf-a-stm32mp/../build/optee/bl2/bl2_el3_entrypoint.o
LOAD /home/lodge/STM32MP157/tf-a/tf-a-stm32mp/../build/optee/bl2/bl2_el3_exceptions.o
LOAD /home/lodge/STM32MP157/tf-a/tf-a-stm32mp/../build/optee/bl2/cpu_helpers.o
LOAD /home/lodge/STM32MP157/tf-a/tf-a-stm32mp/../build/optee/bl2/debug.o
LOAD /home/lodge/STM32MP157/tf-a/tf-a-stm32mp/../build/optee/bl2/cache_helpers.o
LOAD /home/lodge/STM32MP157/tf-a/tf-a-stm32mp/../build/optee/bl2/misc_helpers.o
LOAD /home/lodge/STM32MP157/tf-a/tf-a-stm32mp/../build/optee/bl2/platform_helpers.o
LOAD /home/lodge/STM32MP157/tf-a/tf-a-stm32mp/../build/optee/bl2/aeabi_ldivmod.o
LOAD /home/lodge/STM32MP157/tf-a/tf-a-stm32mp/../build/optee/bl2/aeabi_uldivmod.o
LOAD /home/lodge/STM32MP157/tf-a/tf-a-stm32mp/../build/optee/bl2/stm32_console.o
LOAD /home/lodge/STM32MP157/tf-a/tf-a-stm32mp/../build/optee/bl2/enable_mmu.o
LOAD /home/lodge/STM32MP157/tf-a/tf-a-stm32mp/../build/optee/bl2/cortex_a7.o
LOAD /home/lodge/STM32MP157/tf-a/tf-a-stm32mp/../build/optee/bl2/stm32mp1_helper.o
LOAD /home/lodge/STM32MP157/tf-a/tf-a-stm32mp/../build/optee/lib/libfdt.a
LOAD /home/lodge/STM32MP157/tf-a/tf-a-stm32mp/../build/optee/lib/libc.a
OUTPUT(/home/lodge/STM32MP157/tf-a/tf-a-stm32mp/../build/optee/bl2/bl2.elf elf32-littlearm)
LOAD linker stubs

.debug_info     0x0000000000000000    0x46f91
 .debug_info    0x0000000000000000       0x7b /home/lodge/STM32MP157/tf-a/tf-a-stm32mp/../build/optee/bl2/build_message.o
 .debug_info    0x000000000000007b      0xe1c /home/lodge/STM32MP157/tf-a/tf-a-stm32mp/../build/optee/bl2/io_block.o
 .debug_info    0x0000000000000e97      0x90f /home/lodge/STM32MP157/tf-a/tf-a-stm32mp/../build/optee/bl2/io_dummy.o
 .debug_info    0x00000000000017a6      0xb87 /home/lodge/STM32MP157/tf-a/tf-a-stm32mp/../build/optee/bl2/io_mtd.o
 .debug_info    0x000000000000232d     0x1014 /home/lodge/STM32MP157/tf-a/tf-a-stm32mp/../build/optee/bl2/io_storage.o
 .debug_info    0x0000000000003341     0x1080 /home/lodge/STM32MP157/tf-a/tf-a-stm32mp/../build/optee/bl2/stm32_hash.o
 .debug_info    0x00000000000043c1      0xe0a /home/lodge/STM32MP157/tf-a/tf-a-stm32mp/../build/optee/bl2/io_stm32image.o
 .debug_info    0x00000000000051cb     0x177d /home/lodge/STM32MP157/tf-a/tf-a-stm32mp/../build/optee/bl2/bl2_io_storage.o
 .debug_info    0x0000000000006948     0x1baf /home/lodge/STM32MP157/tf-a/tf-a-stm32mp/../build/optee/bl2/bl2_plat_setup.o
 .debug_info    0x00000000000084f7      0xd8c /home/lodge/STM32MP157/tf-a/tf-a-stm32mp/../build/optee/bl2/auth_mod.o
 .debug_info    0x0000000000009283      0x37a /home/lodge/STM32MP157/tf-a/tf-a-stm32mp/../build/optee/bl2/crypto_mod.o
 .debug_info    0x00000000000095fd      0x511 /home/lodge/STM32MP157/tf-a/tf-a-stm32mp/../build/optee/bl2/img_parser_mod.o
 .debug_info    0x0000000000009b0e      0x500 /home/lodge/STM32MP157/tf-a/tf-a-stm32mp/../build/optee/bl2/stm32mp_cot.o
 .debug_info    0x000000000000a00e      0xb15 /home/lodge/STM32MP157/tf-a/tf-a-stm32mp/../build/optee/bl2/stm32mp_crypto_lib.o
 .debug_info    0x000000000000ab23      0x4d4 /home/lodge/STM32MP157/tf-a/tf-a-stm32mp/../build/optee/bl2/stm32mp_img_parser_lib.o
 .debug_info    0x000000000000aff7      0x33c /home/lodge/STM32MP157/tf-a/tf-a-stm32mp/../build/optee/bl2/stm32mp_trusted_boot.o
 .debug_info    0x000000000000b333     0x1b28 /home/lodge/STM32MP157/tf-a/tf-a-stm32mp/../build/optee/bl2/mmc.o
 .debug_info    0x000000000000ce5b      0x32b /home/lodge/STM32MP157/tf-a/tf-a-stm32mp/../build/optee/bl2/gpt.o
 .debug_info    0x000000000000d186      0xb19 /home/lodge/STM32MP157/tf-a/tf-a-stm32mp/../build/optee/bl2/partition.o
 .debug_info    0x000000000000dc9f      0x766 /home/lodge/STM32MP157/tf-a/tf-a-stm32mp/../build/optee/bl2/io_mmc.o
 .debug_info    0x000000000000e405     0x22fe /home/lodge/STM32MP157/tf-a/tf-a-stm32mp/../build/optee/bl2/stm32_sdmmc2.o
 .debug_info    0x0000000000010703     0x13e4 /home/lodge/STM32MP157/tf-a/tf-a-stm32mp/../build/optee/bl2/raw_nand.o
 .debug_info    0x0000000000011ae7     0x22dc /home/lodge/STM32MP157/tf-a/tf-a-stm32mp/../build/optee/bl2/stm32_fmc2_nand.o
 .debug_info    0x0000000000013dc3      0xf3b /home/lodge/STM32MP157/tf-a/tf-a-stm32mp/../build/optee/bl2/spi_nand.o
 .debug_info    0x0000000000014cfe      0xd52 /home/lodge/STM32MP157/tf-a/tf-a-stm32mp/../build/optee/bl2/spi_nor.o
 .debug_info    0x0000000000015a50      0x883 /home/lodge/STM32MP157/tf-a/tf-a-stm32mp/../build/optee/bl2/spi_mem.o
 .debug_info    0x00000000000162d3     0x1a47 /home/lodge/STM32MP157/tf-a/tf-a-stm32mp/../build/optee/bl2/stm32_qspi.o
 .debug_info    0x0000000000017d1a      0x43c /home/lodge/STM32MP157/tf-a/tf-a-stm32mp/../build/optee/bl2/core.o
 .debug_info    0x0000000000018156      0x651 /home/lodge/STM32MP157/tf-a/tf-a-stm32mp/../build/optee/bl2/stm32mp1_boot_device.o
 .debug_info    0x00000000000187a7     0x486a /home/lodge/STM32MP157/tf-a/tf-a-stm32mp/../build/optee/bl2/stm32mp1_ddr.o
 .debug_info    0x000000000001d011     0x1ff7 /home/lodge/STM32MP157/tf-a/tf-a-stm32mp/../build/optee/bl2/stm32mp1_ram.o
 .debug_info    0x000000000001f008      0x963 /home/lodge/STM32MP157/tf-a/tf-a-stm32mp/../build/optee/bl2/desc_image_load.o
 .debug_info    0x000000000001f96b      0x3af /home/lodge/STM32MP157/tf-a/tf-a-stm32mp/../build/optee/bl2/plat_bl2_mem_params_desc.o
 .debug_info    0x000000000001fd1a      0x9c7 /home/lodge/STM32MP157/tf-a/tf-a-stm32mp/../build/optee/bl2/plat_image_load.o
 .debug_info    0x00000000000206e1      0x69d /home/lodge/STM32MP157/tf-a/tf-a-stm32mp/../build/optee/bl2/optee_utils.o
 .debug_info    0x0000000000020d7e      0x54c /home/lodge/STM32MP157/tf-a/tf-a-stm32mp/../build/optee/bl2/bl2_image_load_v2.o
 .debug_info    0x00000000000212ca      0x405 /home/lodge/STM32MP157/tf-a/tf-a-stm32mp/../build/optee/bl2/bl2_main.o
 .debug_info    0x00000000000216cf       0xba /home/lodge/STM32MP157/tf-a/tf-a-stm32mp/../build/optee/bl2/bl2_arch_setup.o
 .debug_info    0x0000000000021789      0x70e /home/lodge/STM32MP157/tf-a/tf-a-stm32mp/../build/optee/bl2/bl_common.o
 .debug_info    0x0000000000021e97      0x239 /home/lodge/STM32MP157/tf-a/tf-a-stm32mp/../build/optee/bl2/tf_log.o
 .debug_info    0x00000000000220d0      0x5d4 /home/lodge/STM32MP157/tf-a/tf-a-stm32mp/../build/optee/bl2/multi_console.o
 .debug_info    0x00000000000226a4      0x2c2 /home/lodge/STM32MP157/tf-a/tf-a-stm32mp/../build/optee/bl2/plat_bl_common.o
 .debug_info    0x0000000000022966      0x160 /home/lodge/STM32MP157/tf-a/tf-a-stm32mp/../build/optee/bl2/plat_log_common.o
 .debug_info    0x0000000000022ac6       0xe9 /home/lodge/STM32MP157/tf-a/tf-a-stm32mp/../build/optee/bl2/popcountsi2.o
 .debug_info    0x0000000000022baf      0x154 /home/lodge/STM32MP157/tf-a/tf-a-stm32mp/../build/optee/bl2/ctzdi2.o
 .debug_info    0x0000000000022d03      0x1f2 /home/lodge/STM32MP157/tf-a/tf-a-stm32mp/../build/optee/bl2/udivmoddi4.o
 .debug_info    0x0000000000022ef5      0x742 /home/lodge/STM32MP157/tf-a/tf-a-stm32mp/../build/optee/bl2/stm32mp_common.o
 .debug_info    0x0000000000023637     0x1280 /home/lodge/STM32MP157/tf-a/tf-a-stm32mp/../build/optee/bl2/stm32mp1_private.o
 .debug_info    0x00000000000248b7      0x92f /home/lodge/STM32MP157/tf-a/tf-a-stm32mp/../build/optee/bl2/xlat_tables_arch.o
 .debug_info    0x00000000000251e6      0x944 /home/lodge/STM32MP157/tf-a/tf-a-stm32mp/../build/optee/bl2/xlat_tables_context.o
 .debug_info    0x0000000000025b2a     0x1811 /home/lodge/STM32MP157/tf-a/tf-a-stm32mp/../build/optee/bl2/xlat_tables_core.o
 .debug_info    0x000000000002733b      0x9f0 /home/lodge/STM32MP157/tf-a/tf-a-stm32mp/../build/optee/bl2/xlat_tables_utils.o
 .debug_info    0x0000000000027d2b     0x12c3 /home/lodge/STM32MP157/tf-a/tf-a-stm32mp/../build/optee/bl2/tzc400.o
 .debug_info    0x0000000000028fee      0x296 /home/lodge/STM32MP157/tf-a/tf-a-stm32mp/../build/optee/bl2/delay_timer.o
 .debug_info    0x0000000000029284      0x317 /home/lodge/STM32MP157/tf-a/tf-a-stm32mp/../build/optee/bl2/generic_delay_timer.o
 .debug_info    0x000000000002959b     0x194c /home/lodge/STM32MP157/tf-a/tf-a-stm32mp/../build/optee/bl2/bsec2.o
 .debug_info    0x000000000002aee7     0x11cf /home/lodge/STM32MP157/tf-a/tf-a-stm32mp/../build/optee/bl2/stm32mp_clkfunc.o
 .debug_info    0x000000000002c0b6     0x7a6a /home/lodge/STM32MP157/tf-a/tf-a-stm32mp/../build/optee/bl2/stm32mp1_clk.o
 .debug_info    0x0000000000033b20     0x4544 /home/lodge/STM32MP157/tf-a/tf-a-stm32mp/../build/optee/bl2/stm32mp1_ddr_helpers.o
 .debug_info    0x0000000000038064     0x12aa /home/lodge/STM32MP157/tf-a/tf-a-stm32mp/../build/optee/bl2/stm32_gpio.o
 .debug_info    0x000000000003930e     0x30ee /home/lodge/STM32MP157/tf-a/tf-a-stm32mp/../build/optee/bl2/stm32_i2c.o
 .debug_info    0x000000000003c3fc      0x5f7 /home/lodge/STM32MP157/tf-a/tf-a-stm32mp/../build/optee/bl2/stm32_iwdg.o
 .debug_info    0x000000000003c9f3     0x159e /home/lodge/STM32MP157/tf-a/tf-a-stm32mp/../build/optee/bl2/stm32mp_pmic.o
 .debug_info    0x000000000003df91      0xf85 /home/lodge/STM32MP157/tf-a/tf-a-stm32mp/../build/optee/bl2/stpmic1.o
 .debug_info    0x000000000003ef16      0x145 /home/lodge/STM32MP157/tf-a/tf-a-stm32mp/../build/optee/bl2/stm32mp_dummy_regulator.o
 .debug_info    0x000000000003f05b      0x297 /home/lodge/STM32MP157/tf-a/tf-a-stm32mp/../build/optee/bl2/stm32mp_regulator.o
 .debug_info    0x000000000003f2f2      0x6de /home/lodge/STM32MP157/tf-a/tf-a-stm32mp/../build/optee/bl2/stm32mp1_reset.o
 .debug_info    0x000000000003f9d0     0x17cc /home/lodge/STM32MP157/tf-a/tf-a-stm32mp/../build/optee/bl2/stm32mp_dt.o
 .debug_info    0x000000000004119c      0x533 /home/lodge/STM32MP157/tf-a/tf-a-stm32mp/../build/optee/bl2/stm32mp_shres_helpers.o
 .debug_info    0x00000000000416cf      0x76a /home/lodge/STM32MP157/tf-a/tf-a-stm32mp/../build/optee/bl2/stm32mp1_context.o
 .debug_info    0x0000000000041e39      0x42f /home/lodge/STM32MP157/tf-a/tf-a-stm32mp/../build/optee/bl2/stm32mp1_dbgmcu.o
 .debug_info    0x0000000000042268      0x366 /home/lodge/STM32MP157/tf-a/tf-a-stm32mp/../build/optee/bl2/stm32mp1_security.o
 .debug_info    0x00000000000425ce      0x928 /home/lodge/STM32MP157/tf-a/tf-a-stm32mp/../build/optee/bl2/stm32mp1_syscfg.o
 .debug_info    0x0000000000042ef6       0x22 /home/lodge/STM32MP157/tf-a/tf-a-stm32mp/../build/optee/bl2/spinlock.o
 .debug_info    0x0000000000042f18       0x22 /home/lodge/STM32MP157/tf-a/tf-a-stm32mp/../build/optee/bl2/platform_up_stack.o
 .debug_info    0x0000000000042f3a       0x22 /home/lodge/STM32MP157/tf-a/tf-a-stm32mp/../build/optee/bl2/bl2_el3_entrypoint.o
 .debug_info    0x0000000000042f5c       0x26 /home/lodge/STM32MP157/tf-a/tf-a-stm32mp/../build/optee/bl2/bl2_el3_exceptions.o
 .debug_info    0x0000000000042f82       0x22 /home/lodge/STM32MP157/tf-a/tf-a-stm32mp/../build/optee/bl2/cpu_helpers.o
 .debug_info    0x0000000000042fa4       0x22 /home/lodge/STM32MP157/tf-a/tf-a-stm32mp/../build/optee/bl2/debug.o
 .debug_info    0x0000000000042fc6       0x22 /home/lodge/STM32MP157/tf-a/tf-a-stm32mp/../build/optee/bl2/cache_helpers.o
 .debug_info    0x0000000000042fe8       0x22 /home/lodge/STM32MP157/tf-a/tf-a-stm32mp/../build/optee/bl2/misc_helpers.o
 .debug_info    0x000000000004300a       0x26 /home/lodge/STM32MP157/tf-a/tf-a-stm32mp/../build/optee/bl2/aeabi_uldivmod.o
 .debug_info    0x0000000000043030       0x22 /home/lodge/STM32MP157/tf-a/tf-a-stm32mp/../build/optee/bl2/stm32_console.o
 .debug_info    0x0000000000043052       0x22 /home/lodge/STM32MP157/tf-a/tf-a-stm32mp/../build/optee/bl2/enable_mmu.o
 .debug_info    0x0000000000043074       0x22 /home/lodge/STM32MP157/tf-a/tf-a-stm32mp/../build/optee/bl2/cortex_a7.o
 .debug_info    0x0000000000043096       0x22 /home/lodge/STM32MP157/tf-a/tf-a-stm32mp/../build/optee/bl2/stm32mp1_helper.o
 .debug_info    0x00000000000430b8      0x7e8 /home/lodge/STM32MP157/tf-a/tf-a-stm32mp/../build/optee/lib/libfdt.a(fdt.o)
 .debug_info    0x00000000000438a0      0x260 /home/lodge/STM32MP157/tf-a/tf-a-stm32mp/../build/optee/lib/libfdt.a(fdt_addresses.o)
 .debug_info    0x0000000000043b00     0x2261 /home/lodge/STM32MP157/tf-a/tf-a-stm32mp/../build/optee/lib/libfdt.a(fdt_ro.o)
 .debug_info    0x0000000000045d61      0x18d /home/lodge/STM32MP157/tf-a/tf-a-stm32mp/../build/optee/lib/libc.a(assert.o)
 .debug_info    0x0000000000045eee       0xc9 /home/lodge/STM32MP157/tf-a/tf-a-stm32mp/../build/optee/lib/libc.a(memchr.o)
 .debug_info    0x0000000000045fb7       0xff /home/lodge/STM32MP157/tf-a/tf-a-stm32mp/../build/optee/lib/libc.a(memcmp.o)
 .debug_info    0x00000000000460b6       0xd6 /home/lodge/STM32MP157/tf-a/tf-a-stm32mp/../build/optee/lib/libc.a(memcpy.o)
 .debug_info    0x000000000004618c      0x11e /home/lodge/STM32MP157/tf-a/tf-a-stm32mp/../build/optee/lib/libc.a(memmove.o)
 .debug_info    0x00000000000462aa       0xb5 /home/lodge/STM32MP157/tf-a/tf-a-stm32mp/../build/optee/lib/libc.a(memset.o)
 .debug_info    0x000000000004635f      0x48d /home/lodge/STM32MP157/tf-a/tf-a-stm32mp/../build/optee/lib/libc.a(printf.o)
 .debug_info    0x00000000000467ec       0xcb /home/lodge/STM32MP157/tf-a/tf-a-stm32mp/../build/optee/lib/libc.a(putchar.o)
 .debug_info    0x00000000000468b7      0x32a /home/lodge/STM32MP157/tf-a/tf-a-stm32mp/../build/optee/lib/libc.a(snprintf.o)
 .debug_info    0x0000000000046be1       0xa5 /home/lodge/STM32MP157/tf-a/tf-a-stm32mp/../build/optee/lib/libc.a(strchr.o)
 .debug_info    0x0000000000046c86       0x87 /home/lodge/STM32MP157/tf-a/tf-a-stm32mp/../build/optee/lib/libc.a(strcmp.o)
 .debug_info    0x0000000000046d0d       0x8c /home/lodge/STM32MP157/tf-a/tf-a-stm32mp/../build/optee/lib/libc.a(strlen.o)
 .debug_info    0x0000000000046d99       0xa5 /home/lodge/STM32MP157/tf-a/tf-a-stm32mp/../build/optee/lib/libc.a(strncmp.o)
 .debug_info    0x0000000000046e3e       0x9a /home/lodge/STM32MP157/tf-a/tf-a-stm32mp/../build/optee/lib/libc.a(strnlen.o)
 .debug_info    0x0000000000046ed8       0xb9 /home/lodge/STM32MP157/tf-a/tf-a-stm32mp/../build/optee/lib/libc.a(strrchr.o)

.debug_abbrev   0x0000000000000000     0xcb05
 .debug_abbrev  0x0000000000000000       0x45 /home/lodge/STM32MP157/tf-a/tf-a-stm32mp/../build/optee/bl2/build_message.o
 .debug_abbrev  0x0000000000000045      0x301 /home/lodge/STM32MP157/tf-a/tf-a-stm32mp/../build/optee/bl2/io_block.o
 .debug_abbrev  0x0000000000000346      0x234 /home/lodge/STM32MP157/tf-a/tf-a-stm32mp/../build/optee/bl2/io_dummy.o
 .debug_abbrev  0x000000000000057a      0x282 /home/lodge/STM32MP157/tf-a/tf-a-stm32mp/../build/optee/bl2/io_mtd.o
 .debug_abbrev  0x00000000000007fc      0x343 /home/lodge/STM32MP157/tf-a/tf-a-stm32mp/../build/optee/bl2/io_storage.o
 .debug_abbrev  0x0000000000000b3f      0x3f3 /home/lodge/STM32MP157/tf-a/tf-a-stm32mp/../build/optee/bl2/stm32_hash.o
 .debug_abbrev  0x0000000000000f32      0x32d /home/lodge/STM32MP157/tf-a/tf-a-stm32mp/../build/optee/bl2/io_stm32image.o
 .debug_abbrev  0x000000000000125f      0x32d /home/lodge/STM32MP157/tf-a/tf-a-stm32mp/../build/optee/bl2/bl2_io_storage.o
 .debug_abbrev  0x000000000000158c      0x404 /home/lodge/STM32MP157/tf-a/tf-a-stm32mp/../build/optee/bl2/bl2_plat_setup.o
 .debug_abbrev  0x0000000000001990      0x326 /home/lodge/STM32MP157/tf-a/tf-a-stm32mp/../build/optee/bl2/auth_mod.o
 .debug_abbrev  0x0000000000001cb6      0x164 /home/lodge/STM32MP157/tf-a/tf-a-stm32mp/../build/optee/bl2/crypto_mod.o
 .debug_abbrev  0x0000000000001e1a      0x1ff /home/lodge/STM32MP157/tf-a/tf-a-stm32mp/../build/optee/bl2/img_parser_mod.o
 .debug_abbrev  0x0000000000002019      0x12f /home/lodge/STM32MP157/tf-a/tf-a-stm32mp/../build/optee/bl2/stm32mp_cot.o
 .debug_abbrev  0x0000000000002148      0x25b /home/lodge/STM32MP157/tf-a/tf-a-stm32mp/../build/optee/bl2/stm32mp_crypto_lib.o
 .debug_abbrev  0x00000000000023a3      0x1d4 /home/lodge/STM32MP157/tf-a/tf-a-stm32mp/../build/optee/bl2/stm32mp_img_parser_lib.o
 .debug_abbrev  0x0000000000002577      0x19b /home/lodge/STM32MP157/tf-a/tf-a-stm32mp/../build/optee/bl2/stm32mp_trusted_boot.o
 .debug_abbrev  0x0000000000002712      0x48c /home/lodge/STM32MP157/tf-a/tf-a-stm32mp/../build/optee/bl2/mmc.o
 .debug_abbrev  0x0000000000002b9e      0x175 /home/lodge/STM32MP157/tf-a/tf-a-stm32mp/../build/optee/bl2/gpt.o
 .debug_abbrev  0x0000000000002d13      0x274 /home/lodge/STM32MP157/tf-a/tf-a-stm32mp/../build/optee/bl2/partition.o
 .debug_abbrev  0x0000000000002f87      0x214 /home/lodge/STM32MP157/tf-a/tf-a-stm32mp/../build/optee/bl2/io_mmc.o
 .debug_abbrev  0x000000000000319b      0x4e0 /home/lodge/STM32MP157/tf-a/tf-a-stm32mp/../build/optee/bl2/stm32_sdmmc2.o
 .debug_abbrev  0x000000000000367b      0x409 /home/lodge/STM32MP157/tf-a/tf-a-stm32mp/../build/optee/bl2/raw_nand.o
 .debug_abbrev  0x0000000000003a84      0x500 /home/lodge/STM32MP157/tf-a/tf-a-stm32mp/../build/optee/bl2/stm32_fmc2_nand.o
 .debug_abbrev  0x0000000000003f84      0x373 /home/lodge/STM32MP157/tf-a/tf-a-stm32mp/../build/optee/bl2/spi_nand.o
 .debug_abbrev  0x00000000000042f7      0x3c8 /home/lodge/STM32MP157/tf-a/tf-a-stm32mp/../build/optee/bl2/spi_nor.o
 .debug_abbrev  0x00000000000046bf      0x2b0 /home/lodge/STM32MP157/tf-a/tf-a-stm32mp/../build/optee/bl2/spi_mem.o
 .debug_abbrev  0x000000000000496f      0x473 /home/lodge/STM32MP157/tf-a/tf-a-stm32mp/../build/optee/bl2/stm32_qspi.o
 .debug_abbrev  0x0000000000004de2      0x1cd /home/lodge/STM32MP157/tf-a/tf-a-stm32mp/../build/optee/bl2/core.o
 .debug_abbrev  0x0000000000004faf      0x1cc /home/lodge/STM32MP157/tf-a/tf-a-stm32mp/../build/optee/bl2/stm32mp1_boot_device.o
 .debug_abbrev  0x000000000000517b      0x3d7 /home/lodge/STM32MP157/tf-a/tf-a-stm32mp/../build/optee/bl2/stm32mp1_ddr.o
 .debug_abbrev  0x0000000000005552      0x363 /home/lodge/STM32MP157/tf-a/tf-a-stm32mp/../build/optee/bl2/stm32mp1_ram.o
 .debug_abbrev  0x00000000000058b5      0x2b0 /home/lodge/STM32MP157/tf-a/tf-a-stm32mp/../build/optee/bl2/desc_image_load.o
 .debug_abbrev  0x0000000000005b65       0xdd /home/lodge/STM32MP157/tf-a/tf-a-stm32mp/../build/optee/bl2/plat_bl2_mem_params_desc.o
 .debug_abbrev  0x0000000000005c42      0x1ff /home/lodge/STM32MP157/tf-a/tf-a-stm32mp/../build/optee/bl2/plat_image_load.o
 .debug_abbrev  0x0000000000005e41      0x18a /home/lodge/STM32MP157/tf-a/tf-a-stm32mp/../build/optee/bl2/optee_utils.o
 .debug_abbrev  0x0000000000005fcb      0x13e /home/lodge/STM32MP157/tf-a/tf-a-stm32mp/../build/optee/bl2/bl2_image_load_v2.o
 .debug_abbrev  0x0000000000006109      0x14f /home/lodge/STM32MP157/tf-a/tf-a-stm32mp/../build/optee/bl2/bl2_main.o
 .debug_abbrev  0x0000000000006258       0x69 /home/lodge/STM32MP157/tf-a/tf-a-stm32mp/../build/optee/bl2/bl2_arch_setup.o
 .debug_abbrev  0x00000000000062c1      0x232 /home/lodge/STM32MP157/tf-a/tf-a-stm32mp/../build/optee/bl2/bl_common.o
 .debug_abbrev  0x00000000000064f3      0x14b /home/lodge/STM32MP157/tf-a/tf-a-stm32mp/../build/optee/bl2/tf_log.o
 .debug_abbrev  0x000000000000663e      0x284 /home/lodge/STM32MP157/tf-a/tf-a-stm32mp/../build/optee/bl2/multi_console.o
 .debug_abbrev  0x00000000000068c2      0x1ce /home/lodge/STM32MP157/tf-a/tf-a-stm32mp/../build/optee/bl2/plat_bl_common.o
 .debug_abbrev  0x0000000000006a90       0xd0 /home/lodge/STM32MP157/tf-a/tf-a-stm32mp/../build/optee/bl2/plat_log_common.o
 .debug_abbrev  0x0000000000006b60       0x7d /home/lodge/STM32MP157/tf-a/tf-a-stm32mp/../build/optee/bl2/popcountsi2.o
 .debug_abbrev  0x0000000000006bdd       0xe2 /home/lodge/STM32MP157/tf-a/tf-a-stm32mp/../build/optee/bl2/ctzdi2.o
 .debug_abbrev  0x0000000000006cbf      0x11b /home/lodge/STM32MP157/tf-a/tf-a-stm32mp/../build/optee/bl2/udivmoddi4.o
 .debug_abbrev  0x0000000000006dda      0x275 /home/lodge/STM32MP157/tf-a/tf-a-stm32mp/../build/optee/bl2/stm32mp_common.o
 .debug_abbrev  0x000000000000704f      0x447 /home/lodge/STM32MP157/tf-a/tf-a-stm32mp/../build/optee/bl2/stm32mp1_private.o
 .debug_abbrev  0x0000000000007496      0x2fb /home/lodge/STM32MP157/tf-a/tf-a-stm32mp/../build/optee/bl2/xlat_tables_arch.o
 .debug_abbrev  0x0000000000007791      0x1eb /home/lodge/STM32MP157/tf-a/tf-a-stm32mp/../build/optee/bl2/xlat_tables_context.o
 .debug_abbrev  0x000000000000797c      0x445 /home/lodge/STM32MP157/tf-a/tf-a-stm32mp/../build/optee/bl2/xlat_tables_core.o
 .debug_abbrev  0x0000000000007dc1      0x29e /home/lodge/STM32MP157/tf-a/tf-a-stm32mp/../build/optee/bl2/xlat_tables_utils.o
 .debug_abbrev  0x000000000000805f      0x290 /home/lodge/STM32MP157/tf-a/tf-a-stm32mp/../build/optee/bl2/tzc400.o
 .debug_abbrev  0x00000000000082ef      0x158 /home/lodge/STM32MP157/tf-a/tf-a-stm32mp/../build/optee/bl2/delay_timer.o
 .debug_abbrev  0x0000000000008447      0x223 /home/lodge/STM32MP157/tf-a/tf-a-stm32mp/../build/optee/bl2/generic_delay_timer.o
 .debug_abbrev  0x000000000000866a      0x3f1 /home/lodge/STM32MP157/tf-a/tf-a-stm32mp/../build/optee/bl2/bsec2.o
 .debug_abbrev  0x0000000000008a5b      0x331 /home/lodge/STM32MP157/tf-a/tf-a-stm32mp/../build/optee/bl2/stm32mp_clkfunc.o
 .debug_abbrev  0x0000000000008d8c      0x565 /home/lodge/STM32MP157/tf-a/tf-a-stm32mp/../build/optee/bl2/stm32mp1_clk.o
 .debug_abbrev  0x00000000000092f1      0x3ac /home/lodge/STM32MP157/tf-a/tf-a-stm32mp/../build/optee/bl2/stm32mp1_ddr_helpers.o
 .debug_abbrev  0x000000000000969d      0x310 /home/lodge/STM32MP157/tf-a/tf-a-stm32mp/../build/optee/bl2/stm32_gpio.o
 .debug_abbrev  0x00000000000099ad      0x3e7 /home/lodge/STM32MP157/tf-a/tf-a-stm32mp/../build/optee/bl2/stm32_i2c.o
 .debug_abbrev  0x0000000000009d94      0x232 /home/lodge/STM32MP157/tf-a/tf-a-stm32mp/../build/optee/bl2/stm32_iwdg.o
 .debug_abbrev  0x0000000000009fc6      0x3e8 /home/lodge/STM32MP157/tf-a/tf-a-stm32mp/../build/optee/bl2/stm32mp_pmic.o
 .debug_abbrev  0x000000000000a3ae      0x210 /home/lodge/STM32MP157/tf-a/tf-a-stm32mp/../build/optee/bl2/stpmic1.o
 .debug_abbrev  0x000000000000a5be      0x110 /home/lodge/STM32MP157/tf-a/tf-a-stm32mp/../build/optee/bl2/stm32mp_dummy_regulator.o
 .debug_abbrev  0x000000000000a6ce      0x15e /home/lodge/STM32MP157/tf-a/tf-a-stm32mp/../build/optee/bl2/stm32mp_regulator.o
 .debug_abbrev  0x000000000000a82c      0x1b8 /home/lodge/STM32MP157/tf-a/tf-a-stm32mp/../build/optee/bl2/stm32mp1_reset.o
 .debug_abbrev  0x000000000000a9e4      0x37f /home/lodge/STM32MP157/tf-a/tf-a-stm32mp/../build/optee/bl2/stm32mp_dt.o
 .debug_abbrev  0x000000000000ad63      0x1b6 /home/lodge/STM32MP157/tf-a/tf-a-stm32mp/../build/optee/bl2/stm32mp_shres_helpers.o
 .debug_abbrev  0x000000000000af19      0x2b3 /home/lodge/STM32MP157/tf-a/tf-a-stm32mp/../build/optee/bl2/stm32mp1_context.o
 .debug_abbrev  0x000000000000b1cc      0x1d9 /home/lodge/STM32MP157/tf-a/tf-a-stm32mp/../build/optee/bl2/stm32mp1_dbgmcu.o
 .debug_abbrev  0x000000000000b3a5      0x12e /home/lodge/STM32MP157/tf-a/tf-a-stm32mp/../build/optee/bl2/stm32mp1_security.o
 .debug_abbrev  0x000000000000b4d3      0x1c1 /home/lodge/STM32MP157/tf-a/tf-a-stm32mp/../build/optee/bl2/stm32mp1_syscfg.o
 .debug_abbrev  0x000000000000b694       0x12 /home/lodge/STM32MP157/tf-a/tf-a-stm32mp/../build/optee/bl2/spinlock.o
 .debug_abbrev  0x000000000000b6a6       0x12 /home/lodge/STM32MP157/tf-a/tf-a-stm32mp/../build/optee/bl2/platform_up_stack.o
 .debug_abbrev  0x000000000000b6b8       0x12 /home/lodge/STM32MP157/tf-a/tf-a-stm32mp/../build/optee/bl2/bl2_el3_entrypoint.o
 .debug_abbrev  0x000000000000b6ca       0x14 /home/lodge/STM32MP157/tf-a/tf-a-stm32mp/../build/optee/bl2/bl2_el3_exceptions.o
 .debug_abbrev  0x000000000000b6de       0x12 /home/lodge/STM32MP157/tf-a/tf-a-stm32mp/../build/optee/bl2/cpu_helpers.o
 .debug_abbrev  0x000000000000b6f0       0x12 /home/lodge/STM32MP157/tf-a/tf-a-stm32mp/../build/optee/bl2/debug.o
 .debug_abbrev  0x000000000000b702       0x12 /home/lodge/STM32MP157/tf-a/tf-a-stm32mp/../build/optee/bl2/cache_helpers.o
 .debug_abbrev  0x000000000000b714       0x12 /home/lodge/STM32MP157/tf-a/tf-a-stm32mp/../build/optee/bl2/misc_helpers.o
 .debug_abbrev  0x000000000000b726       0x14 /home/lodge/STM32MP157/tf-a/tf-a-stm32mp/../build/optee/bl2/aeabi_uldivmod.o
 .debug_abbrev  0x000000000000b73a       0x12 /home/lodge/STM32MP157/tf-a/tf-a-stm32mp/../build/optee/bl2/stm32_console.o
 .debug_abbrev  0x000000000000b74c       0x12 /home/lodge/STM32MP157/tf-a/tf-a-stm32mp/../build/optee/bl2/enable_mmu.o
 .debug_abbrev  0x000000000000b75e       0x12 /home/lodge/STM32MP157/tf-a/tf-a-stm32mp/../build/optee/bl2/cortex_a7.o
 .debug_abbrev  0x000000000000b770       0x12 /home/lodge/STM32MP157/tf-a/tf-a-stm32mp/../build/optee/bl2/stm32mp1_helper.o
 .debug_abbrev  0x000000000000b782      0x213 /home/lodge/STM32MP157/tf-a/tf-a-stm32mp/../build/optee/lib/libfdt.a(fdt.o)
 .debug_abbrev  0x000000000000b995      0x12b /home/lodge/STM32MP157/tf-a/tf-a-stm32mp/../build/optee/lib/libfdt.a(fdt_addresses.o)
 .debug_abbrev  0x000000000000bac0      0x403 /home/lodge/STM32MP157/tf-a/tf-a-stm32mp/../build/optee/lib/libfdt.a(fdt_ro.o)
 .debug_abbrev  0x000000000000bec3       0xe5 /home/lodge/STM32MP157/tf-a/tf-a-stm32mp/../build/optee/lib/libc.a(assert.o)
 .debug_abbrev  0x000000000000bfa8       0x9b /home/lodge/STM32MP157/tf-a/tf-a-stm32mp/../build/optee/lib/libc.a(memchr.o)
 .debug_abbrev  0x000000000000c043       0x94 /home/lodge/STM32MP157/tf-a/tf-a-stm32mp/../build/optee/lib/libc.a(memcmp.o)
 .debug_abbrev  0x000000000000c0d7       0xa1 /home/lodge/STM32MP157/tf-a/tf-a-stm32mp/../build/optee/lib/libc.a(memcpy.o)
 .debug_abbrev  0x000000000000c178       0xc6 /home/lodge/STM32MP157/tf-a/tf-a-stm32mp/../build/optee/lib/libc.a(memmove.o)
 .debug_abbrev  0x000000000000c23e       0xa0 /home/lodge/STM32MP157/tf-a/tf-a-stm32mp/../build/optee/lib/libc.a(memset.o)
 .debug_abbrev  0x000000000000c2de      0x264 /home/lodge/STM32MP157/tf-a/tf-a-stm32mp/../build/optee/lib/libc.a(printf.o)
 .debug_abbrev  0x000000000000c542       0x95 /home/lodge/STM32MP157/tf-a/tf-a-stm32mp/../build/optee/lib/libc.a(putchar.o)
 .debug_abbrev  0x000000000000c5d7      0x21a /home/lodge/STM32MP157/tf-a/tf-a-stm32mp/../build/optee/lib/libc.a(snprintf.o)
 .debug_abbrev  0x000000000000c7f1       0x80 /home/lodge/STM32MP157/tf-a/tf-a-stm32mp/../build/optee/lib/libc.a(strchr.o)
 .debug_abbrev  0x000000000000c871       0x6c /home/lodge/STM32MP157/tf-a/tf-a-stm32mp/../build/optee/lib/libc.a(strcmp.o)
 .debug_abbrev  0x000000000000c8dd       0x84 /home/lodge/STM32MP157/tf-a/tf-a-stm32mp/../build/optee/lib/libc.a(strlen.o)
 .debug_abbrev  0x000000000000c961       0x7b /home/lodge/STM32MP157/tf-a/tf-a-stm32mp/../build/optee/lib/libc.a(strncmp.o)
 .debug_abbrev  0x000000000000c9dc       0x95 /home/lodge/STM32MP157/tf-a/tf-a-stm32mp/../build/optee/lib/libc.a(strnlen.o)
 .debug_abbrev  0x000000000000ca71       0x94 /home/lodge/STM32MP157/tf-a/tf-a-stm32mp/../build/optee/lib/libc.a(strrchr.o)

.debug_aranges  0x0000000000000000     0x1f38
 .debug_aranges
                0x0000000000000000       0x18 /home/lodge/STM32MP157/tf-a/tf-a-stm32mp/../build/optee/bl2/build_message.o
 .debug_aranges
                0x0000000000000018       0x60 /home/lodge/STM32MP157/tf-a/tf-a-stm32mp/../build/optee/bl2/io_block.o
 .debug_aranges
                0x0000000000000078       0x58 /home/lodge/STM32MP157/tf-a/tf-a-stm32mp/../build/optee/bl2/io_dummy.o
 .debug_aranges
                0x00000000000000d0       0x58 /home/lodge/STM32MP157/tf-a/tf-a-stm32mp/../build/optee/bl2/io_mtd.o
 .debug_aranges
                0x0000000000000128       0x80 /home/lodge/STM32MP157/tf-a/tf-a-stm32mp/../build/optee/bl2/io_storage.o
 .debug_aranges
                0x00000000000001a8       0x48 /home/lodge/STM32MP157/tf-a/tf-a-stm32mp/../build/optee/bl2/stm32_hash.o
 .debug_aranges
                0x00000000000001f0       0x60 /home/lodge/STM32MP157/tf-a/tf-a-stm32mp/../build/optee/bl2/io_stm32image.o
 .debug_aranges
                0x0000000000000250       0x50 /home/lodge/STM32MP157/tf-a/tf-a-stm32mp/../build/optee/bl2/bl2_io_storage.o
 .debug_aranges
                0x00000000000002a0       0x40 /home/lodge/STM32MP157/tf-a/tf-a-stm32mp/../build/optee/bl2/bl2_plat_setup.o
 .debug_aranges
                0x00000000000002e0       0x40 /home/lodge/STM32MP157/tf-a/tf-a-stm32mp/../build/optee/bl2/auth_mod.o
 .debug_aranges
                0x0000000000000320       0x30 /home/lodge/STM32MP157/tf-a/tf-a-stm32mp/../build/optee/bl2/crypto_mod.o
 .debug_aranges
                0x0000000000000350       0x30 /home/lodge/STM32MP157/tf-a/tf-a-stm32mp/../build/optee/bl2/img_parser_mod.o
 .debug_aranges
                0x0000000000000380       0x18 /home/lodge/STM32MP157/tf-a/tf-a-stm32mp/../build/optee/bl2/stm32mp_cot.o
 .debug_aranges
                0x0000000000000398       0x30 /home/lodge/STM32MP157/tf-a/tf-a-stm32mp/../build/optee/bl2/stm32mp_crypto_lib.o
 .debug_aranges
                0x00000000000003c8       0x30 /home/lodge/STM32MP157/tf-a/tf-a-stm32mp/../build/optee/bl2/stm32mp_img_parser_lib.o
 .debug_aranges
                0x00000000000003f8       0x30 /home/lodge/STM32MP157/tf-a/tf-a-stm32mp/../build/optee/bl2/stm32mp_trusted_boot.o
 .debug_aranges
                0x0000000000000428       0x78 /home/lodge/STM32MP157/tf-a/tf-a-stm32mp/../build/optee/bl2/mmc.o
 .debug_aranges
                0x00000000000004a0       0x20 /home/lodge/STM32MP157/tf-a/tf-a-stm32mp/../build/optee/bl2/gpt.o
 .debug_aranges
                0x00000000000004c0       0x38 /home/lodge/STM32MP157/tf-a/tf-a-stm32mp/../build/optee/bl2/partition.o
 .debug_aranges
                0x00000000000004f8       0x58 /home/lodge/STM32MP157/tf-a/tf-a-stm32mp/../build/optee/bl2/io_mmc.o
 .debug_aranges
                0x0000000000000550       0x80 /home/lodge/STM32MP157/tf-a/tf-a-stm32mp/../build/optee/bl2/stm32_sdmmc2.o
 .debug_aranges
                0x00000000000005d0       0x80 /home/lodge/STM32MP157/tf-a/tf-a-stm32mp/../build/optee/bl2/raw_nand.o
 .debug_aranges
                0x0000000000000650       0x50 /home/lodge/STM32MP157/tf-a/tf-a-stm32mp/../build/optee/bl2/stm32_fmc2_nand.o
 .debug_aranges
                0x00000000000006a0       0x58 /home/lodge/STM32MP157/tf-a/tf-a-stm32mp/../build/optee/bl2/spi_nand.o
 .debug_aranges
                0x00000000000006f8       0x58 /home/lodge/STM32MP157/tf-a/tf-a-stm32mp/../build/optee/bl2/spi_nor.o
 .debug_aranges
                0x0000000000000750       0x38 /home/lodge/STM32MP157/tf-a/tf-a-stm32mp/../build/optee/bl2/spi_mem.o
 .debug_aranges
                0x0000000000000788       0x60 /home/lodge/STM32MP157/tf-a/tf-a-stm32mp/../build/optee/bl2/stm32_qspi.o
 .debug_aranges
                0x00000000000007e8       0x28 /home/lodge/STM32MP157/tf-a/tf-a-stm32mp/../build/optee/bl2/core.o
 .debug_aranges
                0x0000000000000810       0x38 /home/lodge/STM32MP157/tf-a/tf-a-stm32mp/../build/optee/bl2/stm32mp1_boot_device.o
 .debug_aranges
                0x0000000000000848       0x50 /home/lodge/STM32MP157/tf-a/tf-a-stm32mp/../build/optee/bl2/stm32mp1_ddr.o
 .debug_aranges
                0x0000000000000898       0x30 /home/lodge/STM32MP157/tf-a/tf-a-stm32mp/../build/optee/bl2/stm32mp1_ram.o
 .debug_aranges
                0x00000000000008c8       0x58 /home/lodge/STM32MP157/tf-a/tf-a-stm32mp/../build/optee/bl2/desc_image_load.o
 .debug_aranges
                0x0000000000000920       0x18 /home/lodge/STM32MP157/tf-a/tf-a-stm32mp/../build/optee/bl2/plat_bl2_mem_params_desc.o
 .debug_aranges
                0x0000000000000938       0x30 /home/lodge/STM32MP157/tf-a/tf-a-stm32mp/../build/optee/bl2/plat_image_load.o
 .debug_aranges
                0x0000000000000968       0x38 /home/lodge/STM32MP157/tf-a/tf-a-stm32mp/../build/optee/bl2/optee_utils.o
 .debug_aranges
                0x00000000000009a0       0x20 /home/lodge/STM32MP157/tf-a/tf-a-stm32mp/../build/optee/bl2/bl2_image_load_v2.o
 .debug_aranges
                0x00000000000009c0       0x28 /home/lodge/STM32MP157/tf-a/tf-a-stm32mp/../build/optee/bl2/bl2_main.o
 .debug_aranges
                0x00000000000009e8       0x20 /home/lodge/STM32MP157/tf-a/tf-a-stm32mp/../build/optee/bl2/bl2_arch_setup.o
 .debug_aranges
                0x0000000000000a08       0x38 /home/lodge/STM32MP157/tf-a/tf-a-stm32mp/../build/optee/bl2/bl_common.o
 .debug_aranges
                0x0000000000000a40       0x28 /home/lodge/STM32MP157/tf-a/tf-a-stm32mp/../build/optee/bl2/tf_log.o
 .debug_aranges
                0x0000000000000a68       0x58 /home/lodge/STM32MP157/tf-a/tf-a-stm32mp/../build/optee/bl2/multi_console.o
 .debug_aranges
                0x0000000000000ac0       0x38 /home/lodge/STM32MP157/tf-a/tf-a-stm32mp/../build/optee/bl2/plat_bl_common.o
 .debug_aranges
                0x0000000000000af8       0x20 /home/lodge/STM32MP157/tf-a/tf-a-stm32mp/../build/optee/bl2/plat_log_common.o
 .debug_aranges
                0x0000000000000b18       0x20 /home/lodge/STM32MP157/tf-a/tf-a-stm32mp/../build/optee/bl2/popcountsi2.o
 .debug_aranges
                0x0000000000000b38       0x20 /home/lodge/STM32MP157/tf-a/tf-a-stm32mp/../build/optee/bl2/ctzdi2.o
 .debug_aranges
                0x0000000000000b58       0x20 /home/lodge/STM32MP157/tf-a/tf-a-stm32mp/../build/optee/bl2/udivmoddi4.o
 .debug_aranges
                0x0000000000000b78       0xb0 /home/lodge/STM32MP157/tf-a/tf-a-stm32mp/../build/optee/bl2/stm32mp_common.o
 .debug_aranges
                0x0000000000000c28       0xb8 /home/lodge/STM32MP157/tf-a/tf-a-stm32mp/../build/optee/bl2/stm32mp1_private.o
 .debug_aranges
                0x0000000000000ce0       0x70 /home/lodge/STM32MP157/tf-a/tf-a-stm32mp/../build/optee/bl2/xlat_tables_arch.o
 .debug_aranges
                0x0000000000000d50       0x78 /home/lodge/STM32MP157/tf-a/tf-a-stm32mp/../build/optee/bl2/xlat_tables_context.o
 .debug_aranges
                0x0000000000000dc8       0x90 /home/lodge/STM32MP157/tf-a/tf-a-stm32mp/../build/optee/bl2/xlat_tables_core.o
 .debug_aranges
                0x0000000000000e58       0x40 /home/lodge/STM32MP157/tf-a/tf-a-stm32mp/../build/optee/bl2/xlat_tables_utils.o
 .debug_aranges
                0x0000000000000e98       0x60 /home/lodge/STM32MP157/tf-a/tf-a-stm32mp/../build/optee/bl2/tzc400.o
 .debug_aranges
                0x0000000000000ef8       0x30 /home/lodge/STM32MP157/tf-a/tf-a-stm32mp/../build/optee/bl2/delay_timer.o
 .debug_aranges
                0x0000000000000f28       0x30 /home/lodge/STM32MP157/tf-a/tf-a-stm32mp/../build/optee/bl2/generic_delay_timer.o
 .debug_aranges
                0x0000000000000f58      0x120 /home/lodge/STM32MP157/tf-a/tf-a-stm32mp/../build/optee/bl2/bsec2.o
 .debug_aranges
                0x0000000000001078       0xa8 /home/lodge/STM32MP157/tf-a/tf-a-stm32mp/../build/optee/bl2/stm32mp_clkfunc.o
 .debug_aranges
                0x0000000000001120      0x1c0 /home/lodge/STM32MP157/tf-a/tf-a-stm32mp/../build/optee/bl2/stm32mp1_clk.o
 .debug_aranges
                0x00000000000012e0       0x68 /home/lodge/STM32MP157/tf-a/tf-a-stm32mp/../build/optee/bl2/stm32mp1_ddr_helpers.o
 .debug_aranges
                0x0000000000001348       0x38 /home/lodge/STM32MP157/tf-a/tf-a-stm32mp/../build/optee/bl2/stm32_gpio.o
 .debug_aranges
                0x0000000000001380       0x88 /home/lodge/STM32MP157/tf-a/tf-a-stm32mp/../build/optee/bl2/stm32_i2c.o
 .debug_aranges
                0x0000000000001408       0x28 /home/lodge/STM32MP157/tf-a/tf-a-stm32mp/../build/optee/bl2/stm32_iwdg.o
 .debug_aranges
                0x0000000000001430       0xa8 /home/lodge/STM32MP157/tf-a/tf-a-stm32mp/../build/optee/bl2/stm32mp_pmic.o
 .debug_aranges
                0x00000000000014d8       0xc0 /home/lodge/STM32MP157/tf-a/tf-a-stm32mp/../build/optee/bl2/stpmic1.o
 .debug_aranges
                0x0000000000001598       0x28 /home/lodge/STM32MP157/tf-a/tf-a-stm32mp/../build/optee/bl2/stm32mp_dummy_regulator.o
 .debug_aranges
                0x00000000000015c0       0x38 /home/lodge/STM32MP157/tf-a/tf-a-stm32mp/../build/optee/bl2/stm32mp_regulator.o
 .debug_aranges
                0x00000000000015f8       0x28 /home/lodge/STM32MP157/tf-a/tf-a-stm32mp/../build/optee/bl2/stm32mp1_reset.o
 .debug_aranges
                0x0000000000001620       0xe8 /home/lodge/STM32MP157/tf-a/tf-a-stm32mp/../build/optee/bl2/stm32mp_dt.o
 .debug_aranges
                0x0000000000001708       0x40 /home/lodge/STM32MP157/tf-a/tf-a-stm32mp/../build/optee/bl2/stm32mp_shres_helpers.o
 .debug_aranges
                0x0000000000001748       0x50 /home/lodge/STM32MP157/tf-a/tf-a-stm32mp/../build/optee/bl2/stm32mp1_context.o
 .debug_aranges
                0x0000000000001798       0x38 /home/lodge/STM32MP157/tf-a/tf-a-stm32mp/../build/optee/bl2/stm32mp1_dbgmcu.o
 .debug_aranges
                0x00000000000017d0       0x28 /home/lodge/STM32MP157/tf-a/tf-a-stm32mp/../build/optee/bl2/stm32mp1_security.o
 .debug_aranges
                0x00000000000017f8       0x30 /home/lodge/STM32MP157/tf-a/tf-a-stm32mp/../build/optee/bl2/stm32mp1_syscfg.o
 .debug_aranges
                0x0000000000001828       0x28 /home/lodge/STM32MP157/tf-a/tf-a-stm32mp/../build/optee/bl2/spinlock.o
 .debug_aranges
                0x0000000000001850       0x28 /home/lodge/STM32MP157/tf-a/tf-a-stm32mp/../build/optee/bl2/platform_up_stack.o
 .debug_aranges
                0x0000000000001878       0x28 /home/lodge/STM32MP157/tf-a/tf-a-stm32mp/../build/optee/bl2/bl2_el3_entrypoint.o
 .debug_aranges
                0x00000000000018a0       0x20 /home/lodge/STM32MP157/tf-a/tf-a-stm32mp/../build/optee/bl2/bl2_el3_exceptions.o
 .debug_aranges
                0x00000000000018c0       0x40 /home/lodge/STM32MP157/tf-a/tf-a-stm32mp/../build/optee/bl2/cpu_helpers.o
 .debug_aranges
                0x0000000000001900       0x58 /home/lodge/STM32MP157/tf-a/tf-a-stm32mp/../build/optee/bl2/debug.o
 .debug_aranges
                0x0000000000001958       0x60 /home/lodge/STM32MP157/tf-a/tf-a-stm32mp/../build/optee/bl2/cache_helpers.o
 .debug_aranges
                0x00000000000019b8       0x40 /home/lodge/STM32MP157/tf-a/tf-a-stm32mp/../build/optee/bl2/misc_helpers.o
 .debug_aranges
                0x00000000000019f8       0x20 /home/lodge/STM32MP157/tf-a/tf-a-stm32mp/../build/optee/bl2/aeabi_uldivmod.o
 .debug_aranges
                0x0000000000001a18       0x50 /home/lodge/STM32MP157/tf-a/tf-a-stm32mp/../build/optee/bl2/stm32_console.o
 .debug_aranges
                0x0000000000001a68       0x28 /home/lodge/STM32MP157/tf-a/tf-a-stm32mp/../build/optee/bl2/enable_mmu.o
 .debug_aranges
                0x0000000000001a90       0x40 /home/lodge/STM32MP157/tf-a/tf-a-stm32mp/../build/optee/bl2/cortex_a7.o
 .debug_aranges
                0x0000000000001ad0       0x98 /home/lodge/STM32MP157/tf-a/tf-a-stm32mp/../build/optee/bl2/stm32mp1_helper.o
 .debug_aranges
                0x0000000000001b68       0x70 /home/lodge/STM32MP157/tf-a/tf-a-stm32mp/../build/optee/lib/libfdt.a(fdt.o)
 .debug_aranges
                0x0000000000001bd8       0x28 /home/lodge/STM32MP157/tf-a/tf-a-stm32mp/../build/optee/lib/libfdt.a(fdt_addresses.o)
 .debug_aranges
                0x0000000000001c00      0x140 /home/lodge/STM32MP157/tf-a/tf-a-stm32mp/../build/optee/lib/libfdt.a(fdt_ro.o)
 .debug_aranges
                0x0000000000001d40       0x20 /home/lodge/STM32MP157/tf-a/tf-a-stm32mp/../build/optee/lib/libc.a(assert.o)
 .debug_aranges
                0x0000000000001d60       0x20 /home/lodge/STM32MP157/tf-a/tf-a-stm32mp/../build/optee/lib/libc.a(memchr.o)
 .debug_aranges
                0x0000000000001d80       0x20 /home/lodge/STM32MP157/tf-a/tf-a-stm32mp/../build/optee/lib/libc.a(memcmp.o)
 .debug_aranges
                0x0000000000001da0       0x20 /home/lodge/STM32MP157/tf-a/tf-a-stm32mp/../build/optee/lib/libc.a(memcpy.o)
 .debug_aranges
                0x0000000000001dc0       0x20 /home/lodge/STM32MP157/tf-a/tf-a-stm32mp/../build/optee/lib/libc.a(memmove.o)
 .debug_aranges
                0x0000000000001de0       0x20 /home/lodge/STM32MP157/tf-a/tf-a-stm32mp/../build/optee/lib/libc.a(memset.o)
 .debug_aranges
                0x0000000000001e00       0x30 /home/lodge/STM32MP157/tf-a/tf-a-stm32mp/../build/optee/lib/libc.a(printf.o)
 .debug_aranges
                0x0000000000001e30       0x20 /home/lodge/STM32MP157/tf-a/tf-a-stm32mp/../build/optee/lib/libc.a(putchar.o)
 .debug_aranges
                0x0000000000001e50       0x28 /home/lodge/STM32MP157/tf-a/tf-a-stm32mp/../build/optee/lib/libc.a(snprintf.o)
 .debug_aranges
                0x0000000000001e78       0x20 /home/lodge/STM32MP157/tf-a/tf-a-stm32mp/../build/optee/lib/libc.a(strchr.o)
 .debug_aranges
                0x0000000000001e98       0x20 /home/lodge/STM32MP157/tf-a/tf-a-stm32mp/../build/optee/lib/libc.a(strcmp.o)
 .debug_aranges
                0x0000000000001eb8       0x20 /home/lodge/STM32MP157/tf-a/tf-a-stm32mp/../build/optee/lib/libc.a(strlen.o)
 .debug_aranges
                0x0000000000001ed8       0x20 /home/lodge/STM32MP157/tf-a/tf-a-stm32mp/../build/optee/lib/libc.a(strncmp.o)
 .debug_aranges
                0x0000000000001ef8       0x20 /home/lodge/STM32MP157/tf-a/tf-a-stm32mp/../build/optee/lib/libc.a(strnlen.o)
 .debug_aranges
                0x0000000000001f18       0x20 /home/lodge/STM32MP157/tf-a/tf-a-stm32mp/../build/optee/lib/libc.a(strrchr.o)

.debug_line     0x0000000000000000    0x2283c
 .debug_line    0x0000000000000000       0x28 /home/lodge/STM32MP157/tf-a/tf-a-stm32mp/../build/optee/bl2/build_message.o
 .debug_line    0x0000000000000028      0x6f8 /home/lodge/STM32MP157/tf-a/tf-a-stm32mp/../build/optee/bl2/io_block.o
 .debug_line    0x0000000000000720      0x2eb /home/lodge/STM32MP157/tf-a/tf-a-stm32mp/../build/optee/bl2/io_dummy.o
 .debug_line    0x0000000000000a0b      0x42b /home/lodge/STM32MP157/tf-a/tf-a-stm32mp/../build/optee/bl2/io_mtd.o
 .debug_line    0x0000000000000e36      0x5ce /home/lodge/STM32MP157/tf-a/tf-a-stm32mp/../build/optee/bl2/io_storage.o
 .debug_line    0x0000000000001404      0x81a /home/lodge/STM32MP157/tf-a/tf-a-stm32mp/../build/optee/bl2/stm32_hash.o
 .debug_line    0x0000000000001c1e      0x617 /home/lodge/STM32MP157/tf-a/tf-a-stm32mp/../build/optee/bl2/io_stm32image.o
 .debug_line    0x0000000000002235      0x8b1 /home/lodge/STM32MP157/tf-a/tf-a-stm32mp/../build/optee/bl2/bl2_io_storage.o
 .debug_line    0x0000000000002ae6      0xc51 /home/lodge/STM32MP157/tf-a/tf-a-stm32mp/../build/optee/bl2/bl2_plat_setup.o
 .debug_line    0x0000000000003737      0x52b /home/lodge/STM32MP157/tf-a/tf-a-stm32mp/../build/optee/bl2/auth_mod.o
 .debug_line    0x0000000000003c62      0x238 /home/lodge/STM32MP157/tf-a/tf-a-stm32mp/../build/optee/bl2/crypto_mod.o
 .debug_line    0x0000000000003e9a      0x301 /home/lodge/STM32MP157/tf-a/tf-a-stm32mp/../build/optee/bl2/img_parser_mod.o
 .debug_line    0x000000000000419b       0xf5 /home/lodge/STM32MP157/tf-a/tf-a-stm32mp/../build/optee/bl2/stm32mp_cot.o
 .debug_line    0x0000000000004290      0x368 /home/lodge/STM32MP157/tf-a/tf-a-stm32mp/../build/optee/bl2/stm32mp_crypto_lib.o
 .debug_line    0x00000000000045f8      0x214 /home/lodge/STM32MP157/tf-a/tf-a-stm32mp/../build/optee/bl2/stm32mp_img_parser_lib.o
 .debug_line    0x000000000000480c      0x1e8 /home/lodge/STM32MP157/tf-a/tf-a-stm32mp/../build/optee/bl2/stm32mp_trusted_boot.o
 .debug_line    0x00000000000049f4      0xc78 /home/lodge/STM32MP157/tf-a/tf-a-stm32mp/../build/optee/bl2/mmc.o
 .debug_line    0x000000000000566c      0x1d0 /home/lodge/STM32MP157/tf-a/tf-a-stm32mp/../build/optee/bl2/gpt.o
 .debug_line    0x000000000000583c      0x47a /home/lodge/STM32MP157/tf-a/tf-a-stm32mp/../build/optee/bl2/partition.o
 .debug_line    0x0000000000005cb6      0x2a3 /home/lodge/STM32MP157/tf-a/tf-a-stm32mp/../build/optee/bl2/io_mmc.o
 .debug_line    0x0000000000005f59     0x122d /home/lodge/STM32MP157/tf-a/tf-a-stm32mp/../build/optee/bl2/stm32_sdmmc2.o
 .debug_line    0x0000000000007186      0x8c0 /home/lodge/STM32MP157/tf-a/tf-a-stm32mp/../build/optee/bl2/raw_nand.o
 .debug_line    0x0000000000007a46     0x13de /home/lodge/STM32MP157/tf-a/tf-a-stm32mp/../build/optee/bl2/stm32_fmc2_nand.o
 .debug_line    0x0000000000008e24      0x64a /home/lodge/STM32MP157/tf-a/tf-a-stm32mp/../build/optee/bl2/spi_nand.o
 .debug_line    0x000000000000946e      0x6e2 /home/lodge/STM32MP157/tf-a/tf-a-stm32mp/../build/optee/bl2/spi_nor.o
 .debug_line    0x0000000000009b50      0x4da /home/lodge/STM32MP157/tf-a/tf-a-stm32mp/../build/optee/bl2/spi_mem.o
 .debug_line    0x000000000000a02a      0xcd6 /home/lodge/STM32MP157/tf-a/tf-a-stm32mp/../build/optee/bl2/stm32_qspi.o
 .debug_line    0x000000000000ad00      0x2a1 /home/lodge/STM32MP157/tf-a/tf-a-stm32mp/../build/optee/bl2/core.o
 .debug_line    0x000000000000afa1      0x351 /home/lodge/STM32MP157/tf-a/tf-a-stm32mp/../build/optee/bl2/stm32mp1_boot_device.o
 .debug_line    0x000000000000b2f2     0x17e4 /home/lodge/STM32MP157/tf-a/tf-a-stm32mp/../build/optee/bl2/stm32mp1_ddr.o
 .debug_line    0x000000000000cad6      0x8d0 /home/lodge/STM32MP157/tf-a/tf-a-stm32mp/../build/optee/bl2/stm32mp1_ram.o
 .debug_line    0x000000000000d3a6      0x630 /home/lodge/STM32MP157/tf-a/tf-a-stm32mp/../build/optee/bl2/desc_image_load.o
 .debug_line    0x000000000000d9d6      0x121 /home/lodge/STM32MP157/tf-a/tf-a-stm32mp/../build/optee/bl2/plat_bl2_mem_params_desc.o
 .debug_line    0x000000000000daf7      0x2f1 /home/lodge/STM32MP157/tf-a/tf-a-stm32mp/../build/optee/bl2/plat_image_load.o
 .debug_line    0x000000000000dde8      0x3b4 /home/lodge/STM32MP157/tf-a/tf-a-stm32mp/../build/optee/bl2/optee_utils.o
 .debug_line    0x000000000000e19c      0x28b /home/lodge/STM32MP157/tf-a/tf-a-stm32mp/../build/optee/bl2/bl2_image_load_v2.o
 .debug_line    0x000000000000e427      0x1bf /home/lodge/STM32MP157/tf-a/tf-a-stm32mp/../build/optee/bl2/bl2_main.o
 .debug_line    0x000000000000e5e6       0x93 /home/lodge/STM32MP157/tf-a/tf-a-stm32mp/../build/optee/bl2/bl2_arch_setup.o
 .debug_line    0x000000000000e679      0x3f7 /home/lodge/STM32MP157/tf-a/tf-a-stm32mp/../build/optee/bl2/bl_common.o
 .debug_line    0x000000000000ea70      0x1c4 /home/lodge/STM32MP157/tf-a/tf-a-stm32mp/../build/optee/bl2/tf_log.o
 .debug_line    0x000000000000ec34      0x419 /home/lodge/STM32MP157/tf-a/tf-a-stm32mp/../build/optee/bl2/multi_console.o
 .debug_line    0x000000000000f04d      0x195 /home/lodge/STM32MP157/tf-a/tf-a-stm32mp/../build/optee/bl2/plat_bl_common.o
 .debug_line    0x000000000000f1e2       0xd2 /home/lodge/STM32MP157/tf-a/tf-a-stm32mp/../build/optee/bl2/plat_log_common.o
 .debug_line    0x000000000000f2b4       0xa4 /home/lodge/STM32MP157/tf-a/tf-a-stm32mp/../build/optee/bl2/popcountsi2.o
 .debug_line    0x000000000000f358       0x88 /home/lodge/STM32MP157/tf-a/tf-a-stm32mp/../build/optee/bl2/ctzdi2.o
 .debug_line    0x000000000000f3e0      0x38a /home/lodge/STM32MP157/tf-a/tf-a-stm32mp/../build/optee/bl2/udivmoddi4.o
 .debug_line    0x000000000000f76a      0x51d /home/lodge/STM32MP157/tf-a/tf-a-stm32mp/../build/optee/bl2/stm32mp_common.o
 .debug_line    0x000000000000fc87      0xa66 /home/lodge/STM32MP157/tf-a/tf-a-stm32mp/../build/optee/bl2/stm32mp1_private.o
 .debug_line    0x00000000000106ed      0x52d /home/lodge/STM32MP157/tf-a/tf-a-stm32mp/../build/optee/bl2/xlat_tables_arch.o
 .debug_line    0x0000000000010c1a      0x39d /home/lodge/STM32MP157/tf-a/tf-a-stm32mp/../build/optee/bl2/xlat_tables_context.o
 .debug_line    0x0000000000010fb7     0x100e /home/lodge/STM32MP157/tf-a/tf-a-stm32mp/../build/optee/bl2/xlat_tables_core.o
 .debug_line    0x0000000000011fc5      0x694 /home/lodge/STM32MP157/tf-a/tf-a-stm32mp/../build/optee/bl2/xlat_tables_utils.o
 .debug_line    0x0000000000012659      0x96e /home/lodge/STM32MP157/tf-a/tf-a-stm32mp/../build/optee/bl2/tzc400.o
 .debug_line    0x0000000000012fc7      0x1d9 /home/lodge/STM32MP157/tf-a/tf-a-stm32mp/../build/optee/bl2/delay_timer.o
 .debug_line    0x00000000000131a0      0x22f /home/lodge/STM32MP157/tf-a/tf-a-stm32mp/../build/optee/bl2/generic_delay_timer.o
 .debug_line    0x00000000000133cf     0x10a1 /home/lodge/STM32MP157/tf-a/tf-a-stm32mp/../build/optee/bl2/bsec2.o
 .debug_line    0x0000000000014470      0x94e /home/lodge/STM32MP157/tf-a/tf-a-stm32mp/../build/optee/bl2/stm32mp_clkfunc.o
 .debug_line    0x0000000000014dbe     0x38c1 /home/lodge/STM32MP157/tf-a/tf-a-stm32mp/../build/optee/bl2/stm32mp1_clk.o
 .debug_line    0x000000000001867f     0x1b1a /home/lodge/STM32MP157/tf-a/tf-a-stm32mp/../build/optee/bl2/stm32mp1_ddr_helpers.o
 .debug_line    0x000000000001a199      0x8a1 /home/lodge/STM32MP157/tf-a/tf-a-stm32mp/../build/optee/bl2/stm32_gpio.o
 .debug_line    0x000000000001aa3a     0x191a /home/lodge/STM32MP157/tf-a/tf-a-stm32mp/../build/optee/bl2/stm32_i2c.o
 .debug_line    0x000000000001c354      0x3a2 /home/lodge/STM32MP157/tf-a/tf-a-stm32mp/../build/optee/bl2/stm32_iwdg.o
 .debug_line    0x000000000001c6f6      0xa78 /home/lodge/STM32MP157/tf-a/tf-a-stm32mp/../build/optee/bl2/stm32mp_pmic.o
 .debug_line    0x000000000001d16e      0x619 /home/lodge/STM32MP157/tf-a/tf-a-stm32mp/../build/optee/bl2/stpmic1.o
 .debug_line    0x000000000001d787       0xad /home/lodge/STM32MP157/tf-a/tf-a-stm32mp/../build/optee/bl2/stm32mp_dummy_regulator.o
 .debug_line    0x000000000001d834      0x190 /home/lodge/STM32MP157/tf-a/tf-a-stm32mp/../build/optee/bl2/stm32mp_regulator.o
 .debug_line    0x000000000001d9c4      0x374 /home/lodge/STM32MP157/tf-a/tf-a-stm32mp/../build/optee/bl2/stm32mp1_reset.o
 .debug_line    0x000000000001dd38      0xc89 /home/lodge/STM32MP157/tf-a/tf-a-stm32mp/../build/optee/bl2/stm32mp_dt.o
 .debug_line    0x000000000001e9c1      0x269 /home/lodge/STM32MP157/tf-a/tf-a-stm32mp/../build/optee/bl2/stm32mp_shres_helpers.o
 .debug_line    0x000000000001ec2a      0x422 /home/lodge/STM32MP157/tf-a/tf-a-stm32mp/../build/optee/bl2/stm32mp1_context.o
 .debug_line    0x000000000001f04c      0x281 /home/lodge/STM32MP157/tf-a/tf-a-stm32mp/../build/optee/bl2/stm32mp1_dbgmcu.o
 .debug_line    0x000000000001f2cd      0x1e9 /home/lodge/STM32MP157/tf-a/tf-a-stm32mp/../build/optee/bl2/stm32mp1_security.o
 .debug_line    0x000000000001f4b6      0x4c9 /home/lodge/STM32MP157/tf-a/tf-a-stm32mp/../build/optee/bl2/stm32mp1_syscfg.o
 .debug_line    0x000000000001f97f       0x70 /home/lodge/STM32MP157/tf-a/tf-a-stm32mp/../build/optee/bl2/spinlock.o
 .debug_line    0x000000000001f9ef       0x6b /home/lodge/STM32MP157/tf-a/tf-a-stm32mp/../build/optee/bl2/platform_up_stack.o
 .debug_line    0x000000000001fa5a       0x81 /home/lodge/STM32MP157/tf-a/tf-a-stm32mp/../build/optee/bl2/bl2_el3_entrypoint.o
 .debug_line    0x000000000001fadb       0x57 /home/lodge/STM32MP157/tf-a/tf-a-stm32mp/../build/optee/bl2/bl2_el3_exceptions.o
 .debug_line    0x000000000001fb32       0xb7 /home/lodge/STM32MP157/tf-a/tf-a-stm32mp/../build/optee/bl2/cpu_helpers.o
 .debug_line    0x000000000001fbe9      0x104 /home/lodge/STM32MP157/tf-a/tf-a-stm32mp/../build/optee/bl2/debug.o
 .debug_line    0x000000000001fced       0xef /home/lodge/STM32MP157/tf-a/tf-a-stm32mp/../build/optee/bl2/cache_helpers.o
 .debug_line    0x000000000001fddc       0xbe /home/lodge/STM32MP157/tf-a/tf-a-stm32mp/../build/optee/bl2/misc_helpers.o
 .debug_line    0x000000000001fe9a       0x67 /home/lodge/STM32MP157/tf-a/tf-a-stm32mp/../build/optee/bl2/aeabi_uldivmod.o
 .debug_line    0x000000000001ff01      0x107 /home/lodge/STM32MP157/tf-a/tf-a-stm32mp/../build/optee/bl2/stm32_console.o
 .debug_line    0x0000000000020008       0xa4 /home/lodge/STM32MP157/tf-a/tf-a-stm32mp/../build/optee/bl2/enable_mmu.o
 .debug_line    0x00000000000200ac       0xa2 /home/lodge/STM32MP157/tf-a/tf-a-stm32mp/../build/optee/bl2/cortex_a7.o
 .debug_line    0x000000000002014e      0x1ec /home/lodge/STM32MP157/tf-a/tf-a-stm32mp/../build/optee/bl2/stm32mp1_helper.o
 .debug_line    0x000000000002033a      0x512 /home/lodge/STM32MP157/tf-a/tf-a-stm32mp/../build/optee/lib/libfdt.a(fdt.o)
 .debug_line    0x000000000002084c      0x15e /home/lodge/STM32MP157/tf-a/tf-a-stm32mp/../build/optee/lib/libfdt.a(fdt_addresses.o)
 .debug_line    0x00000000000209aa      0xfb3 /home/lodge/STM32MP157/tf-a/tf-a-stm32mp/../build/optee/lib/libfdt.a(fdt_ro.o)
 .debug_line    0x000000000002195d      0x12e /home/lodge/STM32MP157/tf-a/tf-a-stm32mp/../build/optee/lib/libc.a(assert.o)
 .debug_line    0x0000000000021a8b       0x8b /home/lodge/STM32MP157/tf-a/tf-a-stm32mp/../build/optee/lib/libc.a(memchr.o)
 .debug_line    0x0000000000021b16       0xa5 /home/lodge/STM32MP157/tf-a/tf-a-stm32mp/../build/optee/lib/libc.a(memcmp.o)
 .debug_line    0x0000000000021bbb       0x8c /home/lodge/STM32MP157/tf-a/tf-a-stm32mp/../build/optee/lib/libc.a(memcpy.o)
 .debug_line    0x0000000000021c47       0xe2 /home/lodge/STM32MP157/tf-a/tf-a-stm32mp/../build/optee/lib/libc.a(memmove.o)
 .debug_line    0x0000000000021d29       0x83 /home/lodge/STM32MP157/tf-a/tf-a-stm32mp/../build/optee/lib/libc.a(memset.o)
 .debug_line    0x0000000000021dac      0x3e6 /home/lodge/STM32MP157/tf-a/tf-a-stm32mp/../build/optee/lib/libc.a(printf.o)
 .debug_line    0x0000000000022192       0x78 /home/lodge/STM32MP157/tf-a/tf-a-stm32mp/../build/optee/lib/libc.a(putchar.o)
 .debug_line    0x000000000002220a      0x316 /home/lodge/STM32MP157/tf-a/tf-a-stm32mp/../build/optee/lib/libc.a(snprintf.o)
 .debug_line    0x0000000000022520       0x78 /home/lodge/STM32MP157/tf-a/tf-a-stm32mp/../build/optee/lib/libc.a(strchr.o)
 .debug_line    0x0000000000022598       0x66 /home/lodge/STM32MP157/tf-a/tf-a-stm32mp/../build/optee/lib/libc.a(strcmp.o)
 .debug_line    0x00000000000225fe       0x7b /home/lodge/STM32MP157/tf-a/tf-a-stm32mp/../build/optee/lib/libc.a(strlen.o)
 .debug_line    0x0000000000022679       0xab /home/lodge/STM32MP157/tf-a/tf-a-stm32mp/../build/optee/lib/libc.a(strncmp.o)
 .debug_line    0x0000000000022724       0xa5 /home/lodge/STM32MP157/tf-a/tf-a-stm32mp/../build/optee/lib/libc.a(strnlen.o)
 .debug_line    0x00000000000227c9       0x73 /home/lodge/STM32MP157/tf-a/tf-a-stm32mp/../build/optee/lib/libc.a(strrchr.o)

.debug_str      0x0000000000000000     0x9c83
 .debug_str     0x0000000000000000      0x11b /home/lodge/STM32MP157/tf-a/tf-a-stm32mp/../build/optee/bl2/build_message.o
                                        0x12d (size before relaxing)
 .debug_str     0x000000000000011b      0x404 /home/lodge/STM32MP157/tf-a/tf-a-stm32mp/../build/optee/bl2/io_block.o
                                        0x624 (size before relaxing)
 .debug_str     0x000000000000051f       0xfa /home/lodge/STM32MP157/tf-a/tf-a-stm32mp/../build/optee/bl2/io_dummy.o
                                        0x4ea (size before relaxing)
 .debug_str     0x0000000000000619      0x10d /home/lodge/STM32MP157/tf-a/tf-a-stm32mp/../build/optee/bl2/io_mtd.o
                                        0x57a (size before relaxing)
 .debug_str     0x0000000000000726      0x136 /home/lodge/STM32MP157/tf-a/tf-a-stm32mp/../build/optee/bl2/io_storage.o
                                        0x563 (size before relaxing)
 .debug_str     0x000000000000085c      0x35e /home/lodge/STM32MP157/tf-a/tf-a-stm32mp/../build/optee/bl2/stm32_hash.o
                                        0x5b8 (size before relaxing)
 .debug_str     0x0000000000000bba      0x31c /home/lodge/STM32MP157/tf-a/tf-a-stm32mp/../build/optee/bl2/io_stm32image.o
                                        0x7d5 (size before relaxing)
 .debug_str     0x0000000000000ed6      0x727 /home/lodge/STM32MP157/tf-a/tf-a-stm32mp/../build/optee/bl2/bl2_io_storage.o
                                        0xd59 (size before relaxing)
 .debug_str     0x00000000000015fd      0x81f /home/lodge/STM32MP157/tf-a/tf-a-stm32mp/../build/optee/bl2/bl2_plat_setup.o
                                        0xec2 (size before relaxing)
 .debug_str     0x0000000000001e1c      0x542 /home/lodge/STM32MP157/tf-a/tf-a-stm32mp/../build/optee/bl2/auth_mod.o
                                        0x776 (size before relaxing)
 .debug_str     0x000000000000235e       0x6e /home/lodge/STM32MP157/tf-a/tf-a-stm32mp/../build/optee/bl2/crypto_mod.o
                                        0x2f7 (size before relaxing)
 .debug_str     0x00000000000023cc      0x145 /home/lodge/STM32MP157/tf-a/tf-a-stm32mp/../build/optee/bl2/img_parser_mod.o
                                        0x4e2 (size before relaxing)
 .debug_str     0x0000000000002511       0xa1 /home/lodge/STM32MP157/tf-a/tf-a-stm32mp/../build/optee/bl2/stm32mp_cot.o
                                        0x5c3 (size before relaxing)
 .debug_str     0x00000000000025b2       0xcb /home/lodge/STM32MP157/tf-a/tf-a-stm32mp/../build/optee/bl2/stm32mp_crypto_lib.o
                                        0x85b (size before relaxing)
 .debug_str     0x000000000000267d       0x9d /home/lodge/STM32MP157/tf-a/tf-a-stm32mp/../build/optee/bl2/stm32mp_img_parser_lib.o
                                        0x4f8 (size before relaxing)
 .debug_str     0x000000000000271a       0x7e /home/lodge/STM32MP157/tf-a/tf-a-stm32mp/../build/optee/bl2/stm32mp_trusted_boot.o
                                        0x2de (size before relaxing)
 .debug_str     0x0000000000002798      0x554 /home/lodge/STM32MP157/tf-a/tf-a-stm32mp/../build/optee/bl2/mmc.o
                                        0x86d (size before relaxing)
 .debug_str     0x0000000000002cec       0x7d /home/lodge/STM32MP157/tf-a/tf-a-stm32mp/../build/optee/bl2/gpt.o
                                        0x2b6 (size before relaxing)
 .debug_str     0x0000000000002d69      0x181 /home/lodge/STM32MP157/tf-a/tf-a-stm32mp/../build/optee/bl2/partition.o
                                        0x54d (size before relaxing)
 .debug_str     0x0000000000002eea       0xb8 /home/lodge/STM32MP157/tf-a/tf-a-stm32mp/../build/optee/bl2/io_mmc.o
                                        0x4ce (size before relaxing)
 .debug_str     0x0000000000002fa2      0x2a4 /home/lodge/STM32MP157/tf-a/tf-a-stm32mp/../build/optee/bl2/stm32_sdmmc2.o
                                        0x872 (size before relaxing)
 .debug_str     0x0000000000003246      0x466 /home/lodge/STM32MP157/tf-a/tf-a-stm32mp/../build/optee/bl2/raw_nand.o
                                        0x80f (size before relaxing)
 .debug_str     0x00000000000036ac      0x37d /home/lodge/STM32MP157/tf-a/tf-a-stm32mp/../build/optee/bl2/stm32_fmc2_nand.o
                                        0x8af (size before relaxing)
 .debug_str     0x0000000000003a29      0x20d /home/lodge/STM32MP157/tf-a/tf-a-stm32mp/../build/optee/bl2/spi_nand.o
                                        0x5a3 (size before relaxing)
 .debug_str     0x0000000000003c36      0x190 /home/lodge/STM32MP157/tf-a/tf-a-stm32mp/../build/optee/bl2/spi_nor.o
                                        0x4d5 (size before relaxing)
 .debug_str     0x0000000000003dc6       0xb3 /home/lodge/STM32MP157/tf-a/tf-a-stm32mp/../build/optee/bl2/spi_mem.o
                                        0x3b7 (size before relaxing)
 .debug_str     0x0000000000003e79      0x1b3 /home/lodge/STM32MP157/tf-a/tf-a-stm32mp/../build/optee/bl2/stm32_qspi.o
                                        0x671 (size before relaxing)
 .debug_str     0x000000000000402c       0x64 /home/lodge/STM32MP157/tf-a/tf-a-stm32mp/../build/optee/bl2/core.o
                                        0x322 (size before relaxing)
 .debug_str     0x0000000000004090       0x4c /home/lodge/STM32MP157/tf-a/tf-a-stm32mp/../build/optee/bl2/stm32mp1_boot_device.o
                                        0x436 (size before relaxing)
 .debug_str     0x00000000000040dc      0xad4 /home/lodge/STM32MP157/tf-a/tf-a-stm32mp/../build/optee/bl2/stm32mp1_ddr.o
                                        0xe9b (size before relaxing)
 .debug_str     0x0000000000004bb0      0x1c6 /home/lodge/STM32MP157/tf-a/tf-a-stm32mp/../build/optee/bl2/stm32mp1_ram.o
                                        0xd30 (size before relaxing)
 .debug_str     0x0000000000004d76      0x241 /home/lodge/STM32MP157/tf-a/tf-a-stm32mp/../build/optee/bl2/desc_image_load.o
                                        0x684 (size before relaxing)
 .debug_str     0x0000000000004fb7       0x41 /home/lodge/STM32MP157/tf-a/tf-a-stm32mp/../build/optee/bl2/plat_bl2_mem_params_desc.o
                                        0x3f3 (size before relaxing)
 .debug_str     0x0000000000004ff8       0xa8 /home/lodge/STM32MP157/tf-a/tf-a-stm32mp/../build/optee/bl2/plat_image_load.o
                                        0x85f (size before relaxing)
 .debug_str     0x00000000000050a0       0xe2 /home/lodge/STM32MP157/tf-a/tf-a-stm32mp/../build/optee/bl2/optee_utils.o
                                        0x42a (size before relaxing)
 .debug_str     0x0000000000005182       0x96 /home/lodge/STM32MP157/tf-a/tf-a-stm32mp/../build/optee/bl2/bl2_image_load_v2.o
                                        0x4a9 (size before relaxing)
 .debug_str     0x0000000000005218       0x86 /home/lodge/STM32MP157/tf-a/tf-a-stm32mp/../build/optee/bl2/bl2_main.o
                                        0x38c (size before relaxing)
 .debug_str     0x000000000000529e       0x1d /home/lodge/STM32MP157/tf-a/tf-a-stm32mp/../build/optee/bl2/bl2_arch_setup.o
                                        0x1de (size before relaxing)
 .debug_str     0x00000000000052bb       0x81 /home/lodge/STM32MP157/tf-a/tf-a-stm32mp/../build/optee/bl2/bl_common.o
                                        0x46a (size before relaxing)
 .debug_str     0x000000000000533c       0x66 /home/lodge/STM32MP157/tf-a/tf-a-stm32mp/../build/optee/bl2/tf_log.o
                                        0x257 (size before relaxing)
 .debug_str     0x00000000000053a2      0x104 /home/lodge/STM32MP157/tf-a/tf-a-stm32mp/../build/optee/bl2/multi_console.o
                                        0x33c (size before relaxing)
 .debug_str     0x00000000000054a6       0xa9 /home/lodge/STM32MP157/tf-a/tf-a-stm32mp/../build/optee/bl2/plat_bl_common.o
                                        0x31b (size before relaxing)
 .debug_str     0x000000000000554f       0x2e /home/lodge/STM32MP157/tf-a/tf-a-stm32mp/../build/optee/bl2/plat_log_common.o
                                        0x219 (size before relaxing)
 .debug_str     0x000000000000557d       0x66 /home/lodge/STM32MP157/tf-a/tf-a-stm32mp/../build/optee/bl2/popcountsi2.o
                                        0x20f (size before relaxing)
 .debug_str     0x00000000000055e3       0x32 /home/lodge/STM32MP157/tf-a/tf-a-stm32mp/../build/optee/bl2/ctzdi2.o
                                        0x218 (size before relaxing)
 .debug_str     0x0000000000005615       0x63 /home/lodge/STM32MP157/tf-a/tf-a-stm32mp/../build/optee/bl2/udivmoddi4.o
                                        0x242 (size before relaxing)
 .debug_str     0x0000000000005678      0x158 /home/lodge/STM32MP157/tf-a/tf-a-stm32mp/../build/optee/bl2/stm32mp_common.o
                                        0x5ae (size before relaxing)
 .debug_str     0x00000000000057d0      0x414 /home/lodge/STM32MP157/tf-a/tf-a-stm32mp/../build/optee/bl2/stm32mp1_private.o
                                        0x8b6 (size before relaxing)
 .debug_str     0x0000000000005be4      0x291 /home/lodge/STM32MP157/tf-a/tf-a-stm32mp/../build/optee/bl2/xlat_tables_arch.o
                                        0x4f5 (size before relaxing)
 .debug_str     0x0000000000005e75      0x21d /home/lodge/STM32MP157/tf-a/tf-a-stm32mp/../build/optee/bl2/xlat_tables_context.o
                                        0x5b2 (size before relaxing)
 .debug_str     0x0000000000006092      0x3c1 /home/lodge/STM32MP157/tf-a/tf-a-stm32mp/../build/optee/bl2/xlat_tables_core.o
                                        0x8b6 (size before relaxing)
 .debug_str     0x0000000000006453      0x115 /home/lodge/STM32MP157/tf-a/tf-a-stm32mp/../build/optee/bl2/xlat_tables_utils.o
                                        0x534 (size before relaxing)
 .debug_str     0x0000000000006568      0x320 /home/lodge/STM32MP157/tf-a/tf-a-stm32mp/../build/optee/bl2/tzc400.o
                                        0x5ce (size before relaxing)
 .debug_str     0x0000000000006888       0x6f /home/lodge/STM32MP157/tf-a/tf-a-stm32mp/../build/optee/bl2/delay_timer.o
                                        0x27a (size before relaxing)
 .debug_str     0x00000000000068f7       0x6f /home/lodge/STM32MP157/tf-a/tf-a-stm32mp/../build/optee/bl2/generic_delay_timer.o
                                        0x2e8 (size before relaxing)
 .debug_str     0x0000000000006966      0x2c2 /home/lodge/STM32MP157/tf-a/tf-a-stm32mp/../build/optee/bl2/bsec2.o
                                        0x6aa (size before relaxing)
 .debug_str     0x0000000000006c28      0x298 /home/lodge/STM32MP157/tf-a/tf-a-stm32mp/../build/optee/bl2/stm32mp_clkfunc.o
                                        0x652 (size before relaxing)
 .debug_str     0x0000000000006ec0     0x1215 /home/lodge/STM32MP157/tf-a/tf-a-stm32mp/../build/optee/bl2/stm32mp1_clk.o
                                       0x190e (size before relaxing)
 .debug_str     0x00000000000080d5      0x1b5 /home/lodge/STM32MP157/tf-a/tf-a-stm32mp/../build/optee/bl2/stm32mp1_ddr_helpers.o
                                        0x5e9 (size before relaxing)
 .debug_str     0x000000000000828a      0x117 /home/lodge/STM32MP157/tf-a/tf-a-stm32mp/../build/optee/bl2/stm32_gpio.o
                                        0x4d4 (size before relaxing)
 .debug_str     0x00000000000083a1      0x551 /home/lodge/STM32MP157/tf-a/tf-a-stm32mp/../build/optee/bl2/stm32_i2c.o
                                        0x919 (size before relaxing)
 .debug_str     0x00000000000088f2       0x5b /home/lodge/STM32MP157/tf-a/tf-a-stm32mp/../build/optee/bl2/stm32_iwdg.o
                                        0x3e5 (size before relaxing)
 .debug_str     0x000000000000894d      0x326 /home/lodge/STM32MP157/tf-a/tf-a-stm32mp/../build/optee/bl2/stm32mp_pmic.o
                                        0xa58 (size before relaxing)
 .debug_str     0x0000000000008c73      0x29c /home/lodge/STM32MP157/tf-a/tf-a-stm32mp/../build/optee/bl2/stpmic1.o
                                        0x72b (size before relaxing)
 .debug_str     0x0000000000008f0f       0x6d /home/lodge/STM32MP157/tf-a/tf-a-stm32mp/../build/optee/bl2/stm32mp_dummy_regulator.o
                                        0x1cc (size before relaxing)
 .debug_str     0x0000000000008f7c       0x29 /home/lodge/STM32MP157/tf-a/tf-a-stm32mp/../build/optee/bl2/stm32mp_regulator.o
                                        0x2a7 (size before relaxing)
 .debug_str     0x0000000000008fa5       0x4c /home/lodge/STM32MP157/tf-a/tf-a-stm32mp/../build/optee/bl2/stm32mp1_reset.o
                                        0x337 (size before relaxing)
 .debug_str     0x0000000000008ff1      0x207 /home/lodge/STM32MP157/tf-a/tf-a-stm32mp/../build/optee/bl2/stm32mp_dt.o
                                        0x7a8 (size before relaxing)
 .debug_str     0x00000000000091f8       0x7f /home/lodge/STM32MP157/tf-a/tf-a-stm32mp/../build/optee/bl2/stm32mp_shres_helpers.o
                                        0x327 (size before relaxing)
 .debug_str     0x0000000000009277       0xe4 /home/lodge/STM32MP157/tf-a/tf-a-stm32mp/../build/optee/bl2/stm32mp1_context.o
                                        0x46a (size before relaxing)
 .debug_str     0x000000000000935b       0x4e /home/lodge/STM32MP157/tf-a/tf-a-stm32mp/../build/optee/bl2/stm32mp1_dbgmcu.o
                                        0x2f9 (size before relaxing)
 .debug_str     0x00000000000093a9       0x3f /home/lodge/STM32MP157/tf-a/tf-a-stm32mp/../build/optee/bl2/stm32mp1_security.o
                                        0x2f6 (size before relaxing)
 .debug_str     0x00000000000093e8       0x8a /home/lodge/STM32MP157/tf-a/tf-a-stm32mp/../build/optee/bl2/stm32mp1_syscfg.o
                                        0x3ed (size before relaxing)
 .debug_str     0x0000000000009472       0x35 /home/lodge/STM32MP157/tf-a/tf-a-stm32mp/../build/optee/bl2/spinlock.o
                                         0x5e (size before relaxing)
 .debug_str     0x00000000000094a7       0x28 /home/lodge/STM32MP157/tf-a/tf-a-stm32mp/../build/optee/bl2/platform_up_stack.o
                                         0x5f (size before relaxing)
 .debug_str     0x00000000000094cf       0x21 /home/lodge/STM32MP157/tf-a/tf-a-stm32mp/../build/optee/bl2/bl2_el3_entrypoint.o
                                         0x58 (size before relaxing)
 .debug_str     0x00000000000094f0       0x21 /home/lodge/STM32MP157/tf-a/tf-a-stm32mp/../build/optee/bl2/bl2_el3_exceptions.o
                                         0x58 (size before relaxing)
 .debug_str     0x0000000000009511       0x1f /home/lodge/STM32MP157/tf-a/tf-a-stm32mp/../build/optee/bl2/cpu_helpers.o
                                         0x56 (size before relaxing)
 .debug_str     0x0000000000009530       0x17 /home/lodge/STM32MP157/tf-a/tf-a-stm32mp/../build/optee/bl2/debug.o
                                         0x4e (size before relaxing)
 .debug_str     0x0000000000009547       0x1c /home/lodge/STM32MP157/tf-a/tf-a-stm32mp/../build/optee/bl2/cache_helpers.o
                                         0x53 (size before relaxing)
 .debug_str     0x0000000000009563       0x1b /home/lodge/STM32MP157/tf-a/tf-a-stm32mp/../build/optee/bl2/misc_helpers.o
                                         0x52 (size before relaxing)
 .debug_str     0x000000000000957e       0x2e /home/lodge/STM32MP157/tf-a/tf-a-stm32mp/../build/optee/bl2/aeabi_uldivmod.o
                                         0x65 (size before relaxing)
 .debug_str     0x00000000000095ac       0x28 /home/lodge/STM32MP157/tf-a/tf-a-stm32mp/../build/optee/bl2/stm32_console.o
                                         0x5f (size before relaxing)
 .debug_str     0x00000000000095d4       0x28 /home/lodge/STM32MP157/tf-a/tf-a-stm32mp/../build/optee/bl2/enable_mmu.o
                                         0x5f (size before relaxing)
 .debug_str     0x00000000000095fc       0x1d /home/lodge/STM32MP157/tf-a/tf-a-stm32mp/../build/optee/bl2/cortex_a7.o
                                         0x54 (size before relaxing)
 .debug_str     0x0000000000009619       0x23 /home/lodge/STM32MP157/tf-a/tf-a-stm32mp/../build/optee/bl2/stm32mp1_helper.o
                                         0x5a (size before relaxing)
 .debug_str     0x000000000000963c      0x157 /home/lodge/STM32MP157/tf-a/tf-a-stm32mp/../build/optee/lib/libfdt.a(fdt.o)
                                        0x373 (size before relaxing)
 .debug_str     0x0000000000009793       0x1b /home/lodge/STM32MP157/tf-a/tf-a-stm32mp/../build/optee/lib/libfdt.a(fdt_addresses.o)
                                        0x200 (size before relaxing)
 .debug_str     0x00000000000097ae      0x33b /home/lodge/STM32MP157/tf-a/tf-a-stm32mp/../build/optee/lib/libfdt.a(fdt_ro.o)
                                        0x794 (size before relaxing)
 .debug_str     0x0000000000009ae9       0x2a /home/lodge/STM32MP157/tf-a/tf-a-stm32mp/../build/optee/lib/libc.a(assert.o)
                                        0x20c (size before relaxing)
 .debug_str     0x0000000000009b13       0x12 /home/lodge/STM32MP157/tf-a/tf-a-stm32mp/../build/optee/lib/libc.a(memchr.o)
                                        0x142 (size before relaxing)
 .debug_str     0x0000000000009b25       0x12 /home/lodge/STM32MP157/tf-a/tf-a-stm32mp/../build/optee/lib/libc.a(memcmp.o)
                                        0x142 (size before relaxing)
 .debug_str     0x0000000000009b37       0x12 /home/lodge/STM32MP157/tf-a/tf-a-stm32mp/../build/optee/lib/libc.a(memcpy.o)
                                        0x139 (size before relaxing)
 .debug_str     0x0000000000009b49       0x13 /home/lodge/STM32MP157/tf-a/tf-a-stm32mp/../build/optee/lib/libc.a(memmove.o)
                                        0x139 (size before relaxing)
 .debug_str     0x0000000000009b5c       0x12 /home/lodge/STM32MP157/tf-a/tf-a-stm32mp/../build/optee/lib/libc.a(memset.o)
                                        0x13f (size before relaxing)
 .debug_str     0x0000000000009b6e       0x57 /home/lodge/STM32MP157/tf-a/tf-a-stm32mp/../build/optee/lib/libc.a(printf.o)
                                        0x266 (size before relaxing)
 .debug_str     0x0000000000009bc5       0x13 /home/lodge/STM32MP157/tf-a/tf-a-stm32mp/../build/optee/lib/libc.a(putchar.o)
                                        0x1af (size before relaxing)
 .debug_str     0x0000000000009bd8       0x35 /home/lodge/STM32MP157/tf-a/tf-a-stm32mp/../build/optee/lib/libc.a(snprintf.o)
                                        0x24c (size before relaxing)
 .debug_str     0x0000000000009c0d       0x12 /home/lodge/STM32MP157/tf-a/tf-a-stm32mp/../build/optee/lib/libc.a(strchr.o)
                                        0x132 (size before relaxing)
 .debug_str     0x0000000000009c1f       0x12 /home/lodge/STM32MP157/tf-a/tf-a-stm32mp/../build/optee/lib/libc.a(strcmp.o)
                                        0x129 (size before relaxing)
 .debug_str     0x0000000000009c31       0x12 /home/lodge/STM32MP157/tf-a/tf-a-stm32mp/../build/optee/lib/libc.a(strlen.o)
                                        0x137 (size before relaxing)
 .debug_str     0x0000000000009c43       0x13 /home/lodge/STM32MP157/tf-a/tf-a-stm32mp/../build/optee/lib/libc.a(strncmp.o)
                                        0x132 (size before relaxing)
 .debug_str     0x0000000000009c56       0x1a /home/lodge/STM32MP157/tf-a/tf-a-stm32mp/../build/optee/lib/libc.a(strnlen.o)
                                        0x139 (size before relaxing)
 .debug_str     0x0000000000009c70       0x13 /home/lodge/STM32MP157/tf-a/tf-a-stm32mp/../build/optee/lib/libc.a(strrchr.o)
                                        0x139 (size before relaxing)

.comment        0x0000000000000000       0x5d
 .comment       0x0000000000000000       0x5d /home/lodge/STM32MP157/tf-a/tf-a-stm32mp/../build/optee/bl2/build_message.o
                                         0x5e (size before relaxing)
 .comment       0x000000000000005d       0x5e /home/lodge/STM32MP157/tf-a/tf-a-stm32mp/../build/optee/bl2/io_block.o
 .comment       0x000000000000005d       0x5e /home/lodge/STM32MP157/tf-a/tf-a-stm32mp/../build/optee/bl2/io_dummy.o
 .comment       0x000000000000005d       0x5e /home/lodge/STM32MP157/tf-a/tf-a-stm32mp/../build/optee/bl2/io_mtd.o
 .comment       0x000000000000005d       0x5e /home/lodge/STM32MP157/tf-a/tf-a-stm32mp/../build/optee/bl2/io_storage.o
 .comment       0x000000000000005d       0x5e /home/lodge/STM32MP157/tf-a/tf-a-stm32mp/../build/optee/bl2/stm32_hash.o
 .comment       0x000000000000005d       0x5e /home/lodge/STM32MP157/tf-a/tf-a-stm32mp/../build/optee/bl2/io_stm32image.o
 .comment       0x000000000000005d       0x5e /home/lodge/STM32MP157/tf-a/tf-a-stm32mp/../build/optee/bl2/bl2_io_storage.o
 .comment       0x000000000000005d       0x5e /home/lodge/STM32MP157/tf-a/tf-a-stm32mp/../build/optee/bl2/bl2_plat_setup.o
 .comment       0x000000000000005d       0x5e /home/lodge/STM32MP157/tf-a/tf-a-stm32mp/../build/optee/bl2/auth_mod.o
 .comment       0x000000000000005d       0x5e /home/lodge/STM32MP157/tf-a/tf-a-stm32mp/../build/optee/bl2/crypto_mod.o
 .comment       0x000000000000005d       0x5e /home/lodge/STM32MP157/tf-a/tf-a-stm32mp/../build/optee/bl2/img_parser_mod.o
 .comment       0x000000000000005d       0x5e /home/lodge/STM32MP157/tf-a/tf-a-stm32mp/../build/optee/bl2/stm32mp_cot.o
 .comment       0x000000000000005d       0x5e /home/lodge/STM32MP157/tf-a/tf-a-stm32mp/../build/optee/bl2/stm32mp_crypto_lib.o
 .comment       0x000000000000005d       0x5e /home/lodge/STM32MP157/tf-a/tf-a-stm32mp/../build/optee/bl2/stm32mp_img_parser_lib.o
 .comment       0x000000000000005d       0x5e /home/lodge/STM32MP157/tf-a/tf-a-stm32mp/../build/optee/bl2/stm32mp_trusted_boot.o
 .comment       0x000000000000005d       0x5e /home/lodge/STM32MP157/tf-a/tf-a-stm32mp/../build/optee/bl2/mmc.o
 .comment       0x000000000000005d       0x5e /home/lodge/STM32MP157/tf-a/tf-a-stm32mp/../build/optee/bl2/gpt.o
 .comment       0x000000000000005d       0x5e /home/lodge/STM32MP157/tf-a/tf-a-stm32mp/../build/optee/bl2/partition.o
 .comment       0x000000000000005d       0x5e /home/lodge/STM32MP157/tf-a/tf-a-stm32mp/../build/optee/bl2/io_mmc.o
 .comment       0x000000000000005d       0x5e /home/lodge/STM32MP157/tf-a/tf-a-stm32mp/../build/optee/bl2/stm32_sdmmc2.o
 .comment       0x000000000000005d       0x5e /home/lodge/STM32MP157/tf-a/tf-a-stm32mp/../build/optee/bl2/raw_nand.o
 .comment       0x000000000000005d       0x5e /home/lodge/STM32MP157/tf-a/tf-a-stm32mp/../build/optee/bl2/stm32_fmc2_nand.o
 .comment       0x000000000000005d       0x5e /home/lodge/STM32MP157/tf-a/tf-a-stm32mp/../build/optee/bl2/spi_nand.o
 .comment       0x000000000000005d       0x5e /home/lodge/STM32MP157/tf-a/tf-a-stm32mp/../build/optee/bl2/spi_nor.o
 .comment       0x000000000000005d       0x5e /home/lodge/STM32MP157/tf-a/tf-a-stm32mp/../build/optee/bl2/spi_mem.o
 .comment       0x000000000000005d       0x5e /home/lodge/STM32MP157/tf-a/tf-a-stm32mp/../build/optee/bl2/stm32_qspi.o
 .comment       0x000000000000005d       0x5e /home/lodge/STM32MP157/tf-a/tf-a-stm32mp/../build/optee/bl2/core.o
 .comment       0x000000000000005d       0x5e /home/lodge/STM32MP157/tf-a/tf-a-stm32mp/../build/optee/bl2/stm32mp1_boot_device.o
 .comment       0x000000000000005d       0x5e /home/lodge/STM32MP157/tf-a/tf-a-stm32mp/../build/optee/bl2/stm32mp1_ddr.o
 .comment       0x000000000000005d       0x5e /home/lodge/STM32MP157/tf-a/tf-a-stm32mp/../build/optee/bl2/stm32mp1_ram.o
 .comment       0x000000000000005d       0x5e /home/lodge/STM32MP157/tf-a/tf-a-stm32mp/../build/optee/bl2/desc_image_load.o
 .comment       0x000000000000005d       0x5e /home/lodge/STM32MP157/tf-a/tf-a-stm32mp/../build/optee/bl2/plat_bl2_mem_params_desc.o
 .comment       0x000000000000005d       0x5e /home/lodge/STM32MP157/tf-a/tf-a-stm32mp/../build/optee/bl2/plat_image_load.o
 .comment       0x000000000000005d       0x5e /home/lodge/STM32MP157/tf-a/tf-a-stm32mp/../build/optee/bl2/optee_utils.o
 .comment       0x000000000000005d       0x5e /home/lodge/STM32MP157/tf-a/tf-a-stm32mp/../build/optee/bl2/bl2_image_load_v2.o
 .comment       0x000000000000005d       0x5e /home/lodge/STM32MP157/tf-a/tf-a-stm32mp/../build/optee/bl2/bl2_main.o
 .comment       0x000000000000005d       0x5e /home/lodge/STM32MP157/tf-a/tf-a-stm32mp/../build/optee/bl2/bl2_arch_setup.o
 .comment       0x000000000000005d       0x5e /home/lodge/STM32MP157/tf-a/tf-a-stm32mp/../build/optee/bl2/bl_common.o
 .comment       0x000000000000005d       0x5e /home/lodge/STM32MP157/tf-a/tf-a-stm32mp/../build/optee/bl2/tf_log.o
 .comment       0x000000000000005d       0x5e /home/lodge/STM32MP157/tf-a/tf-a-stm32mp/../build/optee/bl2/multi_console.o
 .comment       0x000000000000005d       0x5e /home/lodge/STM32MP157/tf-a/tf-a-stm32mp/../build/optee/bl2/plat_bl_common.o
 .comment       0x000000000000005d       0x5e /home/lodge/STM32MP157/tf-a/tf-a-stm32mp/../build/optee/bl2/plat_log_common.o
 .comment       0x000000000000005d       0x5e /home/lodge/STM32MP157/tf-a/tf-a-stm32mp/../build/optee/bl2/popcountsi2.o
 .comment       0x000000000000005d       0x5e /home/lodge/STM32MP157/tf-a/tf-a-stm32mp/../build/optee/bl2/ctzdi2.o
 .comment       0x000000000000005d       0x5e /home/lodge/STM32MP157/tf-a/tf-a-stm32mp/../build/optee/bl2/udivmoddi4.o
 .comment       0x000000000000005d       0x5e /home/lodge/STM32MP157/tf-a/tf-a-stm32mp/../build/optee/bl2/stm32mp_common.o
 .comment       0x000000000000005d       0x5e /home/lodge/STM32MP157/tf-a/tf-a-stm32mp/../build/optee/bl2/stm32mp1_private.o
 .comment       0x000000000000005d       0x5e /home/lodge/STM32MP157/tf-a/tf-a-stm32mp/../build/optee/bl2/xlat_tables_arch.o
 .comment       0x000000000000005d       0x5e /home/lodge/STM32MP157/tf-a/tf-a-stm32mp/../build/optee/bl2/xlat_tables_context.o
 .comment       0x000000000000005d       0x5e /home/lodge/STM32MP157/tf-a/tf-a-stm32mp/../build/optee/bl2/xlat_tables_core.o
 .comment       0x000000000000005d       0x5e /home/lodge/STM32MP157/tf-a/tf-a-stm32mp/../build/optee/bl2/xlat_tables_utils.o
 .comment       0x000000000000005d       0x5e /home/lodge/STM32MP157/tf-a/tf-a-stm32mp/../build/optee/bl2/tzc400.o
 .comment       0x000000000000005d       0x5e /home/lodge/STM32MP157/tf-a/tf-a-stm32mp/../build/optee/bl2/delay_timer.o
 .comment       0x000000000000005d       0x5e /home/lodge/STM32MP157/tf-a/tf-a-stm32mp/../build/optee/bl2/generic_delay_timer.o
 .comment       0x000000000000005d       0x5e /home/lodge/STM32MP157/tf-a/tf-a-stm32mp/../build/optee/bl2/bsec2.o
 .comment       0x000000000000005d       0x5e /home/lodge/STM32MP157/tf-a/tf-a-stm32mp/../build/optee/bl2/stm32mp_clkfunc.o
 .comment       0x000000000000005d       0x5e /home/lodge/STM32MP157/tf-a/tf-a-stm32mp/../build/optee/bl2/stm32mp1_clk.o
 .comment       0x000000000000005d       0x5e /home/lodge/STM32MP157/tf-a/tf-a-stm32mp/../build/optee/bl2/stm32mp1_ddr_helpers.o
 .comment       0x000000000000005d       0x5e /home/lodge/STM32MP157/tf-a/tf-a-stm32mp/../build/optee/bl2/stm32_gpio.o
 .comment       0x000000000000005d       0x5e /home/lodge/STM32MP157/tf-a/tf-a-stm32mp/../build/optee/bl2/stm32_i2c.o
 .comment       0x000000000000005d       0x5e /home/lodge/STM32MP157/tf-a/tf-a-stm32mp/../build/optee/bl2/stm32_iwdg.o
 .comment       0x000000000000005d       0x5e /home/lodge/STM32MP157/tf-a/tf-a-stm32mp/../build/optee/bl2/stm32mp_pmic.o
 .comment       0x000000000000005d       0x5e /home/lodge/STM32MP157/tf-a/tf-a-stm32mp/../build/optee/bl2/stpmic1.o
 .comment       0x000000000000005d       0x5e /home/lodge/STM32MP157/tf-a/tf-a-stm32mp/../build/optee/bl2/stm32mp_dummy_regulator.o
 .comment       0x000000000000005d       0x5e /home/lodge/STM32MP157/tf-a/tf-a-stm32mp/../build/optee/bl2/stm32mp_regulator.o
 .comment       0x000000000000005d       0x5e /home/lodge/STM32MP157/tf-a/tf-a-stm32mp/../build/optee/bl2/stm32mp1_reset.o
 .comment       0x000000000000005d       0x5e /home/lodge/STM32MP157/tf-a/tf-a-stm32mp/../build/optee/bl2/stm32mp_dt.o
 .comment       0x000000000000005d       0x5e /home/lodge/STM32MP157/tf-a/tf-a-stm32mp/../build/optee/bl2/stm32mp_shres_helpers.o
 .comment       0x000000000000005d       0x5e /home/lodge/STM32MP157/tf-a/tf-a-stm32mp/../build/optee/bl2/stm32mp1_context.o
 .comment       0x000000000000005d       0x5e /home/lodge/STM32MP157/tf-a/tf-a-stm32mp/../build/optee/bl2/stm32mp1_dbgmcu.o
 .comment       0x000000000000005d       0x5e /home/lodge/STM32MP157/tf-a/tf-a-stm32mp/../build/optee/bl2/stm32mp1_security.o
 .comment       0x000000000000005d       0x5e /home/lodge/STM32MP157/tf-a/tf-a-stm32mp/../build/optee/bl2/stm32mp1_syscfg.o
 .comment       0x000000000000005d       0x5e /home/lodge/STM32MP157/tf-a/tf-a-stm32mp/../build/optee/lib/libfdt.a(fdt.o)
 .comment       0x000000000000005d       0x5e /home/lodge/STM32MP157/tf-a/tf-a-stm32mp/../build/optee/lib/libfdt.a(fdt_addresses.o)
 .comment       0x000000000000005d       0x5e /home/lodge/STM32MP157/tf-a/tf-a-stm32mp/../build/optee/lib/libfdt.a(fdt_ro.o)
 .comment       0x000000000000005d       0x5e /home/lodge/STM32MP157/tf-a/tf-a-stm32mp/../build/optee/lib/libc.a(assert.o)
 .comment       0x000000000000005d       0x5e /home/lodge/STM32MP157/tf-a/tf-a-stm32mp/../build/optee/lib/libc.a(memchr.o)
 .comment       0x000000000000005d       0x5e /home/lodge/STM32MP157/tf-a/tf-a-stm32mp/../build/optee/lib/libc.a(memcmp.o)
 .comment       0x000000000000005d       0x5e /home/lodge/STM32MP157/tf-a/tf-a-stm32mp/../build/optee/lib/libc.a(memcpy.o)
 .comment       0x000000000000005d       0x5e /home/lodge/STM32MP157/tf-a/tf-a-stm32mp/../build/optee/lib/libc.a(memmove.o)
 .comment       0x000000000000005d       0x5e /home/lodge/STM32MP157/tf-a/tf-a-stm32mp/../build/optee/lib/libc.a(memset.o)
 .comment       0x000000000000005d       0x5e /home/lodge/STM32MP157/tf-a/tf-a-stm32mp/../build/optee/lib/libc.a(printf.o)
 .comment       0x000000000000005d       0x5e /home/lodge/STM32MP157/tf-a/tf-a-stm32mp/../build/optee/lib/libc.a(putchar.o)
 .comment       0x000000000000005d       0x5e /home/lodge/STM32MP157/tf-a/tf-a-stm32mp/../build/optee/lib/libc.a(snprintf.o)
 .comment       0x000000000000005d       0x5e /home/lodge/STM32MP157/tf-a/tf-a-stm32mp/../build/optee/lib/libc.a(strchr.o)
 .comment       0x000000000000005d       0x5e /home/lodge/STM32MP157/tf-a/tf-a-stm32mp/../build/optee/lib/libc.a(strcmp.o)
 .comment       0x000000000000005d       0x5e /home/lodge/STM32MP157/tf-a/tf-a-stm32mp/../build/optee/lib/libc.a(strlen.o)
 .comment       0x000000000000005d       0x5e /home/lodge/STM32MP157/tf-a/tf-a-stm32mp/../build/optee/lib/libc.a(strncmp.o)
 .comment       0x000000000000005d       0x5e /home/lodge/STM32MP157/tf-a/tf-a-stm32mp/../build/optee/lib/libc.a(strnlen.o)
 .comment       0x000000000000005d       0x5e /home/lodge/STM32MP157/tf-a/tf-a-stm32mp/../build/optee/lib/libc.a(strrchr.o)

.note.GNU-stack
                0x0000000000000000        0x0
 .note.GNU-stack
                0x0000000000000000        0x0 /home/lodge/STM32MP157/tf-a/tf-a-stm32mp/../build/optee/bl2/build_message.o
 .note.GNU-stack
                0x0000000000000000        0x0 /home/lodge/STM32MP157/tf-a/tf-a-stm32mp/../build/optee/bl2/io_block.o
 .note.GNU-stack
                0x0000000000000000        0x0 /home/lodge/STM32MP157/tf-a/tf-a-stm32mp/../build/optee/bl2/io_dummy.o
 .note.GNU-stack
                0x0000000000000000        0x0 /home/lodge/STM32MP157/tf-a/tf-a-stm32mp/../build/optee/bl2/io_mtd.o
 .note.GNU-stack
                0x0000000000000000        0x0 /home/lodge/STM32MP157/tf-a/tf-a-stm32mp/../build/optee/bl2/io_storage.o
 .note.GNU-stack
                0x0000000000000000        0x0 /home/lodge/STM32MP157/tf-a/tf-a-stm32mp/../build/optee/bl2/stm32_hash.o
 .note.GNU-stack
                0x0000000000000000        0x0 /home/lodge/STM32MP157/tf-a/tf-a-stm32mp/../build/optee/bl2/io_stm32image.o
 .note.GNU-stack
                0x0000000000000000        0x0 /home/lodge/STM32MP157/tf-a/tf-a-stm32mp/../build/optee/bl2/bl2_io_storage.o
 .note.GNU-stack
                0x0000000000000000        0x0 /home/lodge/STM32MP157/tf-a/tf-a-stm32mp/../build/optee/bl2/bl2_plat_setup.o
 .note.GNU-stack
                0x0000000000000000        0x0 /home/lodge/STM32MP157/tf-a/tf-a-stm32mp/../build/optee/bl2/auth_mod.o
 .note.GNU-stack
                0x0000000000000000        0x0 /home/lodge/STM32MP157/tf-a/tf-a-stm32mp/../build/optee/bl2/crypto_mod.o
 .note.GNU-stack
                0x0000000000000000        0x0 /home/lodge/STM32MP157/tf-a/tf-a-stm32mp/../build/optee/bl2/img_parser_mod.o
 .note.GNU-stack
                0x0000000000000000        0x0 /home/lodge/STM32MP157/tf-a/tf-a-stm32mp/../build/optee/bl2/stm32mp_cot.o
 .note.GNU-stack
                0x0000000000000000        0x0 /home/lodge/STM32MP157/tf-a/tf-a-stm32mp/../build/optee/bl2/stm32mp_crypto_lib.o
 .note.GNU-stack
                0x0000000000000000        0x0 /home/lodge/STM32MP157/tf-a/tf-a-stm32mp/../build/optee/bl2/stm32mp_img_parser_lib.o
 .note.GNU-stack
                0x0000000000000000        0x0 /home/lodge/STM32MP157/tf-a/tf-a-stm32mp/../build/optee/bl2/stm32mp_trusted_boot.o
 .note.GNU-stack
                0x0000000000000000        0x0 /home/lodge/STM32MP157/tf-a/tf-a-stm32mp/../build/optee/bl2/mmc.o
 .note.GNU-stack
                0x0000000000000000        0x0 /home/lodge/STM32MP157/tf-a/tf-a-stm32mp/../build/optee/bl2/gpt.o
 .note.GNU-stack
                0x0000000000000000        0x0 /home/lodge/STM32MP157/tf-a/tf-a-stm32mp/../build/optee/bl2/partition.o
 .note.GNU-stack
                0x0000000000000000        0x0 /home/lodge/STM32MP157/tf-a/tf-a-stm32mp/../build/optee/bl2/io_mmc.o
 .note.GNU-stack
                0x0000000000000000        0x0 /home/lodge/STM32MP157/tf-a/tf-a-stm32mp/../build/optee/bl2/stm32_sdmmc2.o
 .note.GNU-stack
                0x0000000000000000        0x0 /home/lodge/STM32MP157/tf-a/tf-a-stm32mp/../build/optee/bl2/raw_nand.o
 .note.GNU-stack
                0x0000000000000000        0x0 /home/lodge/STM32MP157/tf-a/tf-a-stm32mp/../build/optee/bl2/stm32_fmc2_nand.o
 .note.GNU-stack
                0x0000000000000000        0x0 /home/lodge/STM32MP157/tf-a/tf-a-stm32mp/../build/optee/bl2/spi_nand.o
 .note.GNU-stack
                0x0000000000000000        0x0 /home/lodge/STM32MP157/tf-a/tf-a-stm32mp/../build/optee/bl2/spi_nor.o
 .note.GNU-stack
                0x0000000000000000        0x0 /home/lodge/STM32MP157/tf-a/tf-a-stm32mp/../build/optee/bl2/spi_mem.o
 .note.GNU-stack
                0x0000000000000000        0x0 /home/lodge/STM32MP157/tf-a/tf-a-stm32mp/../build/optee/bl2/stm32_qspi.o
 .note.GNU-stack
                0x0000000000000000        0x0 /home/lodge/STM32MP157/tf-a/tf-a-stm32mp/../build/optee/bl2/core.o
 .note.GNU-stack
                0x0000000000000000        0x0 /home/lodge/STM32MP157/tf-a/tf-a-stm32mp/../build/optee/bl2/stm32mp1_boot_device.o
 .note.GNU-stack
                0x0000000000000000        0x0 /home/lodge/STM32MP157/tf-a/tf-a-stm32mp/../build/optee/bl2/stm32mp1_ddr.o
 .note.GNU-stack
                0x0000000000000000        0x0 /home/lodge/STM32MP157/tf-a/tf-a-stm32mp/../build/optee/bl2/stm32mp1_ram.o
 .note.GNU-stack
                0x0000000000000000        0x0 /home/lodge/STM32MP157/tf-a/tf-a-stm32mp/../build/optee/bl2/desc_image_load.o
 .note.GNU-stack
                0x0000000000000000        0x0 /home/lodge/STM32MP157/tf-a/tf-a-stm32mp/../build/optee/bl2/plat_bl2_mem_params_desc.o
 .note.GNU-stack
                0x0000000000000000        0x0 /home/lodge/STM32MP157/tf-a/tf-a-stm32mp/../build/optee/bl2/plat_image_load.o
 .note.GNU-stack
                0x0000000000000000        0x0 /home/lodge/STM32MP157/tf-a/tf-a-stm32mp/../build/optee/bl2/optee_utils.o
 .note.GNU-stack
                0x0000000000000000        0x0 /home/lodge/STM32MP157/tf-a/tf-a-stm32mp/../build/optee/bl2/bl2_image_load_v2.o
 .note.GNU-stack
                0x0000000000000000        0x0 /home/lodge/STM32MP157/tf-a/tf-a-stm32mp/../build/optee/bl2/bl2_main.o
 .note.GNU-stack
                0x0000000000000000        0x0 /home/lodge/STM32MP157/tf-a/tf-a-stm32mp/../build/optee/bl2/bl2_arch_setup.o
 .note.GNU-stack
                0x0000000000000000        0x0 /home/lodge/STM32MP157/tf-a/tf-a-stm32mp/../build/optee/bl2/bl_common.o
 .note.GNU-stack
                0x0000000000000000        0x0 /home/lodge/STM32MP157/tf-a/tf-a-stm32mp/../build/optee/bl2/tf_log.o
 .note.GNU-stack
                0x0000000000000000        0x0 /home/lodge/STM32MP157/tf-a/tf-a-stm32mp/../build/optee/bl2/multi_console.o
 .note.GNU-stack
                0x0000000000000000        0x0 /home/lodge/STM32MP157/tf-a/tf-a-stm32mp/../build/optee/bl2/plat_bl_common.o
 .note.GNU-stack
                0x0000000000000000        0x0 /home/lodge/STM32MP157/tf-a/tf-a-stm32mp/../build/optee/bl2/plat_log_common.o
 .note.GNU-stack
                0x0000000000000000        0x0 /home/lodge/STM32MP157/tf-a/tf-a-stm32mp/../build/optee/bl2/popcountsi2.o
 .note.GNU-stack
                0x0000000000000000        0x0 /home/lodge/STM32MP157/tf-a/tf-a-stm32mp/../build/optee/bl2/ctzdi2.o
 .note.GNU-stack
                0x0000000000000000        0x0 /home/lodge/STM32MP157/tf-a/tf-a-stm32mp/../build/optee/bl2/udivmoddi4.o
 .note.GNU-stack
                0x0000000000000000        0x0 /home/lodge/STM32MP157/tf-a/tf-a-stm32mp/../build/optee/bl2/stm32mp_common.o
 .note.GNU-stack
                0x0000000000000000        0x0 /home/lodge/STM32MP157/tf-a/tf-a-stm32mp/../build/optee/bl2/stm32mp1_private.o
 .note.GNU-stack
                0x0000000000000000        0x0 /home/lodge/STM32MP157/tf-a/tf-a-stm32mp/../build/optee/bl2/xlat_tables_arch.o
 .note.GNU-stack
                0x0000000000000000        0x0 /home/lodge/STM32MP157/tf-a/tf-a-stm32mp/../build/optee/bl2/xlat_tables_context.o
 .note.GNU-stack
                0x0000000000000000        0x0 /home/lodge/STM32MP157/tf-a/tf-a-stm32mp/../build/optee/bl2/xlat_tables_core.o
 .note.GNU-stack
                0x0000000000000000        0x0 /home/lodge/STM32MP157/tf-a/tf-a-stm32mp/../build/optee/bl2/xlat_tables_utils.o
 .note.GNU-stack
                0x0000000000000000        0x0 /home/lodge/STM32MP157/tf-a/tf-a-stm32mp/../build/optee/bl2/tzc400.o
 .note.GNU-stack
                0x0000000000000000        0x0 /home/lodge/STM32MP157/tf-a/tf-a-stm32mp/../build/optee/bl2/delay_timer.o
 .note.GNU-stack
                0x0000000000000000        0x0 /home/lodge/STM32MP157/tf-a/tf-a-stm32mp/../build/optee/bl2/generic_delay_timer.o
 .note.GNU-stack
                0x0000000000000000        0x0 /home/lodge/STM32MP157/tf-a/tf-a-stm32mp/../build/optee/bl2/bsec2.o
 .note.GNU-stack
                0x0000000000000000        0x0 /home/lodge/STM32MP157/tf-a/tf-a-stm32mp/../build/optee/bl2/stm32mp_clkfunc.o
 .note.GNU-stack
                0x0000000000000000        0x0 /home/lodge/STM32MP157/tf-a/tf-a-stm32mp/../build/optee/bl2/stm32mp1_clk.o
 .note.GNU-stack
                0x0000000000000000        0x0 /home/lodge/STM32MP157/tf-a/tf-a-stm32mp/../build/optee/bl2/stm32mp1_ddr_helpers.o
 .note.GNU-stack
                0x0000000000000000        0x0 /home/lodge/STM32MP157/tf-a/tf-a-stm32mp/../build/optee/bl2/stm32_gpio.o
 .note.GNU-stack
                0x0000000000000000        0x0 /home/lodge/STM32MP157/tf-a/tf-a-stm32mp/../build/optee/bl2/stm32_i2c.o
 .note.GNU-stack
                0x0000000000000000        0x0 /home/lodge/STM32MP157/tf-a/tf-a-stm32mp/../build/optee/bl2/stm32_iwdg.o
 .note.GNU-stack
                0x0000000000000000        0x0 /home/lodge/STM32MP157/tf-a/tf-a-stm32mp/../build/optee/bl2/stm32mp_pmic.o
 .note.GNU-stack
                0x0000000000000000        0x0 /home/lodge/STM32MP157/tf-a/tf-a-stm32mp/../build/optee/bl2/stpmic1.o
 .note.GNU-stack
                0x0000000000000000        0x0 /home/lodge/STM32MP157/tf-a/tf-a-stm32mp/../build/optee/bl2/stm32mp_dummy_regulator.o
 .note.GNU-stack
                0x0000000000000000        0x0 /home/lodge/STM32MP157/tf-a/tf-a-stm32mp/../build/optee/bl2/stm32mp_regulator.o
 .note.GNU-stack
                0x0000000000000000        0x0 /home/lodge/STM32MP157/tf-a/tf-a-stm32mp/../build/optee/bl2/stm32mp1_reset.o
 .note.GNU-stack
                0x0000000000000000        0x0 /home/lodge/STM32MP157/tf-a/tf-a-stm32mp/../build/optee/bl2/stm32mp_dt.o
 .note.GNU-stack
                0x0000000000000000        0x0 /home/lodge/STM32MP157/tf-a/tf-a-stm32mp/../build/optee/bl2/stm32mp_shres_helpers.o
 .note.GNU-stack
                0x0000000000000000        0x0 /home/lodge/STM32MP157/tf-a/tf-a-stm32mp/../build/optee/bl2/stm32mp1_context.o
 .note.GNU-stack
                0x0000000000000000        0x0 /home/lodge/STM32MP157/tf-a/tf-a-stm32mp/../build/optee/bl2/stm32mp1_dbgmcu.o
 .note.GNU-stack
                0x0000000000000000        0x0 /home/lodge/STM32MP157/tf-a/tf-a-stm32mp/../build/optee/bl2/stm32mp1_security.o
 .note.GNU-stack
                0x0000000000000000        0x0 /home/lodge/STM32MP157/tf-a/tf-a-stm32mp/../build/optee/bl2/stm32mp1_syscfg.o
 .note.GNU-stack
                0x0000000000000000        0x0 /home/lodge/STM32MP157/tf-a/tf-a-stm32mp/../build/optee/lib/libfdt.a(fdt.o)
 .note.GNU-stack
                0x0000000000000000        0x0 /home/lodge/STM32MP157/tf-a/tf-a-stm32mp/../build/optee/lib/libfdt.a(fdt_addresses.o)
 .note.GNU-stack
                0x0000000000000000        0x0 /home/lodge/STM32MP157/tf-a/tf-a-stm32mp/../build/optee/lib/libfdt.a(fdt_ro.o)
 .note.GNU-stack
                0x0000000000000000        0x0 /home/lodge/STM32MP157/tf-a/tf-a-stm32mp/../build/optee/lib/libc.a(assert.o)
 .note.GNU-stack
                0x0000000000000000        0x0 /home/lodge/STM32MP157/tf-a/tf-a-stm32mp/../build/optee/lib/libc.a(memchr.o)
 .note.GNU-stack
                0x0000000000000000        0x0 /home/lodge/STM32MP157/tf-a/tf-a-stm32mp/../build/optee/lib/libc.a(memcmp.o)
 .note.GNU-stack
                0x0000000000000000        0x0 /home/lodge/STM32MP157/tf-a/tf-a-stm32mp/../build/optee/lib/libc.a(memcpy.o)
 .note.GNU-stack
                0x0000000000000000        0x0 /home/lodge/STM32MP157/tf-a/tf-a-stm32mp/../build/optee/lib/libc.a(memmove.o)
 .note.GNU-stack
                0x0000000000000000        0x0 /home/lodge/STM32MP157/tf-a/tf-a-stm32mp/../build/optee/lib/libc.a(memset.o)
 .note.GNU-stack
                0x0000000000000000        0x0 /home/lodge/STM32MP157/tf-a/tf-a-stm32mp/../build/optee/lib/libc.a(printf.o)
 .note.GNU-stack
                0x0000000000000000        0x0 /home/lodge/STM32MP157/tf-a/tf-a-stm32mp/../build/optee/lib/libc.a(putchar.o)
 .note.GNU-stack
                0x0000000000000000        0x0 /home/lodge/STM32MP157/tf-a/tf-a-stm32mp/../build/optee/lib/libc.a(snprintf.o)
 .note.GNU-stack
                0x0000000000000000        0x0 /home/lodge/STM32MP157/tf-a/tf-a-stm32mp/../build/optee/lib/libc.a(strchr.o)
 .note.GNU-stack
                0x0000000000000000        0x0 /home/lodge/STM32MP157/tf-a/tf-a-stm32mp/../build/optee/lib/libc.a(strcmp.o)
 .note.GNU-stack
                0x0000000000000000        0x0 /home/lodge/STM32MP157/tf-a/tf-a-stm32mp/../build/optee/lib/libc.a(strlen.o)
 .note.GNU-stack
                0x0000000000000000        0x0 /home/lodge/STM32MP157/tf-a/tf-a-stm32mp/../build/optee/lib/libc.a(strncmp.o)
 .note.GNU-stack
                0x0000000000000000        0x0 /home/lodge/STM32MP157/tf-a/tf-a-stm32mp/../build/optee/lib/libc.a(strnlen.o)
 .note.GNU-stack
                0x0000000000000000        0x0 /home/lodge/STM32MP157/tf-a/tf-a-stm32mp/../build/optee/lib/libc.a(strrchr.o)

.ARM.attributes
                0x0000000000000000       0x3b
 .ARM.attributes
                0x0000000000000000       0x3d /home/lodge/STM32MP157/tf-a/tf-a-stm32mp/../build/optee/bl2/build_message.o
 .ARM.attributes
                0x000000000000003d       0x33 /home/lodge/STM32MP157/tf-a/tf-a-stm32mp/../build/optee/bl2/io_block.o
 .ARM.attributes
                0x0000000000000070       0x33 /home/lodge/STM32MP157/tf-a/tf-a-stm32mp/../build/optee/bl2/io_dummy.o
 .ARM.attributes
                0x00000000000000a3       0x33 /home/lodge/STM32MP157/tf-a/tf-a-stm32mp/../build/optee/bl2/io_mtd.o
 .ARM.attributes
                0x00000000000000d6       0x33 /home/lodge/STM32MP157/tf-a/tf-a-stm32mp/../build/optee/bl2/io_storage.o
 .ARM.attributes
                0x0000000000000109       0x33 /home/lodge/STM32MP157/tf-a/tf-a-stm32mp/../build/optee/bl2/stm32_hash.o
 .ARM.attributes
                0x000000000000013c       0x33 /home/lodge/STM32MP157/tf-a/tf-a-stm32mp/../build/optee/bl2/io_stm32image.o
 .ARM.attributes
                0x000000000000016f       0x33 /home/lodge/STM32MP157/tf-a/tf-a-stm32mp/../build/optee/bl2/bl2_io_storage.o
 .ARM.attributes
                0x00000000000001a2       0x33 /home/lodge/STM32MP157/tf-a/tf-a-stm32mp/../build/optee/bl2/bl2_plat_setup.o
 .ARM.attributes
                0x00000000000001d5       0x33 /home/lodge/STM32MP157/tf-a/tf-a-stm32mp/../build/optee/bl2/auth_mod.o
 .ARM.attributes
                0x0000000000000208       0x33 /home/lodge/STM32MP157/tf-a/tf-a-stm32mp/../build/optee/bl2/crypto_mod.o
 .ARM.attributes
                0x000000000000023b       0x33 /home/lodge/STM32MP157/tf-a/tf-a-stm32mp/../build/optee/bl2/img_parser_mod.o
 .ARM.attributes
                0x000000000000026e       0x3d /home/lodge/STM32MP157/tf-a/tf-a-stm32mp/../build/optee/bl2/stm32mp_cot.o
 .ARM.attributes
                0x00000000000002ab       0x33 /home/lodge/STM32MP157/tf-a/tf-a-stm32mp/../build/optee/bl2/stm32mp_crypto_lib.o
 .ARM.attributes
                0x00000000000002de       0x33 /home/lodge/STM32MP157/tf-a/tf-a-stm32mp/../build/optee/bl2/stm32mp_img_parser_lib.o
 .ARM.attributes
                0x0000000000000311       0x33 /home/lodge/STM32MP157/tf-a/tf-a-stm32mp/../build/optee/bl2/stm32mp_trusted_boot.o
 .ARM.attributes
                0x0000000000000344       0x33 /home/lodge/STM32MP157/tf-a/tf-a-stm32mp/../build/optee/bl2/mmc.o
 .ARM.attributes
                0x0000000000000377       0x33 /home/lodge/STM32MP157/tf-a/tf-a-stm32mp/../build/optee/bl2/gpt.o
 .ARM.attributes
                0x00000000000003aa       0x33 /home/lodge/STM32MP157/tf-a/tf-a-stm32mp/../build/optee/bl2/partition.o
 .ARM.attributes
                0x00000000000003dd       0x33 /home/lodge/STM32MP157/tf-a/tf-a-stm32mp/../build/optee/bl2/io_mmc.o
 .ARM.attributes
                0x0000000000000410       0x33 /home/lodge/STM32MP157/tf-a/tf-a-stm32mp/../build/optee/bl2/stm32_sdmmc2.o
 .ARM.attributes
                0x0000000000000443       0x33 /home/lodge/STM32MP157/tf-a/tf-a-stm32mp/../build/optee/bl2/raw_nand.o
 .ARM.attributes
                0x0000000000000476       0x33 /home/lodge/STM32MP157/tf-a/tf-a-stm32mp/../build/optee/bl2/stm32_fmc2_nand.o
 .ARM.attributes
                0x00000000000004a9       0x33 /home/lodge/STM32MP157/tf-a/tf-a-stm32mp/../build/optee/bl2/spi_nand.o
 .ARM.attributes
                0x00000000000004dc       0x33 /home/lodge/STM32MP157/tf-a/tf-a-stm32mp/../build/optee/bl2/spi_nor.o
 .ARM.attributes
                0x000000000000050f       0x33 /home/lodge/STM32MP157/tf-a/tf-a-stm32mp/../build/optee/bl2/spi_mem.o
 .ARM.attributes
                0x0000000000000542       0x33 /home/lodge/STM32MP157/tf-a/tf-a-stm32mp/../build/optee/bl2/stm32_qspi.o
 .ARM.attributes
                0x0000000000000575       0x33 /home/lodge/STM32MP157/tf-a/tf-a-stm32mp/../build/optee/bl2/core.o
 .ARM.attributes
                0x00000000000005a8       0x33 /home/lodge/STM32MP157/tf-a/tf-a-stm32mp/../build/optee/bl2/stm32mp1_boot_device.o
 .ARM.attributes
                0x00000000000005db       0x33 /home/lodge/STM32MP157/tf-a/tf-a-stm32mp/../build/optee/bl2/stm32mp1_ddr.o
 .ARM.attributes
                0x000000000000060e       0x33 /home/lodge/STM32MP157/tf-a/tf-a-stm32mp/../build/optee/bl2/stm32mp1_ram.o
 .ARM.attributes
                0x0000000000000641       0x33 /home/lodge/STM32MP157/tf-a/tf-a-stm32mp/../build/optee/bl2/desc_image_load.o
 .ARM.attributes
                0x0000000000000674       0x3d /home/lodge/STM32MP157/tf-a/tf-a-stm32mp/../build/optee/bl2/plat_bl2_mem_params_desc.o
 .ARM.attributes
                0x00000000000006b1       0x33 /home/lodge/STM32MP157/tf-a/tf-a-stm32mp/../build/optee/bl2/plat_image_load.o
 .ARM.attributes
                0x00000000000006e4       0x33 /home/lodge/STM32MP157/tf-a/tf-a-stm32mp/../build/optee/bl2/optee_utils.o
 .ARM.attributes
                0x0000000000000717       0x33 /home/lodge/STM32MP157/tf-a/tf-a-stm32mp/../build/optee/bl2/bl2_image_load_v2.o
 .ARM.attributes
                0x000000000000074a       0x33 /home/lodge/STM32MP157/tf-a/tf-a-stm32mp/../build/optee/bl2/bl2_main.o
 .ARM.attributes
                0x000000000000077d       0x33 /home/lodge/STM32MP157/tf-a/tf-a-stm32mp/../build/optee/bl2/bl2_arch_setup.o
 .ARM.attributes
                0x00000000000007b0       0x33 /home/lodge/STM32MP157/tf-a/tf-a-stm32mp/../build/optee/bl2/bl_common.o
 .ARM.attributes
                0x00000000000007e3       0x33 /home/lodge/STM32MP157/tf-a/tf-a-stm32mp/../build/optee/bl2/tf_log.o
 .ARM.attributes
                0x0000000000000816       0x33 /home/lodge/STM32MP157/tf-a/tf-a-stm32mp/../build/optee/bl2/multi_console.o
 .ARM.attributes
                0x0000000000000849       0x33 /home/lodge/STM32MP157/tf-a/tf-a-stm32mp/../build/optee/bl2/plat_bl_common.o
 .ARM.attributes
                0x000000000000087c       0x33 /home/lodge/STM32MP157/tf-a/tf-a-stm32mp/../build/optee/bl2/plat_log_common.o
 .ARM.attributes
                0x00000000000008af       0x33 /home/lodge/STM32MP157/tf-a/tf-a-stm32mp/../build/optee/bl2/popcountsi2.o
 .ARM.attributes
                0x00000000000008e2       0x33 /home/lodge/STM32MP157/tf-a/tf-a-stm32mp/../build/optee/bl2/ctzdi2.o
 .ARM.attributes
                0x0000000000000915       0x33 /home/lodge/STM32MP157/tf-a/tf-a-stm32mp/../build/optee/bl2/udivmoddi4.o
 .ARM.attributes
                0x0000000000000948       0x33 /home/lodge/STM32MP157/tf-a/tf-a-stm32mp/../build/optee/bl2/stm32mp_common.o
 .ARM.attributes
                0x000000000000097b       0x33 /home/lodge/STM32MP157/tf-a/tf-a-stm32mp/../build/optee/bl2/stm32mp1_private.o
 .ARM.attributes
                0x00000000000009ae       0x33 /home/lodge/STM32MP157/tf-a/tf-a-stm32mp/../build/optee/bl2/xlat_tables_arch.o
 .ARM.attributes
                0x00000000000009e1       0x33 /home/lodge/STM32MP157/tf-a/tf-a-stm32mp/../build/optee/bl2/xlat_tables_context.o
 .ARM.attributes
                0x0000000000000a14       0x33 /home/lodge/STM32MP157/tf-a/tf-a-stm32mp/../build/optee/bl2/xlat_tables_core.o
 .ARM.attributes
                0x0000000000000a47       0x33 /home/lodge/STM32MP157/tf-a/tf-a-stm32mp/../build/optee/bl2/xlat_tables_utils.o
 .ARM.attributes
                0x0000000000000a7a       0x33 /home/lodge/STM32MP157/tf-a/tf-a-stm32mp/../build/optee/bl2/tzc400.o
 .ARM.attributes
                0x0000000000000aad       0x33 /home/lodge/STM32MP157/tf-a/tf-a-stm32mp/../build/optee/bl2/delay_timer.o
 .ARM.attributes
                0x0000000000000ae0       0x33 /home/lodge/STM32MP157/tf-a/tf-a-stm32mp/../build/optee/bl2/generic_delay_timer.o
 .ARM.attributes
                0x0000000000000b13       0x33 /home/lodge/STM32MP157/tf-a/tf-a-stm32mp/../build/optee/bl2/bsec2.o
 .ARM.attributes
                0x0000000000000b46       0x33 /home/lodge/STM32MP157/tf-a/tf-a-stm32mp/../build/optee/bl2/stm32mp_clkfunc.o
 .ARM.attributes
                0x0000000000000b79       0x33 /home/lodge/STM32MP157/tf-a/tf-a-stm32mp/../build/optee/bl2/stm32mp1_clk.o
 .ARM.attributes
                0x0000000000000bac       0x33 /home/lodge/STM32MP157/tf-a/tf-a-stm32mp/../build/optee/bl2/stm32mp1_ddr_helpers.o
 .ARM.attributes
                0x0000000000000bdf       0x33 /home/lodge/STM32MP157/tf-a/tf-a-stm32mp/../build/optee/bl2/stm32_gpio.o
 .ARM.attributes
                0x0000000000000c12       0x33 /home/lodge/STM32MP157/tf-a/tf-a-stm32mp/../build/optee/bl2/stm32_i2c.o
 .ARM.attributes
                0x0000000000000c45       0x33 /home/lodge/STM32MP157/tf-a/tf-a-stm32mp/../build/optee/bl2/stm32_iwdg.o
 .ARM.attributes
                0x0000000000000c78       0x33 /home/lodge/STM32MP157/tf-a/tf-a-stm32mp/../build/optee/bl2/stm32mp_pmic.o
 .ARM.attributes
                0x0000000000000cab       0x33 /home/lodge/STM32MP157/tf-a/tf-a-stm32mp/../build/optee/bl2/stpmic1.o
 .ARM.attributes
                0x0000000000000cde       0x33 /home/lodge/STM32MP157/tf-a/tf-a-stm32mp/../build/optee/bl2/stm32mp_dummy_regulator.o
 .ARM.attributes
                0x0000000000000d11       0x33 /home/lodge/STM32MP157/tf-a/tf-a-stm32mp/../build/optee/bl2/stm32mp_regulator.o
 .ARM.attributes
                0x0000000000000d44       0x33 /home/lodge/STM32MP157/tf-a/tf-a-stm32mp/../build/optee/bl2/stm32mp1_reset.o
 .ARM.attributes
                0x0000000000000d77       0x33 /home/lodge/STM32MP157/tf-a/tf-a-stm32mp/../build/optee/bl2/stm32mp_dt.o
 .ARM.attributes
                0x0000000000000daa       0x33 /home/lodge/STM32MP157/tf-a/tf-a-stm32mp/../build/optee/bl2/stm32mp_shres_helpers.o
 .ARM.attributes
                0x0000000000000ddd       0x33 /home/lodge/STM32MP157/tf-a/tf-a-stm32mp/../build/optee/bl2/stm32mp1_context.o
 .ARM.attributes
                0x0000000000000e10       0x33 /home/lodge/STM32MP157/tf-a/tf-a-stm32mp/../build/optee/bl2/stm32mp1_dbgmcu.o
 .ARM.attributes
                0x0000000000000e43       0x33 /home/lodge/STM32MP157/tf-a/tf-a-stm32mp/../build/optee/bl2/stm32mp1_security.o
 .ARM.attributes
                0x0000000000000e76       0x33 /home/lodge/STM32MP157/tf-a/tf-a-stm32mp/../build/optee/bl2/stm32mp1_syscfg.o
 .ARM.attributes
                0x0000000000000ea9       0x27 /home/lodge/STM32MP157/tf-a/tf-a-stm32mp/../build/optee/bl2/spinlock.o
 .ARM.attributes
                0x0000000000000ed0       0x27 /home/lodge/STM32MP157/tf-a/tf-a-stm32mp/../build/optee/bl2/platform_up_stack.o
 .ARM.attributes
                0x0000000000000ef7       0x27 /home/lodge/STM32MP157/tf-a/tf-a-stm32mp/../build/optee/bl2/bl2_el3_entrypoint.o
 .ARM.attributes
                0x0000000000000f1e       0x27 /home/lodge/STM32MP157/tf-a/tf-a-stm32mp/../build/optee/bl2/bl2_el3_exceptions.o
 .ARM.attributes
                0x0000000000000f45       0x27 /home/lodge/STM32MP157/tf-a/tf-a-stm32mp/../build/optee/bl2/cpu_helpers.o
 .ARM.attributes
                0x0000000000000f6c       0x27 /home/lodge/STM32MP157/tf-a/tf-a-stm32mp/../build/optee/bl2/debug.o
 .ARM.attributes
                0x0000000000000f93       0x27 /home/lodge/STM32MP157/tf-a/tf-a-stm32mp/../build/optee/bl2/cache_helpers.o
 .ARM.attributes
                0x0000000000000fba       0x27 /home/lodge/STM32MP157/tf-a/tf-a-stm32mp/../build/optee/bl2/misc_helpers.o
 .ARM.attributes
                0x0000000000000fe1       0x27 /home/lodge/STM32MP157/tf-a/tf-a-stm32mp/../build/optee/bl2/aeabi_uldivmod.o
 .ARM.attributes
                0x0000000000001008       0x27 /home/lodge/STM32MP157/tf-a/tf-a-stm32mp/../build/optee/bl2/stm32_console.o
 .ARM.attributes
                0x000000000000102f       0x27 /home/lodge/STM32MP157/tf-a/tf-a-stm32mp/../build/optee/bl2/enable_mmu.o
 .ARM.attributes
                0x0000000000001056       0x27 /home/lodge/STM32MP157/tf-a/tf-a-stm32mp/../build/optee/bl2/cortex_a7.o
 .ARM.attributes
                0x000000000000107d       0x27 /home/lodge/STM32MP157/tf-a/tf-a-stm32mp/../build/optee/bl2/stm32mp1_helper.o
 .ARM.attributes
                0x00000000000010a4       0x33 /home/lodge/STM32MP157/tf-a/tf-a-stm32mp/../build/optee/lib/libfdt.a(fdt.o)
 .ARM.attributes
                0x00000000000010d7       0x33 /home/lodge/STM32MP157/tf-a/tf-a-stm32mp/../build/optee/lib/libfdt.a(fdt_addresses.o)
 .ARM.attributes
                0x000000000000110a       0x33 /home/lodge/STM32MP157/tf-a/tf-a-stm32mp/../build/optee/lib/libfdt.a(fdt_ro.o)
 .ARM.attributes
                0x000000000000113d       0x33 /home/lodge/STM32MP157/tf-a/tf-a-stm32mp/../build/optee/lib/libc.a(assert.o)
 .ARM.attributes
                0x0000000000001170       0x33 /home/lodge/STM32MP157/tf-a/tf-a-stm32mp/../build/optee/lib/libc.a(memchr.o)
 .ARM.attributes
                0x00000000000011a3       0x33 /home/lodge/STM32MP157/tf-a/tf-a-stm32mp/../build/optee/lib/libc.a(memcmp.o)
 .ARM.attributes
                0x00000000000011d6       0x33 /home/lodge/STM32MP157/tf-a/tf-a-stm32mp/../build/optee/lib/libc.a(memcpy.o)
 .ARM.attributes
                0x0000000000001209       0x33 /home/lodge/STM32MP157/tf-a/tf-a-stm32mp/../build/optee/lib/libc.a(memmove.o)
 .ARM.attributes
                0x000000000000123c       0x33 /home/lodge/STM32MP157/tf-a/tf-a-stm32mp/../build/optee/lib/libc.a(memset.o)
 .ARM.attributes
                0x000000000000126f       0x33 /home/lodge/STM32MP157/tf-a/tf-a-stm32mp/../build/optee/lib/libc.a(printf.o)
 .ARM.attributes
                0x00000000000012a2       0x33 /home/lodge/STM32MP157/tf-a/tf-a-stm32mp/../build/optee/lib/libc.a(putchar.o)
 .ARM.attributes
                0x00000000000012d5       0x33 /home/lodge/STM32MP157/tf-a/tf-a-stm32mp/../build/optee/lib/libc.a(snprintf.o)
 .ARM.attributes
                0x0000000000001308       0x33 /home/lodge/STM32MP157/tf-a/tf-a-stm32mp/../build/optee/lib/libc.a(strchr.o)
 .ARM.attributes
                0x000000000000133b       0x33 /home/lodge/STM32MP157/tf-a/tf-a-stm32mp/../build/optee/lib/libc.a(strcmp.o)
 .ARM.attributes
                0x000000000000136e       0x33 /home/lodge/STM32MP157/tf-a/tf-a-stm32mp/../build/optee/lib/libc.a(strlen.o)
 .ARM.attributes
                0x00000000000013a1       0x33 /home/lodge/STM32MP157/tf-a/tf-a-stm32mp/../build/optee/lib/libc.a(strncmp.o)
 .ARM.attributes
                0x00000000000013d4       0x33 /home/lodge/STM32MP157/tf-a/tf-a-stm32mp/../build/optee/lib/libc.a(strnlen.o)
 .ARM.attributes
                0x0000000000001407       0x33 /home/lodge/STM32MP157/tf-a/tf-a-stm32mp/../build/optee/lib/libc.a(strrchr.o)

.debug_loc      0x0000000000000000    0x2e6d3
 .debug_loc     0x0000000000000000      0xd4e /home/lodge/STM32MP157/tf-a/tf-a-stm32mp/../build/optee/bl2/io_block.o
 .debug_loc     0x0000000000000d4e      0x5b6 /home/lodge/STM32MP157/tf-a/tf-a-stm32mp/../build/optee/bl2/io_dummy.o
 .debug_loc     0x0000000000001304      0x86a /home/lodge/STM32MP157/tf-a/tf-a-stm32mp/../build/optee/bl2/io_mtd.o
 .debug_loc     0x0000000000001b6e      0xfed /home/lodge/STM32MP157/tf-a/tf-a-stm32mp/../build/optee/bl2/io_storage.o
 .debug_loc     0x0000000000002b5b      0xa9e /home/lodge/STM32MP157/tf-a/tf-a-stm32mp/../build/optee/bl2/stm32_hash.o
 .debug_loc     0x00000000000035f9      0x75d /home/lodge/STM32MP157/tf-a/tf-a-stm32mp/../build/optee/bl2/io_stm32image.o
 .debug_loc     0x0000000000003d56      0x82b /home/lodge/STM32MP157/tf-a/tf-a-stm32mp/../build/optee/bl2/bl2_io_storage.o
 .debug_loc     0x0000000000004581      0x921 /home/lodge/STM32MP157/tf-a/tf-a-stm32mp/../build/optee/bl2/bl2_plat_setup.o
 .debug_loc     0x0000000000004ea2      0x62d /home/lodge/STM32MP157/tf-a/tf-a-stm32mp/../build/optee/bl2/auth_mod.o
 .debug_loc     0x00000000000054cf      0x38a /home/lodge/STM32MP157/tf-a/tf-a-stm32mp/../build/optee/bl2/crypto_mod.o
 .debug_loc     0x0000000000005859      0x4b2 /home/lodge/STM32MP157/tf-a/tf-a-stm32mp/../build/optee/bl2/img_parser_mod.o
 .debug_loc     0x0000000000005d0b      0x39d /home/lodge/STM32MP157/tf-a/tf-a-stm32mp/../build/optee/bl2/stm32mp_crypto_lib.o
 .debug_loc     0x00000000000060a8      0x19b /home/lodge/STM32MP157/tf-a/tf-a-stm32mp/../build/optee/bl2/stm32mp_img_parser_lib.o
 .debug_loc     0x0000000000006243      0x1d7 /home/lodge/STM32MP157/tf-a/tf-a-stm32mp/../build/optee/bl2/stm32mp_trusted_boot.o
 .debug_loc     0x000000000000641a     0x1077 /home/lodge/STM32MP157/tf-a/tf-a-stm32mp/../build/optee/bl2/mmc.o
 .debug_loc     0x0000000000007491      0x15e /home/lodge/STM32MP157/tf-a/tf-a-stm32mp/../build/optee/bl2/gpt.o
 .debug_loc     0x00000000000075ef      0x4e1 /home/lodge/STM32MP157/tf-a/tf-a-stm32mp/../build/optee/bl2/partition.o
 .debug_loc     0x0000000000007ad0      0x2b9 /home/lodge/STM32MP157/tf-a/tf-a-stm32mp/../build/optee/bl2/io_mmc.o
 .debug_loc     0x0000000000007d89     0x176e /home/lodge/STM32MP157/tf-a/tf-a-stm32mp/../build/optee/bl2/stm32_sdmmc2.o
 .debug_loc     0x00000000000094f7      0xad2 /home/lodge/STM32MP157/tf-a/tf-a-stm32mp/../build/optee/bl2/raw_nand.o
 .debug_loc     0x0000000000009fc9     0x2446 /home/lodge/STM32MP157/tf-a/tf-a-stm32mp/../build/optee/bl2/stm32_fmc2_nand.o
 .debug_loc     0x000000000000c40f      0x8b9 /home/lodge/STM32MP157/tf-a/tf-a-stm32mp/../build/optee/bl2/spi_nand.o
 .debug_loc     0x000000000000ccc8      0x661 /home/lodge/STM32MP157/tf-a/tf-a-stm32mp/../build/optee/bl2/spi_nor.o
 .debug_loc     0x000000000000d329      0x472 /home/lodge/STM32MP157/tf-a/tf-a-stm32mp/../build/optee/bl2/spi_mem.o
 .debug_loc     0x000000000000d79b      0xfd3 /home/lodge/STM32MP157/tf-a/tf-a-stm32mp/../build/optee/bl2/stm32_qspi.o
 .debug_loc     0x000000000000e76e      0x33e /home/lodge/STM32MP157/tf-a/tf-a-stm32mp/../build/optee/bl2/core.o
 .debug_loc     0x000000000000eaac       0xc0 /home/lodge/STM32MP157/tf-a/tf-a-stm32mp/../build/optee/bl2/stm32mp1_boot_device.o
 .debug_loc     0x000000000000eb6c     0x27af /home/lodge/STM32MP157/tf-a/tf-a-stm32mp/../build/optee/bl2/stm32mp1_ddr.o
 .debug_loc     0x000000000001131b      0x8a9 /home/lodge/STM32MP157/tf-a/tf-a-stm32mp/../build/optee/bl2/stm32mp1_ram.o
 .debug_loc     0x0000000000011bc4      0x8ac /home/lodge/STM32MP157/tf-a/tf-a-stm32mp/../build/optee/bl2/desc_image_load.o
 .debug_loc     0x0000000000012470       0xee /home/lodge/STM32MP157/tf-a/tf-a-stm32mp/../build/optee/bl2/plat_image_load.o
 .debug_loc     0x000000000001255e      0x344 /home/lodge/STM32MP157/tf-a/tf-a-stm32mp/../build/optee/bl2/optee_utils.o
 .debug_loc     0x00000000000128a2      0x156 /home/lodge/STM32MP157/tf-a/tf-a-stm32mp/../build/optee/bl2/bl2_image_load_v2.o
 .debug_loc     0x00000000000129f8       0xc3 /home/lodge/STM32MP157/tf-a/tf-a-stm32mp/../build/optee/bl2/bl2_main.o
 .debug_loc     0x0000000000012abb      0x3cb /home/lodge/STM32MP157/tf-a/tf-a-stm32mp/../build/optee/bl2/bl_common.o
 .debug_loc     0x0000000000012e86       0xb5 /home/lodge/STM32MP157/tf-a/tf-a-stm32mp/../build/optee/bl2/tf_log.o
 .debug_loc     0x0000000000012f3b      0x321 /home/lodge/STM32MP157/tf-a/tf-a-stm32mp/../build/optee/bl2/multi_console.o
 .debug_loc     0x000000000001325c       0x91 /home/lodge/STM32MP157/tf-a/tf-a-stm32mp/../build/optee/bl2/plat_bl_common.o
 .debug_loc     0x00000000000132ed       0x96 /home/lodge/STM32MP157/tf-a/tf-a-stm32mp/../build/optee/bl2/plat_log_common.o
 .debug_loc     0x0000000000013383      0x12e /home/lodge/STM32MP157/tf-a/tf-a-stm32mp/../build/optee/bl2/popcountsi2.o
 .debug_loc     0x00000000000134b1       0x41 /home/lodge/STM32MP157/tf-a/tf-a-stm32mp/../build/optee/bl2/ctzdi2.o
 .debug_loc     0x00000000000134f2      0x2da /home/lodge/STM32MP157/tf-a/tf-a-stm32mp/../build/optee/bl2/udivmoddi4.o
 .debug_loc     0x00000000000137cc      0x2d8 /home/lodge/STM32MP157/tf-a/tf-a-stm32mp/../build/optee/bl2/stm32mp_common.o
 .debug_loc     0x0000000000013aa4      0x892 /home/lodge/STM32MP157/tf-a/tf-a-stm32mp/../build/optee/bl2/stm32mp1_private.o
 .debug_loc     0x0000000000014336      0x4c4 /home/lodge/STM32MP157/tf-a/tf-a-stm32mp/../build/optee/bl2/xlat_tables_arch.o
 .debug_loc     0x00000000000147fa      0x593 /home/lodge/STM32MP157/tf-a/tf-a-stm32mp/../build/optee/bl2/xlat_tables_context.o
 .debug_loc     0x0000000000014d8d     0x1ad7 /home/lodge/STM32MP157/tf-a/tf-a-stm32mp/../build/optee/bl2/xlat_tables_core.o
 .debug_loc     0x0000000000016864      0x938 /home/lodge/STM32MP157/tf-a/tf-a-stm32mp/../build/optee/bl2/xlat_tables_utils.o
 .debug_loc     0x000000000001719c      0xd72 /home/lodge/STM32MP157/tf-a/tf-a-stm32mp/../build/optee/bl2/tzc400.o
 .debug_loc     0x0000000000017f0e      0x116 /home/lodge/STM32MP157/tf-a/tf-a-stm32mp/../build/optee/bl2/delay_timer.o
 .debug_loc     0x0000000000018024       0xc6 /home/lodge/STM32MP157/tf-a/tf-a-stm32mp/../build/optee/bl2/generic_delay_timer.o
 .debug_loc     0x00000000000180ea     0x1462 /home/lodge/STM32MP157/tf-a/tf-a-stm32mp/../build/optee/bl2/bsec2.o
 .debug_loc     0x000000000001954c      0xc0c /home/lodge/STM32MP157/tf-a/tf-a-stm32mp/../build/optee/bl2/stm32mp_clkfunc.o
 .debug_loc     0x000000000001a158     0x6624 /home/lodge/STM32MP157/tf-a/tf-a-stm32mp/../build/optee/bl2/stm32mp1_clk.o
 .debug_loc     0x000000000002077c     0x3498 /home/lodge/STM32MP157/tf-a/tf-a-stm32mp/../build/optee/bl2/stm32mp1_ddr_helpers.o
 .debug_loc     0x0000000000023c14      0xfec /home/lodge/STM32MP157/tf-a/tf-a-stm32mp/../build/optee/bl2/stm32_gpio.o
 .debug_loc     0x0000000000024c00     0x2ef9 /home/lodge/STM32MP157/tf-a/tf-a-stm32mp/../build/optee/bl2/stm32_i2c.o
 .debug_loc     0x0000000000027af9      0x266 /home/lodge/STM32MP157/tf-a/tf-a-stm32mp/../build/optee/bl2/stm32_iwdg.o
 .debug_loc     0x0000000000027d5f      0x968 /home/lodge/STM32MP157/tf-a/tf-a-stm32mp/../build/optee/bl2/stm32mp_pmic.o
 .debug_loc     0x00000000000286c7      0x75a /home/lodge/STM32MP157/tf-a/tf-a-stm32mp/../build/optee/bl2/stpmic1.o
 .debug_loc     0x0000000000028e21       0x25 /home/lodge/STM32MP157/tf-a/tf-a-stm32mp/../build/optee/bl2/stm32mp_dummy_regulator.o
 .debug_loc     0x0000000000028e46       0xeb /home/lodge/STM32MP157/tf-a/tf-a-stm32mp/../build/optee/bl2/stm32mp_regulator.o
 .debug_loc     0x0000000000028f31      0x3d8 /home/lodge/STM32MP157/tf-a/tf-a-stm32mp/../build/optee/bl2/stm32mp1_reset.o
 .debug_loc     0x0000000000029309      0xfc2 /home/lodge/STM32MP157/tf-a/tf-a-stm32mp/../build/optee/bl2/stm32mp_dt.o
 .debug_loc     0x000000000002a2cb      0x2be /home/lodge/STM32MP157/tf-a/tf-a-stm32mp/../build/optee/bl2/stm32mp_shres_helpers.o
 .debug_loc     0x000000000002a589      0x227 /home/lodge/STM32MP157/tf-a/tf-a-stm32mp/../build/optee/bl2/stm32mp1_context.o
 .debug_loc     0x000000000002a7b0      0x1b5 /home/lodge/STM32MP157/tf-a/tf-a-stm32mp/../build/optee/bl2/stm32mp1_dbgmcu.o
 .debug_loc     0x000000000002a965       0x4a /home/lodge/STM32MP157/tf-a/tf-a-stm32mp/../build/optee/bl2/stm32mp1_security.o
 .debug_loc     0x000000000002a9af      0x52c /home/lodge/STM32MP157/tf-a/tf-a-stm32mp/../build/optee/bl2/stm32mp1_syscfg.o
 .debug_loc     0x000000000002aedb      0x60f /home/lodge/STM32MP157/tf-a/tf-a-stm32mp/../build/optee/lib/libfdt.a(fdt.o)
 .debug_loc     0x000000000002b4ea      0x146 /home/lodge/STM32MP157/tf-a/tf-a-stm32mp/../build/optee/lib/libfdt.a(fdt_addresses.o)
 .debug_loc     0x000000000002b630     0x1fcb /home/lodge/STM32MP157/tf-a/tf-a-stm32mp/../build/optee/lib/libfdt.a(fdt_ro.o)
 .debug_loc     0x000000000002d5fb       0x64 /home/lodge/STM32MP157/tf-a/tf-a-stm32mp/../build/optee/lib/libc.a(assert.o)
 .debug_loc     0x000000000002d65f      0x10a /home/lodge/STM32MP157/tf-a/tf-a-stm32mp/../build/optee/lib/libc.a(memchr.o)
 .debug_loc     0x000000000002d769      0x11a /home/lodge/STM32MP157/tf-a/tf-a-stm32mp/../build/optee/lib/libc.a(memcmp.o)
 .debug_loc     0x000000000002d883       0xa2 /home/lodge/STM32MP157/tf-a/tf-a-stm32mp/../build/optee/lib/libc.a(memcpy.o)
 .debug_loc     0x000000000002d925      0x170 /home/lodge/STM32MP157/tf-a/tf-a-stm32mp/../build/optee/lib/libc.a(memmove.o)
 .debug_loc     0x000000000002da95       0x63 /home/lodge/STM32MP157/tf-a/tf-a-stm32mp/../build/optee/lib/libc.a(memset.o)
 .debug_loc     0x000000000002daf8      0x6c4 /home/lodge/STM32MP157/tf-a/tf-a-stm32mp/../build/optee/lib/libc.a(printf.o)
 .debug_loc     0x000000000002e1bc       0x22 /home/lodge/STM32MP157/tf-a/tf-a-stm32mp/../build/optee/lib/libc.a(putchar.o)
 .debug_loc     0x000000000002e1de      0x203 /home/lodge/STM32MP157/tf-a/tf-a-stm32mp/../build/optee/lib/libc.a(snprintf.o)
 .debug_loc     0x000000000002e3e1       0x6b /home/lodge/STM32MP157/tf-a/tf-a-stm32mp/../build/optee/lib/libc.a(strchr.o)
 .debug_loc     0x000000000002e44c       0x71 /home/lodge/STM32MP157/tf-a/tf-a-stm32mp/../build/optee/lib/libc.a(strcmp.o)
 .debug_loc     0x000000000002e4bd       0x47 /home/lodge/STM32MP157/tf-a/tf-a-stm32mp/../build/optee/lib/libc.a(strlen.o)
 .debug_loc     0x000000000002e504       0xfe /home/lodge/STM32MP157/tf-a/tf-a-stm32mp/../build/optee/lib/libc.a(strncmp.o)
 .debug_loc     0x000000000002e602       0x38 /home/lodge/STM32MP157/tf-a/tf-a-stm32mp/../build/optee/lib/libc.a(strnlen.o)
 .debug_loc     0x000000000002e63a       0x99 /home/lodge/STM32MP157/tf-a/tf-a-stm32mp/../build/optee/lib/libc.a(strrchr.o)

.debug_ranges   0x0000000000000000     0x6470
 .debug_ranges  0x0000000000000000       0xf8 /home/lodge/STM32MP157/tf-a/tf-a-stm32mp/../build/optee/bl2/io_block.o
 .debug_ranges  0x00000000000000f8       0x78 /home/lodge/STM32MP157/tf-a/tf-a-stm32mp/../build/optee/bl2/io_dummy.o
 .debug_ranges  0x0000000000000170       0xb8 /home/lodge/STM32MP157/tf-a/tf-a-stm32mp/../build/optee/bl2/io_mtd.o
 .debug_ranges  0x0000000000000228      0x130 /home/lodge/STM32MP157/tf-a/tf-a-stm32mp/../build/optee/bl2/io_storage.o
 .debug_ranges  0x0000000000000358      0x2e8 /home/lodge/STM32MP157/tf-a/tf-a-stm32mp/../build/optee/bl2/stm32_hash.o
 .debug_ranges  0x0000000000000640       0x68 /home/lodge/STM32MP157/tf-a/tf-a-stm32mp/../build/optee/bl2/io_stm32image.o
 .debug_ranges  0x00000000000006a8       0x78 /home/lodge/STM32MP157/tf-a/tf-a-stm32mp/../build/optee/bl2/bl2_io_storage.o
 .debug_ranges  0x0000000000000720      0x128 /home/lodge/STM32MP157/tf-a/tf-a-stm32mp/../build/optee/bl2/bl2_plat_setup.o
 .debug_ranges  0x0000000000000848       0x68 /home/lodge/STM32MP157/tf-a/tf-a-stm32mp/../build/optee/bl2/auth_mod.o
 .debug_ranges  0x00000000000008b0       0x20 /home/lodge/STM32MP157/tf-a/tf-a-stm32mp/../build/optee/bl2/crypto_mod.o
 .debug_ranges  0x00000000000008d0       0x38 /home/lodge/STM32MP157/tf-a/tf-a-stm32mp/../build/optee/bl2/img_parser_mod.o
 .debug_ranges  0x0000000000000908       0x20 /home/lodge/STM32MP157/tf-a/tf-a-stm32mp/../build/optee/bl2/stm32mp_crypto_lib.o
 .debug_ranges  0x0000000000000928       0x20 /home/lodge/STM32MP157/tf-a/tf-a-stm32mp/../build/optee/bl2/stm32mp_img_parser_lib.o
 .debug_ranges  0x0000000000000948       0x20 /home/lodge/STM32MP157/tf-a/tf-a-stm32mp/../build/optee/bl2/stm32mp_trusted_boot.o
 .debug_ranges  0x0000000000000968      0x1d0 /home/lodge/STM32MP157/tf-a/tf-a-stm32mp/../build/optee/bl2/mmc.o
 .debug_ranges  0x0000000000000b38       0x30 /home/lodge/STM32MP157/tf-a/tf-a-stm32mp/../build/optee/bl2/gpt.o
 .debug_ranges  0x0000000000000b68       0x60 /home/lodge/STM32MP157/tf-a/tf-a-stm32mp/../build/optee/bl2/partition.o
 .debug_ranges  0x0000000000000bc8       0x48 /home/lodge/STM32MP157/tf-a/tf-a-stm32mp/../build/optee/bl2/io_mmc.o
 .debug_ranges  0x0000000000000c10      0x360 /home/lodge/STM32MP157/tf-a/tf-a-stm32mp/../build/optee/bl2/stm32_sdmmc2.o
 .debug_ranges  0x0000000000000f70      0x110 /home/lodge/STM32MP157/tf-a/tf-a-stm32mp/../build/optee/bl2/raw_nand.o
 .debug_ranges  0x0000000000001080      0x6c8 /home/lodge/STM32MP157/tf-a/tf-a-stm32mp/../build/optee/bl2/stm32_fmc2_nand.o
 .debug_ranges  0x0000000000001748       0xe0 /home/lodge/STM32MP157/tf-a/tf-a-stm32mp/../build/optee/bl2/spi_nand.o
 .debug_ranges  0x0000000000001828      0x128 /home/lodge/STM32MP157/tf-a/tf-a-stm32mp/../build/optee/bl2/spi_nor.o
 .debug_ranges  0x0000000000001950       0x90 /home/lodge/STM32MP157/tf-a/tf-a-stm32mp/../build/optee/bl2/spi_mem.o
 .debug_ranges  0x00000000000019e0      0x568 /home/lodge/STM32MP157/tf-a/tf-a-stm32mp/../build/optee/bl2/stm32_qspi.o
 .debug_ranges  0x0000000000001f48       0x40 /home/lodge/STM32MP157/tf-a/tf-a-stm32mp/../build/optee/bl2/core.o
 .debug_ranges  0x0000000000001f88       0x28 /home/lodge/STM32MP157/tf-a/tf-a-stm32mp/../build/optee/bl2/stm32mp1_boot_device.o
 .debug_ranges  0x0000000000001fb0      0x670 /home/lodge/STM32MP157/tf-a/tf-a-stm32mp/../build/optee/bl2/stm32mp1_ddr.o
 .debug_ranges  0x0000000000002620      0x1b0 /home/lodge/STM32MP157/tf-a/tf-a-stm32mp/../build/optee/bl2/stm32mp1_ram.o
 .debug_ranges  0x00000000000027d0       0x60 /home/lodge/STM32MP157/tf-a/tf-a-stm32mp/../build/optee/bl2/desc_image_load.o
 .debug_ranges  0x0000000000002830       0x20 /home/lodge/STM32MP157/tf-a/tf-a-stm32mp/../build/optee/bl2/plat_image_load.o
 .debug_ranges  0x0000000000002850       0x48 /home/lodge/STM32MP157/tf-a/tf-a-stm32mp/../build/optee/bl2/optee_utils.o
 .debug_ranges  0x0000000000002898       0x10 /home/lodge/STM32MP157/tf-a/tf-a-stm32mp/../build/optee/bl2/bl2_image_load_v2.o
 .debug_ranges  0x00000000000028a8       0x18 /home/lodge/STM32MP157/tf-a/tf-a-stm32mp/../build/optee/bl2/bl2_main.o
 .debug_ranges  0x00000000000028c0       0x10 /home/lodge/STM32MP157/tf-a/tf-a-stm32mp/../build/optee/bl2/bl2_arch_setup.o
 .debug_ranges  0x00000000000028d0       0x68 /home/lodge/STM32MP157/tf-a/tf-a-stm32mp/../build/optee/bl2/bl_common.o
 .debug_ranges  0x0000000000002938       0x18 /home/lodge/STM32MP157/tf-a/tf-a-stm32mp/../build/optee/bl2/tf_log.o
 .debug_ranges  0x0000000000002950       0x90 /home/lodge/STM32MP157/tf-a/tf-a-stm32mp/../build/optee/bl2/multi_console.o
 .debug_ranges  0x00000000000029e0       0x28 /home/lodge/STM32MP157/tf-a/tf-a-stm32mp/../build/optee/bl2/plat_bl_common.o
 .debug_ranges  0x0000000000002a08       0x10 /home/lodge/STM32MP157/tf-a/tf-a-stm32mp/../build/optee/bl2/plat_log_common.o
 .debug_ranges  0x0000000000002a18       0x10 /home/lodge/STM32MP157/tf-a/tf-a-stm32mp/../build/optee/bl2/popcountsi2.o
 .debug_ranges  0x0000000000002a28       0x10 /home/lodge/STM32MP157/tf-a/tf-a-stm32mp/../build/optee/bl2/ctzdi2.o
 .debug_ranges  0x0000000000002a38       0x10 /home/lodge/STM32MP157/tf-a/tf-a-stm32mp/../build/optee/bl2/udivmoddi4.o
 .debug_ranges  0x0000000000002a48       0xb8 /home/lodge/STM32MP157/tf-a/tf-a-stm32mp/../build/optee/bl2/stm32mp_common.o
 .debug_ranges  0x0000000000002b00      0x128 /home/lodge/STM32MP157/tf-a/tf-a-stm32mp/../build/optee/bl2/stm32mp1_private.o
 .debug_ranges  0x0000000000002c28       0xe0 /home/lodge/STM32MP157/tf-a/tf-a-stm32mp/../build/optee/bl2/xlat_tables_arch.o
 .debug_ranges  0x0000000000002d08       0x68 /home/lodge/STM32MP157/tf-a/tf-a-stm32mp/../build/optee/bl2/xlat_tables_context.o
 .debug_ranges  0x0000000000002d70      0x2d0 /home/lodge/STM32MP157/tf-a/tf-a-stm32mp/../build/optee/bl2/xlat_tables_core.o
 .debug_ranges  0x0000000000003040      0x110 /home/lodge/STM32MP157/tf-a/tf-a-stm32mp/../build/optee/bl2/xlat_tables_utils.o
 .debug_ranges  0x0000000000003150      0x298 /home/lodge/STM32MP157/tf-a/tf-a-stm32mp/../build/optee/bl2/tzc400.o
 .debug_ranges  0x00000000000033e8       0x38 /home/lodge/STM32MP157/tf-a/tf-a-stm32mp/../build/optee/bl2/delay_timer.o
 .debug_ranges  0x0000000000003420       0x68 /home/lodge/STM32MP157/tf-a/tf-a-stm32mp/../build/optee/bl2/generic_delay_timer.o
 .debug_ranges  0x0000000000003488      0x328 /home/lodge/STM32MP157/tf-a/tf-a-stm32mp/../build/optee/bl2/bsec2.o
 .debug_ranges  0x00000000000037b0      0x178 /home/lodge/STM32MP157/tf-a/tf-a-stm32mp/../build/optee/bl2/stm32mp_clkfunc.o
 .debug_ranges  0x0000000000003928      0xdd0 /home/lodge/STM32MP157/tf-a/tf-a-stm32mp/../build/optee/bl2/stm32mp1_clk.o
 .debug_ranges  0x00000000000046f8      0x2e0 /home/lodge/STM32MP157/tf-a/tf-a-stm32mp/../build/optee/bl2/stm32mp1_ddr_helpers.o
 .debug_ranges  0x00000000000049d8      0x288 /home/lodge/STM32MP157/tf-a/tf-a-stm32mp/../build/optee/bl2/stm32_gpio.o
 .debug_ranges  0x0000000000004c60      0x878 /home/lodge/STM32MP157/tf-a/tf-a-stm32mp/../build/optee/bl2/stm32_i2c.o
 .debug_ranges  0x00000000000054d8       0xa8 /home/lodge/STM32MP157/tf-a/tf-a-stm32mp/../build/optee/bl2/stm32_iwdg.o
 .debug_ranges  0x0000000000005580      0x168 /home/lodge/STM32MP157/tf-a/tf-a-stm32mp/../build/optee/bl2/stm32mp_pmic.o
 .debug_ranges  0x00000000000056e8       0xb0 /home/lodge/STM32MP157/tf-a/tf-a-stm32mp/../build/optee/bl2/stpmic1.o
 .debug_ranges  0x0000000000005798       0x18 /home/lodge/STM32MP157/tf-a/tf-a-stm32mp/../build/optee/bl2/stm32mp_dummy_regulator.o
 .debug_ranges  0x00000000000057b0       0x28 /home/lodge/STM32MP157/tf-a/tf-a-stm32mp/../build/optee/bl2/stm32mp_regulator.o
 .debug_ranges  0x00000000000057d8      0x108 /home/lodge/STM32MP157/tf-a/tf-a-stm32mp/../build/optee/bl2/stm32mp1_reset.o
 .debug_ranges  0x00000000000058e0      0x178 /home/lodge/STM32MP157/tf-a/tf-a-stm32mp/../build/optee/bl2/stm32mp_dt.o
 .debug_ranges  0x0000000000005a58       0x30 /home/lodge/STM32MP157/tf-a/tf-a-stm32mp/../build/optee/bl2/stm32mp_shres_helpers.o
 .debug_ranges  0x0000000000005a88       0xe0 /home/lodge/STM32MP157/tf-a/tf-a-stm32mp/../build/optee/bl2/stm32mp1_context.o
 .debug_ranges  0x0000000000005b68       0x58 /home/lodge/STM32MP157/tf-a/tf-a-stm32mp/../build/optee/bl2/stm32mp1_dbgmcu.o
 .debug_ranges  0x0000000000005bc0       0x58 /home/lodge/STM32MP157/tf-a/tf-a-stm32mp/../build/optee/bl2/stm32mp1_security.o
 .debug_ranges  0x0000000000005c18       0xf0 /home/lodge/STM32MP157/tf-a/tf-a-stm32mp/../build/optee/bl2/stm32mp1_syscfg.o
 .debug_ranges  0x0000000000005d08       0x20 /home/lodge/STM32MP157/tf-a/tf-a-stm32mp/../build/optee/bl2/spinlock.o
 .debug_ranges  0x0000000000005d28       0x20 /home/lodge/STM32MP157/tf-a/tf-a-stm32mp/../build/optee/bl2/platform_up_stack.o
 .debug_ranges  0x0000000000005d48       0x20 /home/lodge/STM32MP157/tf-a/tf-a-stm32mp/../build/optee/bl2/bl2_el3_entrypoint.o
 .debug_ranges  0x0000000000005d68       0x38 /home/lodge/STM32MP157/tf-a/tf-a-stm32mp/../build/optee/bl2/cpu_helpers.o
 .debug_ranges  0x0000000000005da0       0x50 /home/lodge/STM32MP157/tf-a/tf-a-stm32mp/../build/optee/bl2/debug.o
 .debug_ranges  0x0000000000005df0       0x58 /home/lodge/STM32MP157/tf-a/tf-a-stm32mp/../build/optee/bl2/cache_helpers.o
 .debug_ranges  0x0000000000005e48       0x38 /home/lodge/STM32MP157/tf-a/tf-a-stm32mp/../build/optee/bl2/misc_helpers.o
 .debug_ranges  0x0000000000005e80       0x48 /home/lodge/STM32MP157/tf-a/tf-a-stm32mp/../build/optee/bl2/stm32_console.o
 .debug_ranges  0x0000000000005ec8       0x20 /home/lodge/STM32MP157/tf-a/tf-a-stm32mp/../build/optee/bl2/enable_mmu.o
 .debug_ranges  0x0000000000005ee8       0x38 /home/lodge/STM32MP157/tf-a/tf-a-stm32mp/../build/optee/bl2/cortex_a7.o
 .debug_ranges  0x0000000000005f20       0x90 /home/lodge/STM32MP157/tf-a/tf-a-stm32mp/../build/optee/bl2/stm32mp1_helper.o
 .debug_ranges  0x0000000000005fb0       0x90 /home/lodge/STM32MP157/tf-a/tf-a-stm32mp/../build/optee/lib/libfdt.a(fdt.o)
 .debug_ranges  0x0000000000006040       0x18 /home/lodge/STM32MP157/tf-a/tf-a-stm32mp/../build/optee/lib/libfdt.a(fdt_addresses.o)
 .debug_ranges  0x0000000000006058      0x298 /home/lodge/STM32MP157/tf-a/tf-a-stm32mp/../build/optee/lib/libfdt.a(fdt_ro.o)
 .debug_ranges  0x00000000000062f0       0x10 /home/lodge/STM32MP157/tf-a/tf-a-stm32mp/../build/optee/lib/libc.a(assert.o)
 .debug_ranges  0x0000000000006300       0x10 /home/lodge/STM32MP157/tf-a/tf-a-stm32mp/../build/optee/lib/libc.a(memchr.o)
 .debug_ranges  0x0000000000006310       0x10 /home/lodge/STM32MP157/tf-a/tf-a-stm32mp/../build/optee/lib/libc.a(memcmp.o)
 .debug_ranges  0x0000000000006320       0x10 /home/lodge/STM32MP157/tf-a/tf-a-stm32mp/../build/optee/lib/libc.a(memcpy.o)
 .debug_ranges  0x0000000000006330       0x28 /home/lodge/STM32MP157/tf-a/tf-a-stm32mp/../build/optee/lib/libc.a(memmove.o)
 .debug_ranges  0x0000000000006358       0x10 /home/lodge/STM32MP157/tf-a/tf-a-stm32mp/../build/optee/lib/libc.a(memset.o)
 .debug_ranges  0x0000000000006368       0x68 /home/lodge/STM32MP157/tf-a/tf-a-stm32mp/../build/optee/lib/libc.a(printf.o)
 .debug_ranges  0x00000000000063d0       0x10 /home/lodge/STM32MP157/tf-a/tf-a-stm32mp/../build/optee/lib/libc.a(putchar.o)
 .debug_ranges  0x00000000000063e0       0x30 /home/lodge/STM32MP157/tf-a/tf-a-stm32mp/../build/optee/lib/libc.a(snprintf.o)
 .debug_ranges  0x0000000000006410       0x10 /home/lodge/STM32MP157/tf-a/tf-a-stm32mp/../build/optee/lib/libc.a(strchr.o)
 .debug_ranges  0x0000000000006420       0x10 /home/lodge/STM32MP157/tf-a/tf-a-stm32mp/../build/optee/lib/libc.a(strcmp.o)
 .debug_ranges  0x0000000000006430       0x10 /home/lodge/STM32MP157/tf-a/tf-a-stm32mp/../build/optee/lib/libc.a(strlen.o)
 .debug_ranges  0x0000000000006440       0x10 /home/lodge/STM32MP157/tf-a/tf-a-stm32mp/../build/optee/lib/libc.a(strncmp.o)
 .debug_ranges  0x0000000000006450       0x10 /home/lodge/STM32MP157/tf-a/tf-a-stm32mp/../build/optee/lib/libc.a(strnlen.o)
 .debug_ranges  0x0000000000006460       0x10 /home/lodge/STM32MP157/tf-a/tf-a-stm32mp/../build/optee/lib/libc.a(strrchr.o)

.debug_frame    0x0000000000000000     0x50c4
 .debug_frame   0x0000000000000000      0x114 /home/lodge/STM32MP157/tf-a/tf-a-stm32mp/../build/optee/bl2/io_block.o
 .debug_frame   0x0000000000000114       0xc0 /home/lodge/STM32MP157/tf-a/tf-a-stm32mp/../build/optee/bl2/io_dummy.o
 .debug_frame   0x00000000000001d4       0xd8 /home/lodge/STM32MP157/tf-a/tf-a-stm32mp/../build/optee/bl2/io_mtd.o
 .debug_frame   0x00000000000002ac      0x1c4 /home/lodge/STM32MP157/tf-a/tf-a-stm32mp/../build/optee/bl2/io_storage.o
 .debug_frame   0x0000000000000470       0xec /home/lodge/STM32MP157/tf-a/tf-a-stm32mp/../build/optee/bl2/stm32_hash.o
 .debug_frame   0x000000000000055c       0xf0 /home/lodge/STM32MP157/tf-a/tf-a-stm32mp/../build/optee/bl2/io_stm32image.o
 .debug_frame   0x000000000000064c       0xc4 /home/lodge/STM32MP157/tf-a/tf-a-stm32mp/../build/optee/bl2/bl2_io_storage.o
 .debug_frame   0x0000000000000710       0xa8 /home/lodge/STM32MP157/tf-a/tf-a-stm32mp/../build/optee/bl2/bl2_plat_setup.o
 .debug_frame   0x00000000000007b8       0xa4 /home/lodge/STM32MP157/tf-a/tf-a-stm32mp/../build/optee/bl2/auth_mod.o
 .debug_frame   0x000000000000085c       0x80 /home/lodge/STM32MP157/tf-a/tf-a-stm32mp/../build/optee/bl2/crypto_mod.o
 .debug_frame   0x00000000000008dc       0x80 /home/lodge/STM32MP157/tf-a/tf-a-stm32mp/../build/optee/bl2/img_parser_mod.o
 .debug_frame   0x000000000000095c       0x80 /home/lodge/STM32MP157/tf-a/tf-a-stm32mp/../build/optee/bl2/stm32mp_crypto_lib.o
 .debug_frame   0x00000000000009dc       0x5c /home/lodge/STM32MP157/tf-a/tf-a-stm32mp/../build/optee/bl2/stm32mp_img_parser_lib.o
 .debug_frame   0x0000000000000a38       0x68 /home/lodge/STM32MP157/tf-a/tf-a-stm32mp/../build/optee/bl2/stm32mp_trusted_boot.o
 .debug_frame   0x0000000000000aa0      0x198 /home/lodge/STM32MP157/tf-a/tf-a-stm32mp/../build/optee/bl2/mmc.o
 .debug_frame   0x0000000000000c38       0x2c /home/lodge/STM32MP157/tf-a/tf-a-stm32mp/../build/optee/bl2/gpt.o
 .debug_frame   0x0000000000000c64       0x84 /home/lodge/STM32MP157/tf-a/tf-a-stm32mp/../build/optee/bl2/partition.o
 .debug_frame   0x0000000000000ce8       0xc0 /home/lodge/STM32MP157/tf-a/tf-a-stm32mp/../build/optee/bl2/io_mmc.o
 .debug_frame   0x0000000000000da8      0x1a8 /home/lodge/STM32MP157/tf-a/tf-a-stm32mp/../build/optee/bl2/stm32_sdmmc2.o
 .debug_frame   0x0000000000000f50      0x1b8 /home/lodge/STM32MP157/tf-a/tf-a-stm32mp/../build/optee/bl2/raw_nand.o
 .debug_frame   0x0000000000001108       0xe4 /home/lodge/STM32MP157/tf-a/tf-a-stm32mp/../build/optee/bl2/stm32_fmc2_nand.o
 .debug_frame   0x00000000000011ec      0x110 /home/lodge/STM32MP157/tf-a/tf-a-stm32mp/../build/optee/bl2/spi_nand.o
 .debug_frame   0x00000000000012fc       0xf8 /home/lodge/STM32MP157/tf-a/tf-a-stm32mp/../build/optee/bl2/spi_nor.o
 .debug_frame   0x00000000000013f4       0x80 /home/lodge/STM32MP157/tf-a/tf-a-stm32mp/../build/optee/bl2/spi_mem.o
 .debug_frame   0x0000000000001474       0xf4 /home/lodge/STM32MP157/tf-a/tf-a-stm32mp/../build/optee/bl2/stm32_qspi.o
 .debug_frame   0x0000000000001568       0x50 /home/lodge/STM32MP157/tf-a/tf-a-stm32mp/../build/optee/bl2/core.o
 .debug_frame   0x00000000000015b8       0x74 /home/lodge/STM32MP157/tf-a/tf-a-stm32mp/../build/optee/bl2/stm32mp1_boot_device.o
 .debug_frame   0x000000000000162c       0xf0 /home/lodge/STM32MP157/tf-a/tf-a-stm32mp/../build/optee/bl2/stm32mp1_ddr.o
 .debug_frame   0x000000000000171c       0x70 /home/lodge/STM32MP157/tf-a/tf-a-stm32mp/../build/optee/bl2/stm32mp1_ram.o
 .debug_frame   0x000000000000178c       0xe4 /home/lodge/STM32MP157/tf-a/tf-a-stm32mp/../build/optee/bl2/desc_image_load.o
 .debug_frame   0x0000000000001870       0x5c /home/lodge/STM32MP157/tf-a/tf-a-stm32mp/../build/optee/bl2/plat_image_load.o
 .debug_frame   0x00000000000018cc       0x88 /home/lodge/STM32MP157/tf-a/tf-a-stm32mp/../build/optee/bl2/optee_utils.o
 .debug_frame   0x0000000000001954       0x34 /home/lodge/STM32MP157/tf-a/tf-a-stm32mp/../build/optee/bl2/bl2_image_load_v2.o
 .debug_frame   0x0000000000001988       0x48 /home/lodge/STM32MP157/tf-a/tf-a-stm32mp/../build/optee/bl2/bl2_main.o
 .debug_frame   0x00000000000019d0       0x20 /home/lodge/STM32MP157/tf-a/tf-a-stm32mp/../build/optee/bl2/bl2_arch_setup.o
 .debug_frame   0x00000000000019f0       0x80 /home/lodge/STM32MP157/tf-a/tf-a-stm32mp/../build/optee/bl2/bl_common.o
 .debug_frame   0x0000000000001a70       0x60 /home/lodge/STM32MP157/tf-a/tf-a-stm32mp/../build/optee/bl2/tf_log.o
 .debug_frame   0x0000000000001ad0       0xdc /home/lodge/STM32MP157/tf-a/tf-a-stm32mp/../build/optee/bl2/multi_console.o
 .debug_frame   0x0000000000001bac       0x8c /home/lodge/STM32MP157/tf-a/tf-a-stm32mp/../build/optee/bl2/plat_bl_common.o
 .debug_frame   0x0000000000001c38       0x20 /home/lodge/STM32MP157/tf-a/tf-a-stm32mp/../build/optee/bl2/plat_log_common.o
 .debug_frame   0x0000000000001c58       0x20 /home/lodge/STM32MP157/tf-a/tf-a-stm32mp/../build/optee/bl2/popcountsi2.o
 .debug_frame   0x0000000000001c78       0x20 /home/lodge/STM32MP157/tf-a/tf-a-stm32mp/../build/optee/bl2/ctzdi2.o
 .debug_frame   0x0000000000001c98       0x30 /home/lodge/STM32MP157/tf-a/tf-a-stm32mp/../build/optee/bl2/udivmoddi4.o
 .debug_frame   0x0000000000001cc8      0x1ac /home/lodge/STM32MP157/tf-a/tf-a-stm32mp/../build/optee/bl2/stm32mp_common.o
 .debug_frame   0x0000000000001e74      0x210 /home/lodge/STM32MP157/tf-a/tf-a-stm32mp/../build/optee/bl2/stm32mp1_private.o
 .debug_frame   0x0000000000002084       0xf0 /home/lodge/STM32MP157/tf-a/tf-a-stm32mp/../build/optee/bl2/xlat_tables_arch.o
 .debug_frame   0x0000000000002174      0x13c /home/lodge/STM32MP157/tf-a/tf-a-stm32mp/../build/optee/bl2/xlat_tables_context.o
 .debug_frame   0x00000000000022b0      0x250 /home/lodge/STM32MP157/tf-a/tf-a-stm32mp/../build/optee/bl2/xlat_tables_core.o
 .debug_frame   0x0000000000002500       0xc4 /home/lodge/STM32MP157/tf-a/tf-a-stm32mp/../build/optee/bl2/xlat_tables_utils.o
 .debug_frame   0x00000000000025c4      0x108 /home/lodge/STM32MP157/tf-a/tf-a-stm32mp/../build/optee/bl2/tzc400.o
 .debug_frame   0x00000000000026cc       0x58 /home/lodge/STM32MP157/tf-a/tf-a-stm32mp/../build/optee/bl2/delay_timer.o
 .debug_frame   0x0000000000002724       0x54 /home/lodge/STM32MP157/tf-a/tf-a-stm32mp/../build/optee/bl2/generic_delay_timer.o
 .debug_frame   0x0000000000002778      0x344 /home/lodge/STM32MP157/tf-a/tf-a-stm32mp/../build/optee/bl2/bsec2.o
 .debug_frame   0x0000000000002abc      0x24c /home/lodge/STM32MP157/tf-a/tf-a-stm32mp/../build/optee/bl2/stm32mp_clkfunc.o
 .debug_frame   0x0000000000002d08      0x640 /home/lodge/STM32MP157/tf-a/tf-a-stm32mp/../build/optee/bl2/stm32mp1_clk.o
 .debug_frame   0x0000000000003348      0x128 /home/lodge/STM32MP157/tf-a/tf-a-stm32mp/../build/optee/bl2/stm32mp1_ddr_helpers.o
 .debug_frame   0x0000000000003470       0xb0 /home/lodge/STM32MP157/tf-a/tf-a-stm32mp/../build/optee/bl2/stm32_gpio.o
 .debug_frame   0x0000000000003520      0x1fc /home/lodge/STM32MP157/tf-a/tf-a-stm32mp/../build/optee/bl2/stm32_i2c.o
 .debug_frame   0x000000000000371c       0x5c /home/lodge/STM32MP157/tf-a/tf-a-stm32mp/../build/optee/bl2/stm32_iwdg.o
 .debug_frame   0x0000000000003778      0x204 /home/lodge/STM32MP157/tf-a/tf-a-stm32mp/../build/optee/bl2/stm32mp_pmic.o
 .debug_frame   0x000000000000397c      0x250 /home/lodge/STM32MP157/tf-a/tf-a-stm32mp/../build/optee/bl2/stpmic1.o
 .debug_frame   0x0000000000003bcc       0x40 /home/lodge/STM32MP157/tf-a/tf-a-stm32mp/../build/optee/bl2/stm32mp_dummy_regulator.o
 .debug_frame   0x0000000000003c0c       0x6c /home/lodge/STM32MP157/tf-a/tf-a-stm32mp/../build/optee/bl2/stm32mp_regulator.o
 .debug_frame   0x0000000000003c78       0x68 /home/lodge/STM32MP157/tf-a/tf-a-stm32mp/../build/optee/bl2/stm32mp1_reset.o
 .debug_frame   0x0000000000003ce0      0x340 /home/lodge/STM32MP157/tf-a/tf-a-stm32mp/../build/optee/bl2/stm32mp_dt.o
 .debug_frame   0x0000000000004020       0xbc /home/lodge/STM32MP157/tf-a/tf-a-stm32mp/../build/optee/bl2/stm32mp_shres_helpers.o
 .debug_frame   0x00000000000040dc       0xc4 /home/lodge/STM32MP157/tf-a/tf-a-stm32mp/../build/optee/bl2/stm32mp1_context.o
 .debug_frame   0x00000000000041a0       0x70 /home/lodge/STM32MP157/tf-a/tf-a-stm32mp/../build/optee/bl2/stm32mp1_dbgmcu.o
 .debug_frame   0x0000000000004210       0x58 /home/lodge/STM32MP157/tf-a/tf-a-stm32mp/../build/optee/bl2/stm32mp1_security.o
 .debug_frame   0x0000000000004268       0x60 /home/lodge/STM32MP157/tf-a/tf-a-stm32mp/../build/optee/bl2/stm32mp1_syscfg.o
 .debug_frame   0x00000000000042c8       0x30 /home/lodge/STM32MP157/tf-a/tf-a-stm32mp/../build/optee/bl2/spinlock.o
 .debug_frame   0x00000000000042f8       0x30 /home/lodge/STM32MP157/tf-a/tf-a-stm32mp/../build/optee/bl2/platform_up_stack.o
 .debug_frame   0x0000000000004328       0x30 /home/lodge/STM32MP157/tf-a/tf-a-stm32mp/../build/optee/bl2/bl2_el3_entrypoint.o
 .debug_frame   0x0000000000004358       0x60 /home/lodge/STM32MP157/tf-a/tf-a-stm32mp/../build/optee/bl2/cpu_helpers.o
 .debug_frame   0x00000000000043b8       0x90 /home/lodge/STM32MP157/tf-a/tf-a-stm32mp/../build/optee/bl2/debug.o
 .debug_frame   0x0000000000004448       0xa0 /home/lodge/STM32MP157/tf-a/tf-a-stm32mp/../build/optee/bl2/cache_helpers.o
 .debug_frame   0x00000000000044e8       0x60 /home/lodge/STM32MP157/tf-a/tf-a-stm32mp/../build/optee/bl2/misc_helpers.o
 .debug_frame   0x0000000000004548       0x80 /home/lodge/STM32MP157/tf-a/tf-a-stm32mp/../build/optee/bl2/stm32_console.o
 .debug_frame   0x00000000000045c8       0x30 /home/lodge/STM32MP157/tf-a/tf-a-stm32mp/../build/optee/bl2/enable_mmu.o
 .debug_frame   0x00000000000045f8       0x60 /home/lodge/STM32MP157/tf-a/tf-a-stm32mp/../build/optee/bl2/cortex_a7.o
 .debug_frame   0x0000000000004658      0x110 /home/lodge/STM32MP157/tf-a/tf-a-stm32mp/../build/optee/bl2/stm32mp1_helper.o
 .debug_frame   0x0000000000004768      0x148 /home/lodge/STM32MP157/tf-a/tf-a-stm32mp/../build/optee/lib/libfdt.a(fdt.o)
 .debug_frame   0x00000000000048b0       0x48 /home/lodge/STM32MP157/tf-a/tf-a-stm32mp/../build/optee/lib/libfdt.a(fdt_addresses.o)
 .debug_frame   0x00000000000048f8      0x4cc /home/lodge/STM32MP157/tf-a/tf-a-stm32mp/../build/optee/lib/libfdt.a(fdt_ro.o)
 .debug_frame   0x0000000000004dc4       0x28 /home/lodge/STM32MP157/tf-a/tf-a-stm32mp/../build/optee/lib/libc.a(assert.o)
 .debug_frame   0x0000000000004dec       0x28 /home/lodge/STM32MP157/tf-a/tf-a-stm32mp/../build/optee/lib/libc.a(memchr.o)
 .debug_frame   0x0000000000004e14       0x28 /home/lodge/STM32MP157/tf-a/tf-a-stm32mp/../build/optee/lib/libc.a(memcmp.o)
 .debug_frame   0x0000000000004e3c       0x28 /home/lodge/STM32MP157/tf-a/tf-a-stm32mp/../build/optee/lib/libc.a(memcpy.o)
 .debug_frame   0x0000000000004e64       0x3c /home/lodge/STM32MP157/tf-a/tf-a-stm32mp/../build/optee/lib/libc.a(memmove.o)
 .debug_frame   0x0000000000004ea0       0x20 /home/lodge/STM32MP157/tf-a/tf-a-stm32mp/../build/optee/lib/libc.a(memset.o)
 .debug_frame   0x0000000000004ec0       0xa0 /home/lodge/STM32MP157/tf-a/tf-a-stm32mp/../build/optee/lib/libc.a(printf.o)
 .debug_frame   0x0000000000004f60       0x28 /home/lodge/STM32MP157/tf-a/tf-a-stm32mp/../build/optee/lib/libc.a(putchar.o)
 .debug_frame   0x0000000000004f88       0x6c /home/lodge/STM32MP157/tf-a/tf-a-stm32mp/../build/optee/lib/libc.a(snprintf.o)
 .debug_frame   0x0000000000004ff4       0x20 /home/lodge/STM32MP157/tf-a/tf-a-stm32mp/../build/optee/lib/libc.a(strchr.o)
 .debug_frame   0x0000000000005014       0x20 /home/lodge/STM32MP157/tf-a/tf-a-stm32mp/../build/optee/lib/libc.a(strcmp.o)
 .debug_frame   0x0000000000005034       0x20 /home/lodge/STM32MP157/tf-a/tf-a-stm32mp/../build/optee/lib/libc.a(strlen.o)
 .debug_frame   0x0000000000005054       0x28 /home/lodge/STM32MP157/tf-a/tf-a-stm32mp/../build/optee/lib/libc.a(strncmp.o)
 .debug_frame   0x000000000000507c       0x20 /home/lodge/STM32MP157/tf-a/tf-a-stm32mp/../build/optee/lib/libc.a(strnlen.o)
 .debug_frame   0x000000000000509c       0x28 /home/lodge/STM32MP157/tf-a/tf-a-stm32mp/../build/optee/lib/libc.a(strrchr.o)
