Archive member included to satisfy reference by file (symbol)

/home/lodge/STM32MP157/tf-a/tf-a-stm32mp/../build/trusted/lib/libfdt.a(fdt.o)
                              /home/lodge/STM32MP157/tf-a/tf-a-stm32mp/../build/trusted/bl32/stm32mp_dt.o (fdt_check_header)
/home/lodge/STM32MP157/tf-a/tf-a-stm32mp/../build/trusted/lib/libfdt.a(fdt_addresses.o)
                              /home/lodge/STM32MP157/tf-a/tf-a-stm32mp/../build/trusted/bl32/stm32mp_dt.o (fdt_address_cells)
/home/lodge/STM32MP157/tf-a/tf-a-stm32mp/../build/trusted/lib/libfdt.a(fdt_ro.o)
                              /home/lodge/STM32MP157/tf-a/tf-a-stm32mp/../build/trusted/bl32/stm32mp_clkfunc.o (fdt_get_name)
/home/lodge/STM32MP157/tf-a/tf-a-stm32mp/../build/trusted/lib/libc.a(assert.o)
                              /home/lodge/STM32MP157/tf-a/tf-a-stm32mp/../build/trusted/bl32/sp_min_main.o (__assert)
/home/lodge/STM32MP157/tf-a/tf-a-stm32mp/../build/trusted/lib/libc.a(memchr.o)
                              /home/lodge/STM32MP157/tf-a/tf-a-stm32mp/../build/trusted/lib/libfdt.a(fdt_ro.o) (memchr)
/home/lodge/STM32MP157/tf-a/tf-a-stm32mp/../build/trusted/lib/libc.a(memcmp.o)
                              /home/lodge/STM32MP157/tf-a/tf-a-stm32mp/../build/trusted/lib/libfdt.a(fdt.o) (memcmp)
/home/lodge/STM32MP157/tf-a/tf-a-stm32mp/../build/trusted/lib/libc.a(memcpy.o)
                              /home/lodge/STM32MP157/tf-a/tf-a-stm32mp/../build/trusted/bl32/context_mgmt.o (memcpy)
/home/lodge/STM32MP157/tf-a/tf-a-stm32mp/../build/trusted/lib/libc.a(memmove.o)
                              /home/lodge/STM32MP157/tf-a/tf-a-stm32mp/../build/trusted/bl32/xlat_tables_core.o (memmove)
/home/lodge/STM32MP157/tf-a/tf-a-stm32mp/../build/trusted/lib/libc.a(memset.o)
                              /home/lodge/STM32MP157/tf-a/tf-a-stm32mp/../build/trusted/bl32/runtime_svc.o (memset)
/home/lodge/STM32MP157/tf-a/tf-a-stm32mp/../build/trusted/lib/libc.a(printf.o)
                              /home/lodge/STM32MP157/tf-a/tf-a-stm32mp/../build/trusted/bl32/tf_log.o (vprintf)
/home/lodge/STM32MP157/tf-a/tf-a-stm32mp/../build/trusted/lib/libc.a(putchar.o)
                              /home/lodge/STM32MP157/tf-a/tf-a-stm32mp/../build/trusted/bl32/tf_log.o (putchar)
/home/lodge/STM32MP157/tf-a/tf-a-stm32mp/../build/trusted/lib/libc.a(snprintf.o)
                              /home/lodge/STM32MP157/tf-a/tf-a-stm32mp/../build/trusted/bl32/stm32mp1_clk.o (snprintf)
/home/lodge/STM32MP157/tf-a/tf-a-stm32mp/../build/trusted/lib/libc.a(strchr.o)
                              /home/lodge/STM32MP157/tf-a/tf-a-stm32mp/../build/trusted/bl32/stm32mp_dt.o (strchr)
/home/lodge/STM32MP157/tf-a/tf-a-stm32mp/../build/trusted/lib/libc.a(strcmp.o)
                              /home/lodge/STM32MP157/tf-a/tf-a-stm32mp/../build/trusted/bl32/stm32mp_pmic.o (strcmp)
/home/lodge/STM32MP157/tf-a/tf-a-stm32mp/../build/trusted/lib/libc.a(strlcpy.o)
                              /home/lodge/STM32MP157/tf-a/tf-a-stm32mp/../build/trusted/bl32/base.o (strlcpy)
/home/lodge/STM32MP157/tf-a/tf-a-stm32mp/../build/trusted/lib/libc.a(strlen.o)
                              /home/lodge/STM32MP157/tf-a/tf-a-stm32mp/../build/trusted/bl32/base.o (strlen)
/home/lodge/STM32MP157/tf-a/tf-a-stm32mp/../build/trusted/lib/libc.a(strncmp.o)
                              /home/lodge/STM32MP157/tf-a/tf-a-stm32mp/../build/trusted/bl32/stm32mp_clkfunc.o (strncmp)
/home/lodge/STM32MP157/tf-a/tf-a-stm32mp/../build/trusted/lib/libc.a(strnlen.o)
                              /home/lodge/STM32MP157/tf-a/tf-a-stm32mp/../build/trusted/lib/libfdt.a(fdt_ro.o) (strnlen)
/home/lodge/STM32MP157/tf-a/tf-a-stm32mp/../build/trusted/lib/libc.a(strrchr.o)
                              /home/lodge/STM32MP157/tf-a/tf-a-stm32mp/../build/trusted/lib/libfdt.a(fdt_ro.o) (strrchr)

Discarded input sections

 .text          0x0000000000000000        0x0 /home/lodge/STM32MP157/tf-a/tf-a-stm32mp/../build/trusted/bl32/build_message.o
 .data          0x0000000000000000        0x0 /home/lodge/STM32MP157/tf-a/tf-a-stm32mp/../build/trusted/bl32/build_message.o
 .bss           0x0000000000000000        0x0 /home/lodge/STM32MP157/tf-a/tf-a-stm32mp/../build/trusted/bl32/build_message.o
 .text          0x0000000000000000        0x0 /home/lodge/STM32MP157/tf-a/tf-a-stm32mp/../build/trusted/bl32/sp_min_main.o
 .data          0x0000000000000000        0x0 /home/lodge/STM32MP157/tf-a/tf-a-stm32mp/../build/trusted/bl32/sp_min_main.o
 .bss           0x0000000000000000        0x0 /home/lodge/STM32MP157/tf-a/tf-a-stm32mp/../build/trusted/bl32/sp_min_main.o
 .text.smc_set_next_ctx
                0x0000000000000000       0x14 /home/lodge/STM32MP157/tf-a/tf-a-stm32mp/../build/trusted/bl32/sp_min_main.o
 .text.cm_set_context
                0x0000000000000000       0x24 /home/lodge/STM32MP157/tf-a/tf-a-stm32mp/../build/trusted/bl32/sp_min_main.o
 .text          0x0000000000000000        0x0 /home/lodge/STM32MP157/tf-a/tf-a-stm32mp/../build/trusted/bl32/runtime_svc.o
 .data          0x0000000000000000        0x0 /home/lodge/STM32MP157/tf-a/tf-a-stm32mp/../build/trusted/bl32/runtime_svc.o
 .bss           0x0000000000000000        0x0 /home/lodge/STM32MP157/tf-a/tf-a-stm32mp/../build/trusted/bl32/runtime_svc.o
 .text          0x0000000000000000        0x0 /home/lodge/STM32MP157/tf-a/tf-a-stm32mp/../build/trusted/bl32/plat_sp_min_common.o
 .data          0x0000000000000000        0x0 /home/lodge/STM32MP157/tf-a/tf-a-stm32mp/../build/trusted/bl32/plat_sp_min_common.o
 .bss           0x0000000000000000        0x0 /home/lodge/STM32MP157/tf-a/tf-a-stm32mp/../build/trusted/bl32/plat_sp_min_common.o
 .text          0x0000000000000000        0x0 /home/lodge/STM32MP157/tf-a/tf-a-stm32mp/../build/trusted/bl32/std_svc_setup.o
 .data          0x0000000000000000        0x0 /home/lodge/STM32MP157/tf-a/tf-a-stm32mp/../build/trusted/bl32/std_svc_setup.o
 .bss           0x0000000000000000        0x0 /home/lodge/STM32MP157/tf-a/tf-a-stm32mp/../build/trusted/bl32/std_svc_setup.o
 .text          0x0000000000000000        0x0 /home/lodge/STM32MP157/tf-a/tf-a-stm32mp/../build/trusted/bl32/cpu_data_array.o
 .data          0x0000000000000000        0x0 /home/lodge/STM32MP157/tf-a/tf-a-stm32mp/../build/trusted/bl32/cpu_data_array.o
 .bss           0x0000000000000000        0x0 /home/lodge/STM32MP157/tf-a/tf-a-stm32mp/../build/trusted/bl32/cpu_data_array.o
 .text          0x0000000000000000        0x0 /home/lodge/STM32MP157/tf-a/tf-a-stm32mp/../build/trusted/bl32/context_mgmt.o
 .data          0x0000000000000000        0x0 /home/lodge/STM32MP157/tf-a/tf-a-stm32mp/../build/trusted/bl32/context_mgmt.o
 .bss           0x0000000000000000        0x0 /home/lodge/STM32MP157/tf-a/tf-a-stm32mp/../build/trusted/bl32/context_mgmt.o
 .text.cm_init  0x0000000000000000        0x2 /home/lodge/STM32MP157/tf-a/tf-a-stm32mp/../build/trusted/bl32/context_mgmt.o
 .text          0x0000000000000000        0x0 /home/lodge/STM32MP157/tf-a/tf-a-stm32mp/../build/trusted/bl32/errata_report.o
 .data          0x0000000000000000        0x0 /home/lodge/STM32MP157/tf-a/tf-a-stm32mp/../build/trusted/bl32/errata_report.o
 .bss           0x0000000000000000        0x0 /home/lodge/STM32MP157/tf-a/tf-a-stm32mp/../build/trusted/bl32/errata_report.o
 .rodata.errata_print_msg.str1.1
                0x0000000000000000       0x7d /home/lodge/STM32MP157/tf-a/tf-a-stm32mp/../build/trusted/bl32/errata_report.o
 .text.errata_print_msg
                0x0000000000000000       0x60 /home/lodge/STM32MP157/tf-a/tf-a-stm32mp/../build/trusted/bl32/errata_report.o
 .text          0x0000000000000000        0x0 /home/lodge/STM32MP157/tf-a/tf-a-stm32mp/../build/trusted/bl32/psci_off.o
 .data          0x0000000000000000        0x0 /home/lodge/STM32MP157/tf-a/tf-a-stm32mp/../build/trusted/bl32/psci_off.o
 .bss           0x0000000000000000        0x0 /home/lodge/STM32MP157/tf-a/tf-a-stm32mp/../build/trusted/bl32/psci_off.o
 .text          0x0000000000000000        0x0 /home/lodge/STM32MP157/tf-a/tf-a-stm32mp/../build/trusted/bl32/psci_on.o
 .data          0x0000000000000000        0x0 /home/lodge/STM32MP157/tf-a/tf-a-stm32mp/../build/trusted/bl32/psci_on.o
 .bss           0x0000000000000000        0x0 /home/lodge/STM32MP157/tf-a/tf-a-stm32mp/../build/trusted/bl32/psci_on.o
 .text          0x0000000000000000        0x0 /home/lodge/STM32MP157/tf-a/tf-a-stm32mp/../build/trusted/bl32/psci_suspend.o
 .data          0x0000000000000000        0x0 /home/lodge/STM32MP157/tf-a/tf-a-stm32mp/../build/trusted/bl32/psci_suspend.o
 .bss           0x0000000000000000        0x0 /home/lodge/STM32MP157/tf-a/tf-a-stm32mp/../build/trusted/bl32/psci_suspend.o
 .text          0x0000000000000000        0x0 /home/lodge/STM32MP157/tf-a/tf-a-stm32mp/../build/trusted/bl32/psci_common.o
 .data          0x0000000000000000        0x0 /home/lodge/STM32MP157/tf-a/tf-a-stm32mp/../build/trusted/bl32/psci_common.o
 .bss           0x0000000000000000        0x0 /home/lodge/STM32MP157/tf-a/tf-a-stm32mp/../build/trusted/bl32/psci_common.o
 .text.psci_register_spd_pm_hook
                0x0000000000000000       0x3c /home/lodge/STM32MP157/tf-a/tf-a-stm32mp/../build/trusted/bl32/psci_common.o
 .text.psci_secondaries_brought_up
                0x0000000000000000       0x38 /home/lodge/STM32MP157/tf-a/tf-a-stm32mp/../build/trusted/bl32/psci_common.o
 .text          0x0000000000000000        0x0 /home/lodge/STM32MP157/tf-a/tf-a-stm32mp/../build/trusted/bl32/psci_main.o
 .data          0x0000000000000000        0x0 /home/lodge/STM32MP157/tf-a/tf-a-stm32mp/../build/trusted/bl32/psci_main.o
 .bss           0x0000000000000000        0x0 /home/lodge/STM32MP157/tf-a/tf-a-stm32mp/../build/trusted/bl32/psci_main.o
 .text.psci_version
                0x0000000000000000        0x6 /home/lodge/STM32MP157/tf-a/tf-a-stm32mp/../build/trusted/bl32/psci_main.o
 .text          0x0000000000000000        0x0 /home/lodge/STM32MP157/tf-a/tf-a-stm32mp/../build/trusted/bl32/psci_setup.o
 .data          0x0000000000000000        0x0 /home/lodge/STM32MP157/tf-a/tf-a-stm32mp/../build/trusted/bl32/psci_setup.o
 .bss           0x0000000000000000        0x0 /home/lodge/STM32MP157/tf-a/tf-a-stm32mp/../build/trusted/bl32/psci_setup.o
 .text          0x0000000000000000        0x0 /home/lodge/STM32MP157/tf-a/tf-a-stm32mp/../build/trusted/bl32/psci_system_off.o
 .data          0x0000000000000000        0x0 /home/lodge/STM32MP157/tf-a/tf-a-stm32mp/../build/trusted/bl32/psci_system_off.o
 .bss           0x0000000000000000        0x0 /home/lodge/STM32MP157/tf-a/tf-a-stm32mp/../build/trusted/bl32/psci_system_off.o
 .text          0x0000000000000000        0x0 /home/lodge/STM32MP157/tf-a/tf-a-stm32mp/../build/trusted/bl32/psci_mem_protect.o
 .data          0x0000000000000000        0x0 /home/lodge/STM32MP157/tf-a/tf-a-stm32mp/../build/trusted/bl32/psci_mem_protect.o
 .bss           0x0000000000000000        0x0 /home/lodge/STM32MP157/tf-a/tf-a-stm32mp/../build/trusted/bl32/psci_mem_protect.o
 .text          0x0000000000000000        0x0 /home/lodge/STM32MP157/tf-a/tf-a-stm32mp/../build/trusted/bl32/bakery_lock_normal.o
 .data          0x0000000000000000        0x0 /home/lodge/STM32MP157/tf-a/tf-a-stm32mp/../build/trusted/bl32/bakery_lock_normal.o
 .bss           0x0000000000000000        0x0 /home/lodge/STM32MP157/tf-a/tf-a-stm32mp/../build/trusted/bl32/bakery_lock_normal.o
 .text          0x0000000000000000        0x0 /home/lodge/STM32MP157/tf-a/tf-a-stm32mp/../build/trusted/bl32/stm32mp1_calib.o
 .data          0x0000000000000000        0x0 /home/lodge/STM32MP157/tf-a/tf-a-stm32mp/../build/trusted/bl32/stm32mp1_calib.o
 .bss           0x0000000000000000        0x0 /home/lodge/STM32MP157/tf-a/tf-a-stm32mp/../build/trusted/bl32/stm32mp1_calib.o
 .text          0x0000000000000000        0x0 /home/lodge/STM32MP157/tf-a/tf-a-stm32mp/../build/trusted/bl32/etzpc.o
 .data          0x0000000000000000        0x0 /home/lodge/STM32MP157/tf-a/tf-a-stm32mp/../build/trusted/bl32/etzpc.o
 .bss           0x0000000000000000        0x0 /home/lodge/STM32MP157/tf-a/tf-a-stm32mp/../build/trusted/bl32/etzpc.o
 .text.etzpc_get_tzma
                0x0000000000000000       0x24 /home/lodge/STM32MP157/tf-a/tf-a-stm32mp/../build/trusted/bl32/etzpc.o
 .text.etzpc_lock_tzma
                0x0000000000000000       0x2c /home/lodge/STM32MP157/tf-a/tf-a-stm32mp/../build/trusted/bl32/etzpc.o
 .text.etzpc_get_lock_tzma
                0x0000000000000000       0x24 /home/lodge/STM32MP157/tf-a/tf-a-stm32mp/../build/trusted/bl32/etzpc.o
 .text.etzpc_get_num_per_sec
                0x0000000000000000        0xc /home/lodge/STM32MP157/tf-a/tf-a-stm32mp/../build/trusted/bl32/etzpc.o
 .text.etzpc_get_revision
                0x0000000000000000        0xc /home/lodge/STM32MP157/tf-a/tf-a-stm32mp/../build/trusted/bl32/etzpc.o
 .text.etzpc_get_base_address
                0x0000000000000000        0xc /home/lodge/STM32MP157/tf-a/tf-a-stm32mp/../build/trusted/bl32/etzpc.o
 .text          0x0000000000000000        0x0 /home/lodge/STM32MP157/tf-a/tf-a-stm32mp/../build/trusted/bl32/stm32_rng.o
 .data          0x0000000000000000        0x0 /home/lodge/STM32MP157/tf-a/tf-a-stm32mp/../build/trusted/bl32/stm32_rng.o
 .bss           0x0000000000000000        0x0 /home/lodge/STM32MP157/tf-a/tf-a-stm32mp/../build/trusted/bl32/stm32_rng.o
 .text          0x0000000000000000        0x0 /home/lodge/STM32MP157/tf-a/tf-a-stm32mp/../build/trusted/bl32/stm32_rtc.o
 .data          0x0000000000000000        0x0 /home/lodge/STM32MP157/tf-a/tf-a-stm32mp/../build/trusted/bl32/stm32_rtc.o
 .bss           0x0000000000000000        0x0 /home/lodge/STM32MP157/tf-a/tf-a-stm32mp/../build/trusted/bl32/stm32_rtc.o
 .text          0x0000000000000000        0x0 /home/lodge/STM32MP157/tf-a/tf-a-stm32mp/../build/trusted/bl32/stm32_tamp.o
 .data          0x0000000000000000        0x0 /home/lodge/STM32MP157/tf-a/tf-a-stm32mp/../build/trusted/bl32/stm32_tamp.o
 .bss           0x0000000000000000        0x0 /home/lodge/STM32MP157/tf-a/tf-a-stm32mp/../build/trusted/bl32/stm32_tamp.o
 .text.stm32_tamp_write_mcounter
                0x0000000000000000       0x10 /home/lodge/STM32MP157/tf-a/tf-a-stm32mp/../build/trusted/bl32/stm32_tamp.o
 .text          0x0000000000000000        0x0 /home/lodge/STM32MP157/tf-a/tf-a-stm32mp/../build/trusted/bl32/stm32_timer.o
 .data          0x0000000000000000        0x0 /home/lodge/STM32MP157/tf-a/tf-a-stm32mp/../build/trusted/bl32/stm32_timer.o
 .bss           0x0000000000000000        0x0 /home/lodge/STM32MP157/tf-a/tf-a-stm32mp/../build/trusted/bl32/stm32_timer.o
 .text          0x0000000000000000        0x0 /home/lodge/STM32MP157/tf-a/tf-a-stm32mp/../build/trusted/bl32/sp_min_setup.o
 .data          0x0000000000000000        0x0 /home/lodge/STM32MP157/tf-a/tf-a-stm32mp/../build/trusted/bl32/sp_min_setup.o
 .bss           0x0000000000000000        0x0 /home/lodge/STM32MP157/tf-a/tf-a-stm32mp/../build/trusted/bl32/sp_min_setup.o
 .text          0x0000000000000000        0x0 /home/lodge/STM32MP157/tf-a/tf-a-stm32mp/../build/trusted/bl32/stm32mp1_low_power.o
 .data          0x0000000000000000        0x0 /home/lodge/STM32MP157/tf-a/tf-a-stm32mp/../build/trusted/bl32/stm32mp1_low_power.o
 .bss           0x0000000000000000        0x0 /home/lodge/STM32MP157/tf-a/tf-a-stm32mp/../build/trusted/bl32/stm32mp1_low_power.o
 .text          0x0000000000000000        0x0 /home/lodge/STM32MP157/tf-a/tf-a-stm32mp/../build/trusted/bl32/stm32mp1_pm.o
 .data          0x0000000000000000        0x0 /home/lodge/STM32MP157/tf-a/tf-a-stm32mp/../build/trusted/bl32/stm32mp1_pm.o
 .bss           0x0000000000000000        0x0 /home/lodge/STM32MP157/tf-a/tf-a-stm32mp/../build/trusted/bl32/stm32mp1_pm.o
 .text          0x0000000000000000        0x0 /home/lodge/STM32MP157/tf-a/tf-a-stm32mp/../build/trusted/bl32/stm32mp1_power_config.o
 .data          0x0000000000000000        0x0 /home/lodge/STM32MP157/tf-a/tf-a-stm32mp/../build/trusted/bl32/stm32mp1_power_config.o
 .bss           0x0000000000000000        0x0 /home/lodge/STM32MP157/tf-a/tf-a-stm32mp/../build/trusted/bl32/stm32mp1_power_config.o
 .text.stm32mp1_set_lp_deepest_soc_mode
                0x0000000000000000       0x28 /home/lodge/STM32MP157/tf-a/tf-a-stm32mp/../build/trusted/bl32/stm32mp1_power_config.o
 .text          0x0000000000000000        0x0 /home/lodge/STM32MP157/tf-a/tf-a-stm32mp/../build/trusted/bl32/stm32mp1_shared_resources.o
 .data          0x0000000000000000        0x0 /home/lodge/STM32MP157/tf-a/tf-a-stm32mp/../build/trusted/bl32/stm32mp1_shared_resources.o
 .bss           0x0000000000000000        0x0 /home/lodge/STM32MP157/tf-a/tf-a-stm32mp/../build/trusted/bl32/stm32mp1_shared_resources.o
 .text.stm32mp_register_non_secure_periph
                0x0000000000000000        0x6 /home/lodge/STM32MP157/tf-a/tf-a-stm32mp/../build/trusted/bl32/stm32mp1_shared_resources.o
 .text.stm32mp1_periph_is_non_secure
                0x0000000000000000       0x20 /home/lodge/STM32MP157/tf-a/tf-a-stm32mp/../build/trusted/bl32/stm32mp1_shared_resources.o
 .text.stm32mp_gpio_bank_is_shared
                0x0000000000000000       0x44 /home/lodge/STM32MP157/tf-a/tf-a-stm32mp/../build/trusted/bl32/stm32mp1_shared_resources.o
 .text          0x0000000000000000        0x0 /home/lodge/STM32MP157/tf-a/tf-a-stm32mp/../build/trusted/bl32/stm32mp1_topology.o
 .data          0x0000000000000000        0x0 /home/lodge/STM32MP157/tf-a/tf-a-stm32mp/../build/trusted/bl32/stm32mp1_topology.o
 .bss           0x0000000000000000        0x0 /home/lodge/STM32MP157/tf-a/tf-a-stm32mp/../build/trusted/bl32/stm32mp1_topology.o
 .text          0x0000000000000000        0x0 /home/lodge/STM32MP157/tf-a/tf-a-stm32mp/../build/trusted/bl32/gic_common.o
 .data          0x0000000000000000        0x0 /home/lodge/STM32MP157/tf-a/tf-a-stm32mp/../build/trusted/bl32/gic_common.o
 .bss           0x0000000000000000        0x0 /home/lodge/STM32MP157/tf-a/tf-a-stm32mp/../build/trusted/bl32/gic_common.o
 .text.gicd_read_isenabler
                0x0000000000000000        0xc /home/lodge/STM32MP157/tf-a/tf-a-stm32mp/../build/trusted/bl32/gic_common.o
 .text.gicd_read_icenabler
                0x0000000000000000        0xc /home/lodge/STM32MP157/tf-a/tf-a-stm32mp/../build/trusted/bl32/gic_common.o
 .text.gicd_read_ispendr
                0x0000000000000000        0xc /home/lodge/STM32MP157/tf-a/tf-a-stm32mp/../build/trusted/bl32/gic_common.o
 .text.gicd_read_icpendr
                0x0000000000000000        0xc /home/lodge/STM32MP157/tf-a/tf-a-stm32mp/../build/trusted/bl32/gic_common.o
 .text.gicd_read_isactiver
                0x0000000000000000        0xc /home/lodge/STM32MP157/tf-a/tf-a-stm32mp/../build/trusted/bl32/gic_common.o
 .text.gicd_read_icactiver
                0x0000000000000000        0xc /home/lodge/STM32MP157/tf-a/tf-a-stm32mp/../build/trusted/bl32/gic_common.o
 .text.gicd_read_ipriorityr
                0x0000000000000000        0xc /home/lodge/STM32MP157/tf-a/tf-a-stm32mp/../build/trusted/bl32/gic_common.o
 .text.gicd_read_nsacr
                0x0000000000000000        0xc /home/lodge/STM32MP157/tf-a/tf-a-stm32mp/../build/trusted/bl32/gic_common.o
 .text.gicd_write_ispendr
                0x0000000000000000        0xc /home/lodge/STM32MP157/tf-a/tf-a-stm32mp/../build/trusted/bl32/gic_common.o
 .text.gicd_write_icpendr
                0x0000000000000000        0xc /home/lodge/STM32MP157/tf-a/tf-a-stm32mp/../build/trusted/bl32/gic_common.o
 .text.gicd_write_isactiver
                0x0000000000000000        0xc /home/lodge/STM32MP157/tf-a/tf-a-stm32mp/../build/trusted/bl32/gic_common.o
 .text.gicd_write_icactiver
                0x0000000000000000        0xc /home/lodge/STM32MP157/tf-a/tf-a-stm32mp/../build/trusted/bl32/gic_common.o
 .text.gicd_write_nsacr
                0x0000000000000000        0xc /home/lodge/STM32MP157/tf-a/tf-a-stm32mp/../build/trusted/bl32/gic_common.o
 .text.gicd_get_igroupr
                0x0000000000000000       0x14 /home/lodge/STM32MP157/tf-a/tf-a-stm32mp/../build/trusted/bl32/gic_common.o
 .text.gicd_set_ispendr
                0x0000000000000000        0xc /home/lodge/STM32MP157/tf-a/tf-a-stm32mp/../build/trusted/bl32/gic_common.o
 .text.gicd_set_icpendr
                0x0000000000000000        0xc /home/lodge/STM32MP157/tf-a/tf-a-stm32mp/../build/trusted/bl32/gic_common.o
 .text.gicd_get_isactiver
                0x0000000000000000       0x14 /home/lodge/STM32MP157/tf-a/tf-a-stm32mp/../build/trusted/bl32/gic_common.o
 .text.gicd_set_isactiver
                0x0000000000000000        0xc /home/lodge/STM32MP157/tf-a/tf-a-stm32mp/../build/trusted/bl32/gic_common.o
 .text.gicd_set_icactiver
                0x0000000000000000        0xc /home/lodge/STM32MP157/tf-a/tf-a-stm32mp/../build/trusted/bl32/gic_common.o
 .text          0x0000000000000000        0x0 /home/lodge/STM32MP157/tf-a/tf-a-stm32mp/../build/trusted/bl32/gicv2_helpers.o
 .data          0x0000000000000000        0x0 /home/lodge/STM32MP157/tf-a/tf-a-stm32mp/../build/trusted/bl32/gicv2_helpers.o
 .bss           0x0000000000000000        0x0 /home/lodge/STM32MP157/tf-a/tf-a-stm32mp/../build/trusted/bl32/gicv2_helpers.o
 .text.gicd_read_itargetsr
                0x0000000000000000        0xc /home/lodge/STM32MP157/tf-a/tf-a-stm32mp/../build/trusted/bl32/gicv2_helpers.o
 .text.gicd_read_cpendsgir
                0x0000000000000000        0xc /home/lodge/STM32MP157/tf-a/tf-a-stm32mp/../build/trusted/bl32/gicv2_helpers.o
 .text.gicd_read_spendsgir
                0x0000000000000000        0xc /home/lodge/STM32MP157/tf-a/tf-a-stm32mp/../build/trusted/bl32/gicv2_helpers.o
 .text.gicd_write_itargetsr
                0x0000000000000000        0xc /home/lodge/STM32MP157/tf-a/tf-a-stm32mp/../build/trusted/bl32/gicv2_helpers.o
 .text.gicd_write_cpendsgir
                0x0000000000000000        0xc /home/lodge/STM32MP157/tf-a/tf-a-stm32mp/../build/trusted/bl32/gicv2_helpers.o
 .text.gicd_write_spendsgir
                0x0000000000000000        0xc /home/lodge/STM32MP157/tf-a/tf-a-stm32mp/../build/trusted/bl32/gicv2_helpers.o
 .text          0x0000000000000000        0x0 /home/lodge/STM32MP157/tf-a/tf-a-stm32mp/../build/trusted/bl32/gicv2_main.o
 .data          0x0000000000000000        0x0 /home/lodge/STM32MP157/tf-a/tf-a-stm32mp/../build/trusted/bl32/gicv2_main.o
 .bss           0x0000000000000000        0x0 /home/lodge/STM32MP157/tf-a/tf-a-stm32mp/../build/trusted/bl32/gicv2_main.o
 .text.gicv2_cpuif_disable
                0x0000000000000000       0x30 /home/lodge/STM32MP157/tf-a/tf-a-stm32mp/../build/trusted/bl32/gicv2_main.o
 .text.gicv2_is_fiq_enabled
                0x0000000000000000       0x28 /home/lodge/STM32MP157/tf-a/tf-a-stm32mp/../build/trusted/bl32/gicv2_main.o
 .text.gicv2_get_pending_interrupt_type
                0x0000000000000000       0x28 /home/lodge/STM32MP157/tf-a/tf-a-stm32mp/../build/trusted/bl32/gicv2_main.o
 .text.gicv2_get_interrupt_group
                0x0000000000000000       0x30 /home/lodge/STM32MP157/tf-a/tf-a-stm32mp/../build/trusted/bl32/gicv2_main.o
 .text.gicv2_get_running_priority
                0x0000000000000000       0x28 /home/lodge/STM32MP157/tf-a/tf-a-stm32mp/../build/trusted/bl32/gicv2_main.o
 .text.gicv2_get_interrupt_active
                0x0000000000000000       0x3c /home/lodge/STM32MP157/tf-a/tf-a-stm32mp/../build/trusted/bl32/gicv2_main.o
 .text.gicv2_clear_interrupt_pending
                0x0000000000000000       0x3c /home/lodge/STM32MP157/tf-a/tf-a-stm32mp/../build/trusted/bl32/gicv2_main.o
 .text.gicv2_set_interrupt_pending
                0x0000000000000000       0x40 /home/lodge/STM32MP157/tf-a/tf-a-stm32mp/../build/trusted/bl32/gicv2_main.o
 .text          0x0000000000000000        0x0 /home/lodge/STM32MP157/tf-a/tf-a-stm32mp/../build/trusted/bl32/plat_gicv2.o
 .data          0x0000000000000000        0x0 /home/lodge/STM32MP157/tf-a/tf-a-stm32mp/../build/trusted/bl32/plat_gicv2.o
 .bss           0x0000000000000000        0x0 /home/lodge/STM32MP157/tf-a/tf-a-stm32mp/../build/trusted/bl32/plat_gicv2.o
 .text.plat_ic_get_pending_interrupt_type
                0x0000000000000000       0x20 /home/lodge/STM32MP157/tf-a/tf-a-stm32mp/../build/trusted/bl32/plat_gicv2.o
 .text.plat_ic_get_interrupt_type
                0x0000000000000000       0x10 /home/lodge/STM32MP157/tf-a/tf-a-stm32mp/../build/trusted/bl32/plat_gicv2.o
 .rodata.plat_interrupt_type_to_line.str1.1
                0x0000000000000000       0x19 /home/lodge/STM32MP157/tf-a/tf-a-stm32mp/../build/trusted/bl32/plat_gicv2.o
 .text.plat_interrupt_type_to_line
                0x0000000000000000       0x2c /home/lodge/STM32MP157/tf-a/tf-a-stm32mp/../build/trusted/bl32/plat_gicv2.o
 .text.plat_ic_get_running_priority
                0x0000000000000000        0x4 /home/lodge/STM32MP157/tf-a/tf-a-stm32mp/../build/trusted/bl32/plat_gicv2.o
 .text.plat_ic_is_spi
                0x0000000000000000        0xe /home/lodge/STM32MP157/tf-a/tf-a-stm32mp/../build/trusted/bl32/plat_gicv2.o
 .text.plat_ic_is_ppi
                0x0000000000000000        0xc /home/lodge/STM32MP157/tf-a/tf-a-stm32mp/../build/trusted/bl32/plat_gicv2.o
 .text.plat_ic_is_sgi
                0x0000000000000000        0xa /home/lodge/STM32MP157/tf-a/tf-a-stm32mp/../build/trusted/bl32/plat_gicv2.o
 .text.plat_ic_get_interrupt_active
                0x0000000000000000        0x4 /home/lodge/STM32MP157/tf-a/tf-a-stm32mp/../build/trusted/bl32/plat_gicv2.o
 .text.plat_ic_enable_interrupt
                0x0000000000000000        0x4 /home/lodge/STM32MP157/tf-a/tf-a-stm32mp/../build/trusted/bl32/plat_gicv2.o
 .text.plat_ic_has_interrupt_type
                0x0000000000000000        0xc /home/lodge/STM32MP157/tf-a/tf-a-stm32mp/../build/trusted/bl32/plat_gicv2.o
 .text.plat_ic_set_interrupt_type
                0x0000000000000000       0x20 /home/lodge/STM32MP157/tf-a/tf-a-stm32mp/../build/trusted/bl32/plat_gicv2.o
 .text.plat_ic_raise_el3_sgi
                0x0000000000000000       0x10 /home/lodge/STM32MP157/tf-a/tf-a-stm32mp/../build/trusted/bl32/plat_gicv2.o
 .text.plat_ic_set_spi_routing
                0x0000000000000000       0x38 /home/lodge/STM32MP157/tf-a/tf-a-stm32mp/../build/trusted/bl32/plat_gicv2.o
 .text.plat_ic_set_interrupt_pending
                0x0000000000000000        0x4 /home/lodge/STM32MP157/tf-a/tf-a-stm32mp/../build/trusted/bl32/plat_gicv2.o
 .text.plat_ic_clear_interrupt_pending
                0x0000000000000000        0x4 /home/lodge/STM32MP157/tf-a/tf-a-stm32mp/../build/trusted/bl32/plat_gicv2.o
 .text.plat_ic_get_interrupt_id
                0x0000000000000000       0x12 /home/lodge/STM32MP157/tf-a/tf-a-stm32mp/../build/trusted/bl32/plat_gicv2.o
 .text          0x0000000000000000        0x0 /home/lodge/STM32MP157/tf-a/tf-a-stm32mp/../build/trusted/bl32/stm32_gic.o
 .data          0x0000000000000000        0x0 /home/lodge/STM32MP157/tf-a/tf-a-stm32mp/../build/trusted/bl32/stm32_gic.o
 .bss           0x0000000000000000        0x0 /home/lodge/STM32MP157/tf-a/tf-a-stm32mp/../build/trusted/bl32/stm32_gic.o
 .text          0x0000000000000000        0x0 /home/lodge/STM32MP157/tf-a/tf-a-stm32mp/../build/trusted/bl32/plat_psci_common.o
 .data          0x0000000000000000        0x0 /home/lodge/STM32MP157/tf-a/tf-a-stm32mp/../build/trusted/bl32/plat_psci_common.o
 .bss           0x0000000000000000        0x0 /home/lodge/STM32MP157/tf-a/tf-a-stm32mp/../build/trusted/bl32/plat_psci_common.o
 .text          0x0000000000000000        0x0 /home/lodge/STM32MP157/tf-a/tf-a-stm32mp/../build/trusted/bl32/bsec_svc.o
 .data          0x0000000000000000        0x0 /home/lodge/STM32MP157/tf-a/tf-a-stm32mp/../build/trusted/bl32/bsec_svc.o
 .bss           0x0000000000000000        0x0 /home/lodge/STM32MP157/tf-a/tf-a-stm32mp/../build/trusted/bl32/bsec_svc.o
 .text          0x0000000000000000        0x0 /home/lodge/STM32MP157/tf-a/tf-a-stm32mp/../build/trusted/bl32/low_power_svc.o
 .data          0x0000000000000000        0x0 /home/lodge/STM32MP157/tf-a/tf-a-stm32mp/../build/trusted/bl32/low_power_svc.o
 .bss           0x0000000000000000        0x0 /home/lodge/STM32MP157/tf-a/tf-a-stm32mp/../build/trusted/bl32/low_power_svc.o
 .text          0x0000000000000000        0x0 /home/lodge/STM32MP157/tf-a/tf-a-stm32mp/../build/trusted/bl32/pwr_svc.o
 .data          0x0000000000000000        0x0 /home/lodge/STM32MP157/tf-a/tf-a-stm32mp/../build/trusted/bl32/pwr_svc.o
 .bss           0x0000000000000000        0x0 /home/lodge/STM32MP157/tf-a/tf-a-stm32mp/../build/trusted/bl32/pwr_svc.o
 .text          0x0000000000000000        0x0 /home/lodge/STM32MP157/tf-a/tf-a-stm32mp/../build/trusted/bl32/rcc_svc.o
 .data          0x0000000000000000        0x0 /home/lodge/STM32MP157/tf-a/tf-a-stm32mp/../build/trusted/bl32/rcc_svc.o
 .bss           0x0000000000000000        0x0 /home/lodge/STM32MP157/tf-a/tf-a-stm32mp/../build/trusted/bl32/rcc_svc.o
 .text          0x0000000000000000        0x0 /home/lodge/STM32MP157/tf-a/tf-a-stm32mp/../build/trusted/bl32/stm32mp1_svc_setup.o
 .data          0x0000000000000000        0x0 /home/lodge/STM32MP157/tf-a/tf-a-stm32mp/../build/trusted/bl32/stm32mp1_svc_setup.o
 .bss           0x0000000000000000        0x0 /home/lodge/STM32MP157/tf-a/tf-a-stm32mp/../build/trusted/bl32/stm32mp1_svc_setup.o
 .text          0x0000000000000000        0x0 /home/lodge/STM32MP157/tf-a/tf-a-stm32mp/../build/trusted/bl32/base.o
 .data          0x0000000000000000        0x0 /home/lodge/STM32MP157/tf-a/tf-a-stm32mp/../build/trusted/bl32/base.o
 .bss           0x0000000000000000        0x0 /home/lodge/STM32MP157/tf-a/tf-a-stm32mp/../build/trusted/bl32/base.o
 .text          0x0000000000000000        0x0 /home/lodge/STM32MP157/tf-a/tf-a-stm32mp/../build/trusted/bl32/clock.o
 .data          0x0000000000000000        0x0 /home/lodge/STM32MP157/tf-a/tf-a-stm32mp/../build/trusted/bl32/clock.o
 .bss           0x0000000000000000        0x0 /home/lodge/STM32MP157/tf-a/tf-a-stm32mp/../build/trusted/bl32/clock.o
 .text.plat_scmi_clock_count
                0x0000000000000000        0x4 /home/lodge/STM32MP157/tf-a/tf-a-stm32mp/../build/trusted/bl32/clock.o
 .text.plat_scmi_clock_get_name
                0x0000000000000000        0x4 /home/lodge/STM32MP157/tf-a/tf-a-stm32mp/../build/trusted/bl32/clock.o
 .text.plat_scmi_clock_rates_array
                0x0000000000000000        0x6 /home/lodge/STM32MP157/tf-a/tf-a-stm32mp/../build/trusted/bl32/clock.o
 .text.plat_scmi_clock_rates_by_step
                0x0000000000000000        0x6 /home/lodge/STM32MP157/tf-a/tf-a-stm32mp/../build/trusted/bl32/clock.o
 .text.plat_scmi_clock_get_rate
                0x0000000000000000        0x4 /home/lodge/STM32MP157/tf-a/tf-a-stm32mp/../build/trusted/bl32/clock.o
 .text.plat_scmi_clock_set_rate
                0x0000000000000000        0x6 /home/lodge/STM32MP157/tf-a/tf-a-stm32mp/../build/trusted/bl32/clock.o
 .text.plat_scmi_clock_get_state
                0x0000000000000000        0x6 /home/lodge/STM32MP157/tf-a/tf-a-stm32mp/../build/trusted/bl32/clock.o
 .text.plat_scmi_clock_set_state
                0x0000000000000000        0x6 /home/lodge/STM32MP157/tf-a/tf-a-stm32mp/../build/trusted/bl32/clock.o
 .text          0x0000000000000000        0x0 /home/lodge/STM32MP157/tf-a/tf-a-stm32mp/../build/trusted/bl32/entry.o
 .data          0x0000000000000000        0x0 /home/lodge/STM32MP157/tf-a/tf-a-stm32mp/../build/trusted/bl32/entry.o
 .bss           0x0000000000000000        0x0 /home/lodge/STM32MP157/tf-a/tf-a-stm32mp/../build/trusted/bl32/entry.o
 .text          0x0000000000000000        0x0 /home/lodge/STM32MP157/tf-a/tf-a-stm32mp/../build/trusted/bl32/reset_domain.o
 .data          0x0000000000000000        0x0 /home/lodge/STM32MP157/tf-a/tf-a-stm32mp/../build/trusted/bl32/reset_domain.o
 .bss           0x0000000000000000        0x0 /home/lodge/STM32MP157/tf-a/tf-a-stm32mp/../build/trusted/bl32/reset_domain.o
 .text.plat_scmi_rd_count
                0x0000000000000000        0x4 /home/lodge/STM32MP157/tf-a/tf-a-stm32mp/../build/trusted/bl32/reset_domain.o
 .text.plat_scmi_rd_get_name
                0x0000000000000000        0x4 /home/lodge/STM32MP157/tf-a/tf-a-stm32mp/../build/trusted/bl32/reset_domain.o
 .text.plat_scmi_rd_autonomous
                0x0000000000000000        0x6 /home/lodge/STM32MP157/tf-a/tf-a-stm32mp/../build/trusted/bl32/reset_domain.o
 .text.plat_scmi_rd_set_state
                0x0000000000000000        0x6 /home/lodge/STM32MP157/tf-a/tf-a-stm32mp/../build/trusted/bl32/reset_domain.o
 .text          0x0000000000000000        0x0 /home/lodge/STM32MP157/tf-a/tf-a-stm32mp/../build/trusted/bl32/smt.o
 .data          0x0000000000000000        0x0 /home/lodge/STM32MP157/tf-a/tf-a-stm32mp/../build/trusted/bl32/smt.o
 .bss           0x0000000000000000        0x0 /home/lodge/STM32MP157/tf-a/tf-a-stm32mp/../build/trusted/bl32/smt.o
 .text.scmi_smt_interrupt_entry
                0x0000000000000000       0x20 /home/lodge/STM32MP157/tf-a/tf-a-stm32mp/../build/trusted/bl32/smt.o
 .bss.interrupt_payload
                0x0000000000000000       0xb8 /home/lodge/STM32MP157/tf-a/tf-a-stm32mp/../build/trusted/bl32/smt.o
 .text          0x0000000000000000        0x0 /home/lodge/STM32MP157/tf-a/tf-a-stm32mp/../build/trusted/bl32/stm32mp1_scmi.o
 .data          0x0000000000000000        0x0 /home/lodge/STM32MP157/tf-a/tf-a-stm32mp/../build/trusted/bl32/stm32mp1_scmi.o
 .bss           0x0000000000000000        0x0 /home/lodge/STM32MP157/tf-a/tf-a-stm32mp/../build/trusted/bl32/stm32mp1_scmi.o
 .text          0x0000000000000000        0x0 /home/lodge/STM32MP157/tf-a/tf-a-stm32mp/../build/trusted/bl32/bl_common.o
 .data          0x0000000000000000        0x0 /home/lodge/STM32MP157/tf-a/tf-a-stm32mp/../build/trusted/bl32/bl_common.o
 .bss           0x0000000000000000        0x0 /home/lodge/STM32MP157/tf-a/tf-a-stm32mp/../build/trusted/bl32/bl_common.o
 .rodata.load_auth_image_internal.str1.1
                0x0000000000000000      0x12d /home/lodge/STM32MP157/tf-a/tf-a-stm32mp/../build/trusted/bl32/bl_common.o
 .text.load_auth_image_internal
                0x0000000000000000      0x138 /home/lodge/STM32MP157/tf-a/tf-a-stm32mp/../build/trusted/bl32/bl_common.o
 .text.page_align
                0x0000000000000000       0x18 /home/lodge/STM32MP157/tf-a/tf-a-stm32mp/../build/trusted/bl32/bl_common.o
 .text.load_auth_image
                0x0000000000000000       0x22 /home/lodge/STM32MP157/tf-a/tf-a-stm32mp/../build/trusted/bl32/bl_common.o
 .rodata.print_entry_point_info.str1.1
                0x0000000000000000       0x2c /home/lodge/STM32MP157/tf-a/tf-a-stm32mp/../build/trusted/bl32/bl_common.o
 .text.print_entry_point_info
                0x0000000000000000       0x20 /home/lodge/STM32MP157/tf-a/tf-a-stm32mp/../build/trusted/bl32/bl_common.o
 .debug_info    0x0000000000000000      0x70e /home/lodge/STM32MP157/tf-a/tf-a-stm32mp/../build/trusted/bl32/bl_common.o
 .debug_abbrev  0x0000000000000000      0x232 /home/lodge/STM32MP157/tf-a/tf-a-stm32mp/../build/trusted/bl32/bl_common.o
 .debug_loc     0x0000000000000000      0x3cb /home/lodge/STM32MP157/tf-a/tf-a-stm32mp/../build/trusted/bl32/bl_common.o
 .debug_aranges
                0x0000000000000000       0x38 /home/lodge/STM32MP157/tf-a/tf-a-stm32mp/../build/trusted/bl32/bl_common.o
 .debug_ranges  0x0000000000000000       0x68 /home/lodge/STM32MP157/tf-a/tf-a-stm32mp/../build/trusted/bl32/bl_common.o
 .debug_line    0x0000000000000000      0x3f7 /home/lodge/STM32MP157/tf-a/tf-a-stm32mp/../build/trusted/bl32/bl_common.o
 .debug_str     0x0000000000000000      0x46b /home/lodge/STM32MP157/tf-a/tf-a-stm32mp/../build/trusted/bl32/bl_common.o
 .comment       0x0000000000000000       0x5e /home/lodge/STM32MP157/tf-a/tf-a-stm32mp/../build/trusted/bl32/bl_common.o
 .note.GNU-stack
                0x0000000000000000        0x0 /home/lodge/STM32MP157/tf-a/tf-a-stm32mp/../build/trusted/bl32/bl_common.o
 .debug_frame   0x0000000000000000       0x80 /home/lodge/STM32MP157/tf-a/tf-a-stm32mp/../build/trusted/bl32/bl_common.o
 .ARM.attributes
                0x0000000000000000       0x33 /home/lodge/STM32MP157/tf-a/tf-a-stm32mp/../build/trusted/bl32/bl_common.o
 .text          0x0000000000000000        0x0 /home/lodge/STM32MP157/tf-a/tf-a-stm32mp/../build/trusted/bl32/tf_log.o
 .data          0x0000000000000000        0x0 /home/lodge/STM32MP157/tf-a/tf-a-stm32mp/../build/trusted/bl32/tf_log.o
 .bss           0x0000000000000000        0x0 /home/lodge/STM32MP157/tf-a/tf-a-stm32mp/../build/trusted/bl32/tf_log.o
 .text.tf_log_set_max_level
                0x0000000000000000       0x30 /home/lodge/STM32MP157/tf-a/tf-a-stm32mp/../build/trusted/bl32/tf_log.o
 .text          0x0000000000000000        0x0 /home/lodge/STM32MP157/tf-a/tf-a-stm32mp/../build/trusted/bl32/multi_console.o
 .data          0x0000000000000000        0x0 /home/lodge/STM32MP157/tf-a/tf-a-stm32mp/../build/trusted/bl32/multi_console.o
 .bss           0x0000000000000000        0x0 /home/lodge/STM32MP157/tf-a/tf-a-stm32mp/../build/trusted/bl32/multi_console.o
 .text.console_unregister
                0x0000000000000000       0x2c /home/lodge/STM32MP157/tf-a/tf-a-stm32mp/../build/trusted/bl32/multi_console.o
 .text.console_getc
                0x0000000000000000       0x3c /home/lodge/STM32MP157/tf-a/tf-a-stm32mp/../build/trusted/bl32/multi_console.o
 .text          0x0000000000000000        0x0 /home/lodge/STM32MP157/tf-a/tf-a-stm32mp/../build/trusted/bl32/plat_bl_common.o
 .data          0x0000000000000000        0x0 /home/lodge/STM32MP157/tf-a/tf-a-stm32mp/../build/trusted/bl32/plat_bl_common.o
 .bss           0x0000000000000000        0x0 /home/lodge/STM32MP157/tf-a/tf-a-stm32mp/../build/trusted/bl32/plat_bl_common.o
 .text.bl2_el3_plat_prepare_exit
                0x0000000000000000        0x2 /home/lodge/STM32MP157/tf-a/tf-a-stm32mp/../build/trusted/bl32/plat_bl_common.o
 .text.plat_error_handler
                0x0000000000000000        0x4 /home/lodge/STM32MP157/tf-a/tf-a-stm32mp/../build/trusted/bl32/plat_bl_common.o
 .text.bl2_plat_preload_setup
                0x0000000000000000        0x2 /home/lodge/STM32MP157/tf-a/tf-a-stm32mp/../build/trusted/bl32/plat_bl_common.o
 .text.bl2_plat_handle_pre_image_load
                0x0000000000000000        0x4 /home/lodge/STM32MP157/tf-a/tf-a-stm32mp/../build/trusted/bl32/plat_bl_common.o
 .text.bl2_plat_handle_post_image_load
                0x0000000000000000        0x4 /home/lodge/STM32MP157/tf-a/tf-a-stm32mp/../build/trusted/bl32/plat_bl_common.o
 .text.plat_try_next_boot_source
                0x0000000000000000        0x4 /home/lodge/STM32MP157/tf-a/tf-a-stm32mp/../build/trusted/bl32/plat_bl_common.o
 .text.setup_page_tables
                0x0000000000000000       0x16 /home/lodge/STM32MP157/tf-a/tf-a-stm32mp/../build/trusted/bl32/plat_bl_common.o
 .debug_info    0x0000000000000000      0x2c2 /home/lodge/STM32MP157/tf-a/tf-a-stm32mp/../build/trusted/bl32/plat_bl_common.o
 .debug_abbrev  0x0000000000000000      0x1ce /home/lodge/STM32MP157/tf-a/tf-a-stm32mp/../build/trusted/bl32/plat_bl_common.o
 .debug_loc     0x0000000000000000       0x91 /home/lodge/STM32MP157/tf-a/tf-a-stm32mp/../build/trusted/bl32/plat_bl_common.o
 .debug_aranges
                0x0000000000000000       0x38 /home/lodge/STM32MP157/tf-a/tf-a-stm32mp/../build/trusted/bl32/plat_bl_common.o
 .debug_ranges  0x0000000000000000       0x28 /home/lodge/STM32MP157/tf-a/tf-a-stm32mp/../build/trusted/bl32/plat_bl_common.o
 .debug_line    0x0000000000000000      0x195 /home/lodge/STM32MP157/tf-a/tf-a-stm32mp/../build/trusted/bl32/plat_bl_common.o
 .debug_str     0x0000000000000000      0x31c /home/lodge/STM32MP157/tf-a/tf-a-stm32mp/../build/trusted/bl32/plat_bl_common.o
 .comment       0x0000000000000000       0x5e /home/lodge/STM32MP157/tf-a/tf-a-stm32mp/../build/trusted/bl32/plat_bl_common.o
 .note.GNU-stack
                0x0000000000000000        0x0 /home/lodge/STM32MP157/tf-a/tf-a-stm32mp/../build/trusted/bl32/plat_bl_common.o
 .debug_frame   0x0000000000000000       0x8c /home/lodge/STM32MP157/tf-a/tf-a-stm32mp/../build/trusted/bl32/plat_bl_common.o
 .ARM.attributes
                0x0000000000000000       0x33 /home/lodge/STM32MP157/tf-a/tf-a-stm32mp/../build/trusted/bl32/plat_bl_common.o
 .text          0x0000000000000000        0x0 /home/lodge/STM32MP157/tf-a/tf-a-stm32mp/../build/trusted/bl32/plat_log_common.o
 .data          0x0000000000000000        0x0 /home/lodge/STM32MP157/tf-a/tf-a-stm32mp/../build/trusted/bl32/plat_log_common.o
 .bss           0x0000000000000000        0x0 /home/lodge/STM32MP157/tf-a/tf-a-stm32mp/../build/trusted/bl32/plat_log_common.o
 .text          0x0000000000000000        0x0 /home/lodge/STM32MP157/tf-a/tf-a-stm32mp/../build/trusted/bl32/plat_common.o
 .data          0x0000000000000000        0x0 /home/lodge/STM32MP157/tf-a/tf-a-stm32mp/../build/trusted/bl32/plat_common.o
 .bss           0x0000000000000000        0x0 /home/lodge/STM32MP157/tf-a/tf-a-stm32mp/../build/trusted/bl32/plat_common.o
 .text          0x0000000000000000        0x0 /home/lodge/STM32MP157/tf-a/tf-a-stm32mp/../build/trusted/bl32/popcountdi2.o
 .data          0x0000000000000000        0x0 /home/lodge/STM32MP157/tf-a/tf-a-stm32mp/../build/trusted/bl32/popcountdi2.o
 .bss           0x0000000000000000        0x0 /home/lodge/STM32MP157/tf-a/tf-a-stm32mp/../build/trusted/bl32/popcountdi2.o
 .text.__popcountdi2
                0x0000000000000000       0x52 /home/lodge/STM32MP157/tf-a/tf-a-stm32mp/../build/trusted/bl32/popcountdi2.o
 .debug_info    0x0000000000000000      0x114 /home/lodge/STM32MP157/tf-a/tf-a-stm32mp/../build/trusted/bl32/popcountdi2.o
 .debug_abbrev  0x0000000000000000       0x7d /home/lodge/STM32MP157/tf-a/tf-a-stm32mp/../build/trusted/bl32/popcountdi2.o
 .debug_loc     0x0000000000000000       0xc9 /home/lodge/STM32MP157/tf-a/tf-a-stm32mp/../build/trusted/bl32/popcountdi2.o
 .debug_aranges
                0x0000000000000000       0x20 /home/lodge/STM32MP157/tf-a/tf-a-stm32mp/../build/trusted/bl32/popcountdi2.o
 .debug_ranges  0x0000000000000000       0x10 /home/lodge/STM32MP157/tf-a/tf-a-stm32mp/../build/trusted/bl32/popcountdi2.o
 .debug_line    0x0000000000000000       0xc6 /home/lodge/STM32MP157/tf-a/tf-a-stm32mp/../build/trusted/bl32/popcountdi2.o
 .debug_str     0x0000000000000000      0x21d /home/lodge/STM32MP157/tf-a/tf-a-stm32mp/../build/trusted/bl32/popcountdi2.o
 .comment       0x0000000000000000       0x5e /home/lodge/STM32MP157/tf-a/tf-a-stm32mp/../build/trusted/bl32/popcountdi2.o
 .note.GNU-stack
                0x0000000000000000        0x0 /home/lodge/STM32MP157/tf-a/tf-a-stm32mp/../build/trusted/bl32/popcountdi2.o
 .debug_frame   0x0000000000000000       0x20 /home/lodge/STM32MP157/tf-a/tf-a-stm32mp/../build/trusted/bl32/popcountdi2.o
 .ARM.attributes
                0x0000000000000000       0x33 /home/lodge/STM32MP157/tf-a/tf-a-stm32mp/../build/trusted/bl32/popcountdi2.o
 .text          0x0000000000000000        0x0 /home/lodge/STM32MP157/tf-a/tf-a-stm32mp/../build/trusted/bl32/popcountsi2.o
 .data          0x0000000000000000        0x0 /home/lodge/STM32MP157/tf-a/tf-a-stm32mp/../build/trusted/bl32/popcountsi2.o
 .bss           0x0000000000000000        0x0 /home/lodge/STM32MP157/tf-a/tf-a-stm32mp/../build/trusted/bl32/popcountsi2.o
 .text.__popcountsi2
                0x0000000000000000       0x2a /home/lodge/STM32MP157/tf-a/tf-a-stm32mp/../build/trusted/bl32/popcountsi2.o
 .debug_info    0x0000000000000000       0xe9 /home/lodge/STM32MP157/tf-a/tf-a-stm32mp/../build/trusted/bl32/popcountsi2.o
 .debug_abbrev  0x0000000000000000       0x7d /home/lodge/STM32MP157/tf-a/tf-a-stm32mp/../build/trusted/bl32/popcountsi2.o
 .debug_loc     0x0000000000000000      0x12e /home/lodge/STM32MP157/tf-a/tf-a-stm32mp/../build/trusted/bl32/popcountsi2.o
 .debug_aranges
                0x0000000000000000       0x20 /home/lodge/STM32MP157/tf-a/tf-a-stm32mp/../build/trusted/bl32/popcountsi2.o
 .debug_ranges  0x0000000000000000       0x10 /home/lodge/STM32MP157/tf-a/tf-a-stm32mp/../build/trusted/bl32/popcountsi2.o
 .debug_line    0x0000000000000000       0xa4 /home/lodge/STM32MP157/tf-a/tf-a-stm32mp/../build/trusted/bl32/popcountsi2.o
 .debug_str     0x0000000000000000      0x20f /home/lodge/STM32MP157/tf-a/tf-a-stm32mp/../build/trusted/bl32/popcountsi2.o
 .comment       0x0000000000000000       0x5e /home/lodge/STM32MP157/tf-a/tf-a-stm32mp/../build/trusted/bl32/popcountsi2.o
 .note.GNU-stack
                0x0000000000000000        0x0 /home/lodge/STM32MP157/tf-a/tf-a-stm32mp/../build/trusted/bl32/popcountsi2.o
 .debug_frame   0x0000000000000000       0x20 /home/lodge/STM32MP157/tf-a/tf-a-stm32mp/../build/trusted/bl32/popcountsi2.o
 .ARM.attributes
                0x0000000000000000       0x33 /home/lodge/STM32MP157/tf-a/tf-a-stm32mp/../build/trusted/bl32/popcountsi2.o
 .text          0x0000000000000000        0x0 /home/lodge/STM32MP157/tf-a/tf-a-stm32mp/../build/trusted/bl32/ctzdi2.o
 .data          0x0000000000000000        0x0 /home/lodge/STM32MP157/tf-a/tf-a-stm32mp/../build/trusted/bl32/ctzdi2.o
 .bss           0x0000000000000000        0x0 /home/lodge/STM32MP157/tf-a/tf-a-stm32mp/../build/trusted/bl32/ctzdi2.o
 .text          0x0000000000000000        0x0 /home/lodge/STM32MP157/tf-a/tf-a-stm32mp/../build/trusted/bl32/divdi3.o
 .data          0x0000000000000000        0x0 /home/lodge/STM32MP157/tf-a/tf-a-stm32mp/../build/trusted/bl32/divdi3.o
 .bss           0x0000000000000000        0x0 /home/lodge/STM32MP157/tf-a/tf-a-stm32mp/../build/trusted/bl32/divdi3.o
 .text.__divdi3
                0x0000000000000000       0x3e /home/lodge/STM32MP157/tf-a/tf-a-stm32mp/../build/trusted/bl32/divdi3.o
 .debug_info    0x0000000000000000      0x144 /home/lodge/STM32MP157/tf-a/tf-a-stm32mp/../build/trusted/bl32/divdi3.o
 .debug_abbrev  0x0000000000000000       0xc1 /home/lodge/STM32MP157/tf-a/tf-a-stm32mp/../build/trusted/bl32/divdi3.o
 .debug_loc     0x0000000000000000       0x9e /home/lodge/STM32MP157/tf-a/tf-a-stm32mp/../build/trusted/bl32/divdi3.o
 .debug_aranges
                0x0000000000000000       0x20 /home/lodge/STM32MP157/tf-a/tf-a-stm32mp/../build/trusted/bl32/divdi3.o
 .debug_ranges  0x0000000000000000       0x10 /home/lodge/STM32MP157/tf-a/tf-a-stm32mp/../build/trusted/bl32/divdi3.o
 .debug_line    0x0000000000000000       0xa9 /home/lodge/STM32MP157/tf-a/tf-a-stm32mp/../build/trusted/bl32/divdi3.o
 .debug_str     0x0000000000000000      0x223 /home/lodge/STM32MP157/tf-a/tf-a-stm32mp/../build/trusted/bl32/divdi3.o
 .comment       0x0000000000000000       0x5e /home/lodge/STM32MP157/tf-a/tf-a-stm32mp/../build/trusted/bl32/divdi3.o
 .note.GNU-stack
                0x0000000000000000        0x0 /home/lodge/STM32MP157/tf-a/tf-a-stm32mp/../build/trusted/bl32/divdi3.o
 .debug_frame   0x0000000000000000       0x30 /home/lodge/STM32MP157/tf-a/tf-a-stm32mp/../build/trusted/bl32/divdi3.o
 .ARM.attributes
                0x0000000000000000       0x33 /home/lodge/STM32MP157/tf-a/tf-a-stm32mp/../build/trusted/bl32/divdi3.o
 .text          0x0000000000000000        0x0 /home/lodge/STM32MP157/tf-a/tf-a-stm32mp/../build/trusted/bl32/divmoddi4.o
 .data          0x0000000000000000        0x0 /home/lodge/STM32MP157/tf-a/tf-a-stm32mp/../build/trusted/bl32/divmoddi4.o
 .bss           0x0000000000000000        0x0 /home/lodge/STM32MP157/tf-a/tf-a-stm32mp/../build/trusted/bl32/divmoddi4.o
 .text.__divmoddi4
                0x0000000000000000       0x2e /home/lodge/STM32MP157/tf-a/tf-a-stm32mp/../build/trusted/bl32/divmoddi4.o
 .debug_info    0x0000000000000000      0x13a /home/lodge/STM32MP157/tf-a/tf-a-stm32mp/../build/trusted/bl32/divmoddi4.o
 .debug_abbrev  0x0000000000000000       0xc3 /home/lodge/STM32MP157/tf-a/tf-a-stm32mp/../build/trusted/bl32/divmoddi4.o
 .debug_loc     0x0000000000000000       0x72 /home/lodge/STM32MP157/tf-a/tf-a-stm32mp/../build/trusted/bl32/divmoddi4.o
 .debug_aranges
                0x0000000000000000       0x20 /home/lodge/STM32MP157/tf-a/tf-a-stm32mp/../build/trusted/bl32/divmoddi4.o
 .debug_ranges  0x0000000000000000       0x10 /home/lodge/STM32MP157/tf-a/tf-a-stm32mp/../build/trusted/bl32/divmoddi4.o
 .debug_line    0x0000000000000000       0x98 /home/lodge/STM32MP157/tf-a/tf-a-stm32mp/../build/trusted/bl32/divmoddi4.o
 .debug_str     0x0000000000000000      0x20d /home/lodge/STM32MP157/tf-a/tf-a-stm32mp/../build/trusted/bl32/divmoddi4.o
 .comment       0x0000000000000000       0x5e /home/lodge/STM32MP157/tf-a/tf-a-stm32mp/../build/trusted/bl32/divmoddi4.o
 .note.GNU-stack
                0x0000000000000000        0x0 /home/lodge/STM32MP157/tf-a/tf-a-stm32mp/../build/trusted/bl32/divmoddi4.o
 .debug_frame   0x0000000000000000       0x30 /home/lodge/STM32MP157/tf-a/tf-a-stm32mp/../build/trusted/bl32/divmoddi4.o
 .ARM.attributes
                0x0000000000000000       0x33 /home/lodge/STM32MP157/tf-a/tf-a-stm32mp/../build/trusted/bl32/divmoddi4.o
 .text          0x0000000000000000        0x0 /home/lodge/STM32MP157/tf-a/tf-a-stm32mp/../build/trusted/bl32/lshrdi3.o
 .data          0x0000000000000000        0x0 /home/lodge/STM32MP157/tf-a/tf-a-stm32mp/../build/trusted/bl32/lshrdi3.o
 .bss           0x0000000000000000        0x0 /home/lodge/STM32MP157/tf-a/tf-a-stm32mp/../build/trusted/bl32/lshrdi3.o
 .text.__lshrdi3
                0x0000000000000000       0x28 /home/lodge/STM32MP157/tf-a/tf-a-stm32mp/../build/trusted/bl32/lshrdi3.o
 .debug_info    0x0000000000000000      0x175 /home/lodge/STM32MP157/tf-a/tf-a-stm32mp/../build/trusted/bl32/lshrdi3.o
 .debug_abbrev  0x0000000000000000       0xf0 /home/lodge/STM32MP157/tf-a/tf-a-stm32mp/../build/trusted/bl32/lshrdi3.o
 .debug_loc     0x0000000000000000       0x50 /home/lodge/STM32MP157/tf-a/tf-a-stm32mp/../build/trusted/bl32/lshrdi3.o
 .debug_aranges
                0x0000000000000000       0x20 /home/lodge/STM32MP157/tf-a/tf-a-stm32mp/../build/trusted/bl32/lshrdi3.o
 .debug_ranges  0x0000000000000000       0x10 /home/lodge/STM32MP157/tf-a/tf-a-stm32mp/../build/trusted/bl32/lshrdi3.o
 .debug_line    0x0000000000000000       0xb8 /home/lodge/STM32MP157/tf-a/tf-a-stm32mp/../build/trusted/bl32/lshrdi3.o
 .debug_str     0x0000000000000000      0x23c /home/lodge/STM32MP157/tf-a/tf-a-stm32mp/../build/trusted/bl32/lshrdi3.o
 .comment       0x0000000000000000       0x5e /home/lodge/STM32MP157/tf-a/tf-a-stm32mp/../build/trusted/bl32/lshrdi3.o
 .note.GNU-stack
                0x0000000000000000        0x0 /home/lodge/STM32MP157/tf-a/tf-a-stm32mp/../build/trusted/bl32/lshrdi3.o
 .debug_frame   0x0000000000000000       0x28 /home/lodge/STM32MP157/tf-a/tf-a-stm32mp/../build/trusted/bl32/lshrdi3.o
 .ARM.attributes
                0x0000000000000000       0x33 /home/lodge/STM32MP157/tf-a/tf-a-stm32mp/../build/trusted/bl32/lshrdi3.o
 .text          0x0000000000000000        0x0 /home/lodge/STM32MP157/tf-a/tf-a-stm32mp/../build/trusted/bl32/udivmoddi4.o
 .data          0x0000000000000000        0x0 /home/lodge/STM32MP157/tf-a/tf-a-stm32mp/../build/trusted/bl32/udivmoddi4.o
 .bss           0x0000000000000000        0x0 /home/lodge/STM32MP157/tf-a/tf-a-stm32mp/../build/trusted/bl32/udivmoddi4.o
 .text          0x0000000000000000        0x0 /home/lodge/STM32MP157/tf-a/tf-a-stm32mp/../build/trusted/bl32/stm32mp_common.o
 .data          0x0000000000000000        0x0 /home/lodge/STM32MP157/tf-a/tf-a-stm32mp/../build/trusted/bl32/stm32mp_common.o
 .bss           0x0000000000000000        0x0 /home/lodge/STM32MP157/tf-a/tf-a-stm32mp/../build/trusted/bl32/stm32mp_common.o
 .text.plat_get_ns_image_entrypoint
                0x0000000000000000        0x8 /home/lodge/STM32MP157/tf-a/tf-a-stm32mp/../build/trusted/bl32/stm32mp_common.o
 .text.stm32mp_plat_reset
                0x0000000000000000        0xa /home/lodge/STM32MP157/tf-a/tf-a-stm32mp/../build/trusted/bl32/stm32mp_common.o
 .text.stm32mp_save_boot_ctx_address
                0x0000000000000000        0xc /home/lodge/STM32MP157/tf-a/tf-a-stm32mp/../build/trusted/bl32/stm32mp_common.o
 .text.stm32mp_get_boot_ctx_address
                0x0000000000000000        0xc /home/lodge/STM32MP157/tf-a/tf-a-stm32mp/../build/trusted/bl32/stm32mp_common.o
 .rodata.stm32mp_check_header.str1.1
                0x0000000000000000       0x41 /home/lodge/STM32MP157/tf-a/tf-a-stm32mp/../build/trusted/bl32/stm32mp_common.o
 .text.stm32mp_check_header
                0x0000000000000000       0xc0 /home/lodge/STM32MP157/tf-a/tf-a-stm32mp/../build/trusted/bl32/stm32mp_common.o
 .text.stm32mp_save_loaded_header
                0x0000000000000000       0x1c /home/lodge/STM32MP157/tf-a/tf-a-stm32mp/../build/trusted/bl32/stm32mp_common.o
 .text.stm32mp_delete_loaded_header
                0x0000000000000000       0x1c /home/lodge/STM32MP157/tf-a/tf-a-stm32mp/../build/trusted/bl32/stm32mp_common.o
 .text.stm32mp_get_loaded_header
                0x0000000000000000       0x1c /home/lodge/STM32MP157/tf-a/tf-a-stm32mp/../build/trusted/bl32/stm32mp_common.o
 .bss.boot_ctx_address
                0x0000000000000000        0x4 /home/lodge/STM32MP157/tf-a/tf-a-stm32mp/../build/trusted/bl32/stm32mp_common.o
 .bss.latest_stm32_header
                0x0000000000000000        0x4 /home/lodge/STM32MP157/tf-a/tf-a-stm32mp/../build/trusted/bl32/stm32mp_common.o
 .text          0x0000000000000000        0x0 /home/lodge/STM32MP157/tf-a/tf-a-stm32mp/../build/trusted/bl32/stm32mp1_private.o
 .data          0x0000000000000000        0x0 /home/lodge/STM32MP157/tf-a/tf-a-stm32mp/../build/trusted/bl32/stm32mp1_private.o
 .bss           0x0000000000000000        0x0 /home/lodge/STM32MP157/tf-a/tf-a-stm32mp/../build/trusted/bl32/stm32mp1_private.o
 .rodata.stm32mp_print_cpuinfo.str1.1
                0x0000000000000000       0x99 /home/lodge/STM32MP157/tf-a/tf-a-stm32mp/../build/trusted/bl32/stm32mp1_private.o
 .text.stm32mp_print_cpuinfo
                0x0000000000000000      0x15c /home/lodge/STM32MP157/tf-a/tf-a-stm32mp/../build/trusted/bl32/stm32mp1_private.o
 .rodata.stm32mp_print_boardinfo.str1.1
                0x0000000000000000       0x2e /home/lodge/STM32MP157/tf-a/tf-a-stm32mp/../build/trusted/bl32/stm32mp1_private.o
 .text.stm32mp_print_boardinfo
                0x0000000000000000       0x4c /home/lodge/STM32MP157/tf-a/tf-a-stm32mp/../build/trusted/bl32/stm32mp1_private.o
 .rodata.stm32mp_is_closed_device.str1.1
                0x0000000000000000        0x9 /home/lodge/STM32MP157/tf-a/tf-a-stm32mp/../build/trusted/bl32/stm32mp1_private.o
 .text.stm32mp_is_closed_device
                0x0000000000000000       0x24 /home/lodge/STM32MP157/tf-a/tf-a-stm32mp/../build/trusted/bl32/stm32mp1_private.o
 .text.stm32mp_is_auth_supported
                0x0000000000000000       0x40 /home/lodge/STM32MP157/tf-a/tf-a-stm32mp/../build/trusted/bl32/stm32mp1_private.o
 .rodata.plat_bind_regulator.str1.1
                0x0000000000000000       0x14 /home/lodge/STM32MP157/tf-a/tf-a-stm32mp/../build/trusted/bl32/stm32mp1_private.o
 .text.plat_bind_regulator
                0x0000000000000000       0x50 /home/lodge/STM32MP157/tf-a/tf-a-stm32mp/../build/trusted/bl32/stm32mp1_private.o
 .rodata.str1.1
                0x0000000000000000        0xc /home/lodge/STM32MP157/tf-a/tf-a-stm32mp/../build/trusted/bl32/stm32mp1_private.o
 .rodata.CSWTCH.46
                0x0000000000000000       0x10 /home/lodge/STM32MP157/tf-a/tf-a-stm32mp/../build/trusted/bl32/stm32mp1_private.o
 .text          0x0000000000000000        0x0 /home/lodge/STM32MP157/tf-a/tf-a-stm32mp/../build/trusted/bl32/xlat_tables_arch.o
 .data          0x0000000000000000        0x0 /home/lodge/STM32MP157/tf-a/tf-a-stm32mp/../build/trusted/bl32/xlat_tables_arch.o
 .bss           0x0000000000000000        0x0 /home/lodge/STM32MP157/tf-a/tf-a-stm32mp/../build/trusted/bl32/xlat_tables_arch.o
 .text.xlat_arch_is_granule_size_supported
                0x0000000000000000        0xa /home/lodge/STM32MP157/tf-a/tf-a-stm32mp/../build/trusted/bl32/xlat_tables_arch.o
 .text.xlat_arch_get_max_supported_granule_size
                0x0000000000000000        0x6 /home/lodge/STM32MP157/tf-a/tf-a-stm32mp/../build/trusted/bl32/xlat_tables_arch.o
 .text          0x0000000000000000        0x0 /home/lodge/STM32MP157/tf-a/tf-a-stm32mp/../build/trusted/bl32/xlat_tables_context.o
 .data          0x0000000000000000        0x0 /home/lodge/STM32MP157/tf-a/tf-a-stm32mp/../build/trusted/bl32/xlat_tables_context.o
 .bss           0x0000000000000000        0x0 /home/lodge/STM32MP157/tf-a/tf-a-stm32mp/../build/trusted/bl32/xlat_tables_context.o
 .text.mmap_add_region_alloc_va
                0x0000000000000000       0x30 /home/lodge/STM32MP157/tf-a/tf-a-stm32mp/../build/trusted/bl32/xlat_tables_context.o
 .text.mmap_add_alloc_va
                0x0000000000000000       0x2c /home/lodge/STM32MP157/tf-a/tf-a-stm32mp/../build/trusted/bl32/xlat_tables_context.o
 .text.mmap_add_dynamic_region_alloc_va
                0x0000000000000000       0x30 /home/lodge/STM32MP157/tf-a/tf-a-stm32mp/../build/trusted/bl32/xlat_tables_context.o
 .text.xlat_get_mem_attributes
                0x0000000000000000       0x10 /home/lodge/STM32MP157/tf-a/tf-a-stm32mp/../build/trusted/bl32/xlat_tables_context.o
 .text.xlat_change_mem_attributes
                0x0000000000000000       0x10 /home/lodge/STM32MP157/tf-a/tf-a-stm32mp/../build/trusted/bl32/xlat_tables_context.o
 .text.enable_mmu_hyp
                0x0000000000000000       0x34 /home/lodge/STM32MP157/tf-a/tf-a-stm32mp/../build/trusted/bl32/xlat_tables_context.o
 .text          0x0000000000000000        0x0 /home/lodge/STM32MP157/tf-a/tf-a-stm32mp/../build/trusted/bl32/xlat_tables_core.o
 .data          0x0000000000000000        0x0 /home/lodge/STM32MP157/tf-a/tf-a-stm32mp/../build/trusted/bl32/xlat_tables_core.o
 .bss           0x0000000000000000        0x0 /home/lodge/STM32MP157/tf-a/tf-a-stm32mp/../build/trusted/bl32/xlat_tables_core.o
 .text.mmap_alloc_va_align_ctx.isra.0
                0x0000000000000000       0x32 /home/lodge/STM32MP157/tf-a/tf-a-stm32mp/../build/trusted/bl32/xlat_tables_core.o
 .text.mmap_add_region_alloc_va_ctx
                0x0000000000000000       0x3c /home/lodge/STM32MP157/tf-a/tf-a-stm32mp/../build/trusted/bl32/xlat_tables_core.o
 .text.mmap_add_dynamic_region_alloc_va_ctx
                0x0000000000000000       0x2c /home/lodge/STM32MP157/tf-a/tf-a-stm32mp/../build/trusted/bl32/xlat_tables_core.o
 .text.xlat_setup_dynamic_ctx
                0x0000000000000000       0x62 /home/lodge/STM32MP157/tf-a/tf-a-stm32mp/../build/trusted/bl32/xlat_tables_core.o
 .text          0x0000000000000000        0x0 /home/lodge/STM32MP157/tf-a/tf-a-stm32mp/../build/trusted/bl32/xlat_tables_utils.o
 .data          0x0000000000000000        0x0 /home/lodge/STM32MP157/tf-a/tf-a-stm32mp/../build/trusted/bl32/xlat_tables_utils.o
 .bss           0x0000000000000000        0x0 /home/lodge/STM32MP157/tf-a/tf-a-stm32mp/../build/trusted/bl32/xlat_tables_utils.o
 .rodata.find_xlat_table_entry.str1.1
                0x0000000000000000       0x53 /home/lodge/STM32MP157/tf-a/tf-a-stm32mp/../build/trusted/bl32/xlat_tables_utils.o
 .text.find_xlat_table_entry
                0x0000000000000000       0x8c /home/lodge/STM32MP157/tf-a/tf-a-stm32mp/../build/trusted/bl32/xlat_tables_utils.o
 .rodata.xlat_get_mem_attributes_internal.str1.1
                0x0000000000000000       0x1f /home/lodge/STM32MP157/tf-a/tf-a-stm32mp/../build/trusted/bl32/xlat_tables_utils.o
 .text.xlat_get_mem_attributes_internal
                0x0000000000000000      0x118 /home/lodge/STM32MP157/tf-a/tf-a-stm32mp/../build/trusted/bl32/xlat_tables_utils.o
 .text.xlat_get_mem_attributes_ctx
                0x0000000000000000       0x12 /home/lodge/STM32MP157/tf-a/tf-a-stm32mp/../build/trusted/bl32/xlat_tables_utils.o
 .rodata.xlat_change_mem_attributes_ctx.str1.1
                0x0000000000000000      0x152 /home/lodge/STM32MP157/tf-a/tf-a-stm32mp/../build/trusted/bl32/xlat_tables_utils.o
 .text.xlat_change_mem_attributes_ctx
                0x0000000000000000      0x1a0 /home/lodge/STM32MP157/tf-a/tf-a-stm32mp/../build/trusted/bl32/xlat_tables_utils.o
 .rodata.__func__.0
                0x0000000000000000       0x1f /home/lodge/STM32MP157/tf-a/tf-a-stm32mp/../build/trusted/bl32/xlat_tables_utils.o
 .text          0x0000000000000000        0x0 /home/lodge/STM32MP157/tf-a/tf-a-stm32mp/../build/trusted/bl32/tzc400.o
 .data          0x0000000000000000        0x0 /home/lodge/STM32MP157/tf-a/tf-a-stm32mp/../build/trusted/bl32/tzc400.o
 .bss           0x0000000000000000        0x0 /home/lodge/STM32MP157/tf-a/tf-a-stm32mp/../build/trusted/bl32/tzc400.o
 .text.tzc400_configure_region0
                0x0000000000000000       0x2c /home/lodge/STM32MP157/tf-a/tf-a-stm32mp/../build/trusted/bl32/tzc400.o
 .text.tzc400_clear_all_interrupts
                0x0000000000000000       0x30 /home/lodge/STM32MP157/tf-a/tf-a-stm32mp/../build/trusted/bl32/tzc400.o
 .text          0x0000000000000000        0x0 /home/lodge/STM32MP157/tf-a/tf-a-stm32mp/../build/trusted/bl32/delay_timer.o
 .data          0x0000000000000000        0x0 /home/lodge/STM32MP157/tf-a/tf-a-stm32mp/../build/trusted/bl32/delay_timer.o
 .bss           0x0000000000000000        0x0 /home/lodge/STM32MP157/tf-a/tf-a-stm32mp/../build/trusted/bl32/delay_timer.o
 .text          0x0000000000000000        0x0 /home/lodge/STM32MP157/tf-a/tf-a-stm32mp/../build/trusted/bl32/generic_delay_timer.o
 .data          0x0000000000000000        0x0 /home/lodge/STM32MP157/tf-a/tf-a-stm32mp/../build/trusted/bl32/generic_delay_timer.o
 .bss           0x0000000000000000        0x0 /home/lodge/STM32MP157/tf-a/tf-a-stm32mp/../build/trusted/bl32/generic_delay_timer.o
 .text          0x0000000000000000        0x0 /home/lodge/STM32MP157/tf-a/tf-a-stm32mp/../build/trusted/bl32/bsec2.o
 .data          0x0000000000000000        0x0 /home/lodge/STM32MP157/tf-a/tf-a-stm32mp/../build/trusted/bl32/bsec2.o
 .bss           0x0000000000000000        0x0 /home/lodge/STM32MP157/tf-a/tf-a-stm32mp/../build/trusted/bl32/bsec2.o
 .text.bsec_get_base
                0x0000000000000000        0xc /home/lodge/STM32MP157/tf-a/tf-a-stm32mp/../build/trusted/bl32/bsec2.o
 .text.bsec_get_config
                0x0000000000000000       0x44 /home/lodge/STM32MP157/tf-a/tf-a-stm32mp/../build/trusted/bl32/bsec2.o
 .text.bsec_write_debug_conf
                0x0000000000000000       0x24 /home/lodge/STM32MP157/tf-a/tf-a-stm32mp/../build/trusted/bl32/bsec2.o
 .text.bsec_set_config
                0x0000000000000000       0x6c /home/lodge/STM32MP157/tf-a/tf-a-stm32mp/../build/trusted/bl32/bsec2.o
 .text.bsec_get_hw_conf
                0x0000000000000000       0x10 /home/lodge/STM32MP157/tf-a/tf-a-stm32mp/../build/trusted/bl32/bsec2.o
 .text.bsec_get_magic_id
                0x0000000000000000       0x10 /home/lodge/STM32MP157/tf-a/tf-a-stm32mp/../build/trusted/bl32/bsec2.o
 .text.bsec_set_sr_lock
                0x0000000000000000       0x38 /home/lodge/STM32MP157/tf-a/tf-a-stm32mp/../build/trusted/bl32/bsec2.o
 .text.bsec_set_sw_lock
                0x0000000000000000       0x38 /home/lodge/STM32MP157/tf-a/tf-a-stm32mp/../build/trusted/bl32/bsec2.o
 .text.bsec_set_sp_lock
                0x0000000000000000       0x38 /home/lodge/STM32MP157/tf-a/tf-a-stm32mp/../build/trusted/bl32/bsec2.o
 .text.bsec_otp_lock
                0x0000000000000000       0x2c /home/lodge/STM32MP157/tf-a/tf-a-stm32mp/../build/trusted/bl32/bsec2.o
 .rodata.bsec_shadow_read_otp.str1.1
                0x0000000000000000       0x37 /home/lodge/STM32MP157/tf-a/tf-a-stm32mp/../build/trusted/bl32/bsec2.o
 .text.bsec_shadow_read_otp
                0x0000000000000000       0x3c /home/lodge/STM32MP157/tf-a/tf-a-stm32mp/../build/trusted/bl32/bsec2.o
 .text          0x0000000000000000        0x0 /home/lodge/STM32MP157/tf-a/tf-a-stm32mp/../build/trusted/bl32/stm32mp_clkfunc.o
 .data          0x0000000000000000        0x0 /home/lodge/STM32MP157/tf-a/tf-a-stm32mp/../build/trusted/bl32/stm32mp_clkfunc.o
 .bss           0x0000000000000000        0x0 /home/lodge/STM32MP157/tf-a/tf-a-stm32mp/../build/trusted/bl32/stm32mp_clkfunc.o
 .text.fdt_osc_read_bool
                0x0000000000000000       0x74 /home/lodge/STM32MP157/tf-a/tf-a-stm32mp/../build/trusted/bl32/stm32mp_clkfunc.o
 .text.fdt_osc_read_uint32_default
                0x0000000000000000       0x74 /home/lodge/STM32MP157/tf-a/tf-a-stm32mp/../build/trusted/bl32/stm32mp_clkfunc.o
 .text.fdt_rcc_read_uint32_array
                0x0000000000000000       0x24 /home/lodge/STM32MP157/tf-a/tf-a-stm32mp/../build/trusted/bl32/stm32mp_clkfunc.o
 .text.fdt_rcc_subnode_offset
                0x0000000000000000       0x30 /home/lodge/STM32MP157/tf-a/tf-a-stm32mp/../build/trusted/bl32/stm32mp_clkfunc.o
 .text.fdt_get_rcc_secure_status
                0x0000000000000000       0x18 /home/lodge/STM32MP157/tf-a/tf-a-stm32mp/../build/trusted/bl32/stm32mp_clkfunc.o
 .rodata.fdt_get_uart_clock_freq.str1.1
                0x0000000000000000       0x10 /home/lodge/STM32MP157/tf-a/tf-a-stm32mp/../build/trusted/bl32/stm32mp_clkfunc.o
 .text.fdt_get_uart_clock_freq
                0x0000000000000000       0x30 /home/lodge/STM32MP157/tf-a/tf-a-stm32mp/../build/trusted/bl32/stm32mp_clkfunc.o
 .rodata.fdt_is_pll1_predefined.str1.1
                0x0000000000000000        0x9 /home/lodge/STM32MP157/tf-a/tf-a-stm32mp/../build/trusted/bl32/stm32mp_clkfunc.o
 .text.fdt_is_pll1_predefined
                0x0000000000000000       0x14 /home/lodge/STM32MP157/tf-a/tf-a-stm32mp/../build/trusted/bl32/stm32mp_clkfunc.o
 .text.stm32mp_stgen_config
                0x0000000000000000       0x48 /home/lodge/STM32MP157/tf-a/tf-a-stm32mp/../build/trusted/bl32/stm32mp_clkfunc.o
 .text          0x0000000000000000        0x0 /home/lodge/STM32MP157/tf-a/tf-a-stm32mp/../build/trusted/bl32/stm32mp1_clk.o
 .data          0x0000000000000000        0x0 /home/lodge/STM32MP157/tf-a/tf-a-stm32mp/../build/trusted/bl32/stm32mp1_clk.o
 .bss           0x0000000000000000        0x0 /home/lodge/STM32MP157/tf-a/tf-a-stm32mp/../build/trusted/bl32/stm32mp1_clk.o
 .text.stm32mp1_mco_csg
                0x0000000000000000       0x3a /home/lodge/STM32MP157/tf-a/tf-a-stm32mp/../build/trusted/bl32/stm32mp1_clk.o
 .rodata.stm32mp1_check_pll_conf.str1.1
                0x0000000000000000        0x5 /home/lodge/STM32MP157/tf-a/tf-a-stm32mp/../build/trusted/bl32/stm32mp1_clk.o
 .text.stm32mp1_check_pll_conf
                0x0000000000000000      0x114 /home/lodge/STM32MP157/tf-a/tf-a-stm32mp/../build/trusted/bl32/stm32mp1_clk.o
 .rodata.stm32mp1_osc_wait.isra.0.str1.1
                0x0000000000000000       0x2c /home/lodge/STM32MP157/tf-a/tf-a-stm32mp/../build/trusted/bl32/stm32mp1_clk.o
 .text.stm32mp1_osc_wait.isra.0
                0x0000000000000000       0x7c /home/lodge/STM32MP157/tf-a/tf-a-stm32mp/../build/trusted/bl32/stm32mp1_clk.o
 .rodata.stm32mp1_clk_get_maxfreq_opp.str1.1
                0x0000000000000000       0x1e /home/lodge/STM32MP157/tf-a/tf-a-stm32mp/../build/trusted/bl32/stm32mp1_clk.o
 .text.stm32mp1_clk_get_maxfreq_opp
                0x0000000000000000       0x54 /home/lodge/STM32MP157/tf-a/tf-a-stm32mp/../build/trusted/bl32/stm32mp1_clk.o
 .rodata.stm32mp1_clk_init.str1.1
                0x0000000000000000       0x8f /home/lodge/STM32MP157/tf-a/tf-a-stm32mp/../build/trusted/bl32/stm32mp1_clk.o
 .text.stm32mp1_clk_init
                0x0000000000000000      0x6e0 /home/lodge/STM32MP157/tf-a/tf-a-stm32mp/../build/trusted/bl32/stm32mp1_clk.o
 .text.stm32mp1_clk_rcc2id
                0x0000000000000000       0x40 /home/lodge/STM32MP157/tf-a/tf-a-stm32mp/../build/trusted/bl32/stm32mp1_clk.o
 .text          0x0000000000000000        0x0 /home/lodge/STM32MP157/tf-a/tf-a-stm32mp/../build/trusted/bl32/stm32mp1_ddr_helpers.o
 .data          0x0000000000000000        0x0 /home/lodge/STM32MP157/tf-a/tf-a-stm32mp/../build/trusted/bl32/stm32mp1_ddr_helpers.o
 .bss           0x0000000000000000        0x0 /home/lodge/STM32MP157/tf-a/tf-a-stm32mp/../build/trusted/bl32/stm32mp1_ddr_helpers.o
 .text.ddr_is_nonsecured_area
                0x0000000000000000       0x40 /home/lodge/STM32MP157/tf-a/tf-a-stm32mp/../build/trusted/bl32/stm32mp1_ddr_helpers.o
 .text          0x0000000000000000        0x0 /home/lodge/STM32MP157/tf-a/tf-a-stm32mp/../build/trusted/bl32/stm32_gpio.o
 .data          0x0000000000000000        0x0 /home/lodge/STM32MP157/tf-a/tf-a-stm32mp/../build/trusted/bl32/stm32_gpio.o
 .bss           0x0000000000000000        0x0 /home/lodge/STM32MP157/tf-a/tf-a-stm32mp/../build/trusted/bl32/stm32_gpio.o
 .text          0x0000000000000000        0x0 /home/lodge/STM32MP157/tf-a/tf-a-stm32mp/../build/trusted/bl32/stm32_i2c.o
 .data          0x0000000000000000        0x0 /home/lodge/STM32MP157/tf-a/tf-a-stm32mp/../build/trusted/bl32/stm32_i2c.o
 .bss           0x0000000000000000        0x0 /home/lodge/STM32MP157/tf-a/tf-a-stm32mp/../build/trusted/bl32/stm32_i2c.o
 .text.stm32_i2c_master_transmit
                0x0000000000000000       0x18 /home/lodge/STM32MP157/tf-a/tf-a-stm32mp/../build/trusted/bl32/stm32_i2c.o
 .text.stm32_i2c_master_receive
                0x0000000000000000       0x14 /home/lodge/STM32MP157/tf-a/tf-a-stm32mp/../build/trusted/bl32/stm32_i2c.o
 .text          0x0000000000000000        0x0 /home/lodge/STM32MP157/tf-a/tf-a-stm32mp/../build/trusted/bl32/stm32_iwdg.o
 .data          0x0000000000000000        0x0 /home/lodge/STM32MP157/tf-a/tf-a-stm32mp/../build/trusted/bl32/stm32_iwdg.o
 .bss           0x0000000000000000        0x0 /home/lodge/STM32MP157/tf-a/tf-a-stm32mp/../build/trusted/bl32/stm32_iwdg.o
 .text          0x0000000000000000        0x0 /home/lodge/STM32MP157/tf-a/tf-a-stm32mp/../build/trusted/bl32/stm32mp_pmic.o
 .data          0x0000000000000000        0x0 /home/lodge/STM32MP157/tf-a/tf-a-stm32mp/../build/trusted/bl32/stm32mp_pmic.o
 .bss           0x0000000000000000        0x0 /home/lodge/STM32MP157/tf-a/tf-a-stm32mp/../build/trusted/bl32/stm32mp_pmic.o
 .text.pmic_regulator_enable
                0x0000000000000000       0x2e /home/lodge/STM32MP157/tf-a/tf-a-stm32mp/../build/trusted/bl32/stm32mp_pmic.o
 .text.pmic_regulator_disable
                0x0000000000000000       0x2e /home/lodge/STM32MP157/tf-a/tf-a-stm32mp/../build/trusted/bl32/stm32mp_pmic.o
 .text.pmic_set_regulator_min_voltage
                0x0000000000000000       0x2e /home/lodge/STM32MP157/tf-a/tf-a-stm32mp/../build/trusted/bl32/stm32mp_pmic.o
 .rodata.is_pmic_regulator.str1.1
                0x0000000000000000       0x16 /home/lodge/STM32MP157/tf-a/tf-a-stm32mp/../build/trusted/bl32/stm32mp_pmic.o
 .text.is_pmic_regulator
                0x0000000000000000       0x38 /home/lodge/STM32MP157/tf-a/tf-a-stm32mp/../build/trusted/bl32/stm32mp_pmic.o
 .text.bind_pmic_regulator
                0x0000000000000000        0xc /home/lodge/STM32MP157/tf-a/tf-a-stm32mp/../build/trusted/bl32/stm32mp_pmic.o
 .text.configure_pmic
                0x0000000000000000       0x14 /home/lodge/STM32MP157/tf-a/tf-a-stm32mp/../build/trusted/bl32/stm32mp_pmic.o
 .rodata.print_pmic_info_and_debug.str1.1
                0x0000000000000000       0x31 /home/lodge/STM32MP157/tf-a/tf-a-stm32mp/../build/trusted/bl32/stm32mp_pmic.o
 .text.print_pmic_info_and_debug
                0x0000000000000000       0x34 /home/lodge/STM32MP157/tf-a/tf-a-stm32mp/../build/trusted/bl32/stm32mp_pmic.o
 .rodata.pmic_ddr_power_init.str1.1
                0x0000000000000000       0x14 /home/lodge/STM32MP157/tf-a/tf-a-stm32mp/../build/trusted/bl32/stm32mp_pmic.o
 .text.pmic_ddr_power_init
                0x0000000000000000      0x150 /home/lodge/STM32MP157/tf-a/tf-a-stm32mp/../build/trusted/bl32/stm32mp_pmic.o
 .rodata.pmic_regu_ops
                0x0000000000000000        0x8 /home/lodge/STM32MP157/tf-a/tf-a-stm32mp/../build/trusted/bl32/stm32mp_pmic.o
 .text          0x0000000000000000        0x0 /home/lodge/STM32MP157/tf-a/tf-a-stm32mp/../build/trusted/bl32/stpmic1.o
 .data          0x0000000000000000        0x0 /home/lodge/STM32MP157/tf-a/tf-a-stm32mp/../build/trusted/bl32/stpmic1.o
 .bss           0x0000000000000000        0x0 /home/lodge/STM32MP157/tf-a/tf-a-stm32mp/../build/trusted/bl32/stpmic1.o
 .text.stpmic1_regulator_disable
                0x0000000000000000       0x14 /home/lodge/STM32MP157/tf-a/tf-a-stm32mp/../build/trusted/bl32/stpmic1.o
 .text.stpmic1_dump_regulators
                0x0000000000000000        0x2 /home/lodge/STM32MP157/tf-a/tf-a-stm32mp/../build/trusted/bl32/stpmic1.o
 .text.stpmic1_get_version
                0x0000000000000000       0x1e /home/lodge/STM32MP157/tf-a/tf-a-stm32mp/../build/trusted/bl32/stpmic1.o
 .text          0x0000000000000000        0x0 /home/lodge/STM32MP157/tf-a/tf-a-stm32mp/../build/trusted/bl32/stm32mp_dummy_regulator.o
 .data          0x0000000000000000        0x0 /home/lodge/STM32MP157/tf-a/tf-a-stm32mp/../build/trusted/bl32/stm32mp_dummy_regulator.o
 .bss           0x0000000000000000        0x0 /home/lodge/STM32MP157/tf-a/tf-a-stm32mp/../build/trusted/bl32/stm32mp_dummy_regulator.o
 .text.dummy_regulator_enable
                0x0000000000000000        0x4 /home/lodge/STM32MP157/tf-a/tf-a-stm32mp/../build/trusted/bl32/stm32mp_dummy_regulator.o
 .text.dummy_regulator_disable
                0x0000000000000000        0x4 /home/lodge/STM32MP157/tf-a/tf-a-stm32mp/../build/trusted/bl32/stm32mp_dummy_regulator.o
 .text.bind_dummy_regulator
                0x0000000000000000        0xc /home/lodge/STM32MP157/tf-a/tf-a-stm32mp/../build/trusted/bl32/stm32mp_dummy_regulator.o
 .rodata.dummy_regu_ops
                0x0000000000000000        0x8 /home/lodge/STM32MP157/tf-a/tf-a-stm32mp/../build/trusted/bl32/stm32mp_dummy_regulator.o
 .debug_info    0x0000000000000000      0x145 /home/lodge/STM32MP157/tf-a/tf-a-stm32mp/../build/trusted/bl32/stm32mp_dummy_regulator.o
 .debug_abbrev  0x0000000000000000      0x110 /home/lodge/STM32MP157/tf-a/tf-a-stm32mp/../build/trusted/bl32/stm32mp_dummy_regulator.o
 .debug_loc     0x0000000000000000       0x25 /home/lodge/STM32MP157/tf-a/tf-a-stm32mp/../build/trusted/bl32/stm32mp_dummy_regulator.o
 .debug_aranges
                0x0000000000000000       0x28 /home/lodge/STM32MP157/tf-a/tf-a-stm32mp/../build/trusted/bl32/stm32mp_dummy_regulator.o
 .debug_ranges  0x0000000000000000       0x18 /home/lodge/STM32MP157/tf-a/tf-a-stm32mp/../build/trusted/bl32/stm32mp_dummy_regulator.o
 .debug_line    0x0000000000000000       0xad /home/lodge/STM32MP157/tf-a/tf-a-stm32mp/../build/trusted/bl32/stm32mp_dummy_regulator.o
 .debug_str     0x0000000000000000      0x1cc /home/lodge/STM32MP157/tf-a/tf-a-stm32mp/../build/trusted/bl32/stm32mp_dummy_regulator.o
 .comment       0x0000000000000000       0x5e /home/lodge/STM32MP157/tf-a/tf-a-stm32mp/../build/trusted/bl32/stm32mp_dummy_regulator.o
 .note.GNU-stack
                0x0000000000000000        0x0 /home/lodge/STM32MP157/tf-a/tf-a-stm32mp/../build/trusted/bl32/stm32mp_dummy_regulator.o
 .debug_frame   0x0000000000000000       0x40 /home/lodge/STM32MP157/tf-a/tf-a-stm32mp/../build/trusted/bl32/stm32mp_dummy_regulator.o
 .ARM.attributes
                0x0000000000000000       0x33 /home/lodge/STM32MP157/tf-a/tf-a-stm32mp/../build/trusted/bl32/stm32mp_dummy_regulator.o
 .text          0x0000000000000000        0x0 /home/lodge/STM32MP157/tf-a/tf-a-stm32mp/../build/trusted/bl32/stm32mp_regulator.o
 .data          0x0000000000000000        0x0 /home/lodge/STM32MP157/tf-a/tf-a-stm32mp/../build/trusted/bl32/stm32mp_regulator.o
 .bss           0x0000000000000000        0x0 /home/lodge/STM32MP157/tf-a/tf-a-stm32mp/../build/trusted/bl32/stm32mp_regulator.o
 .text.plat_bind_regulator
                0x0000000000000000        0x6 /home/lodge/STM32MP157/tf-a/tf-a-stm32mp/../build/trusted/bl32/stm32mp_regulator.o
 .rodata.stm32mp_regulator_enable.str1.1
                0x0000000000000000       0x29 /home/lodge/STM32MP157/tf-a/tf-a-stm32mp/../build/trusted/bl32/stm32mp_regulator.o
 .text.stm32mp_regulator_enable
                0x0000000000000000       0x1c /home/lodge/STM32MP157/tf-a/tf-a-stm32mp/../build/trusted/bl32/stm32mp_regulator.o
 .text.stm32mp_regulator_disable
                0x0000000000000000       0x24 /home/lodge/STM32MP157/tf-a/tf-a-stm32mp/../build/trusted/bl32/stm32mp_regulator.o
 .text.stm32mp_regulator_register
                0x0000000000000000        0x4 /home/lodge/STM32MP157/tf-a/tf-a-stm32mp/../build/trusted/bl32/stm32mp_regulator.o
 .debug_info    0x0000000000000000      0x297 /home/lodge/STM32MP157/tf-a/tf-a-stm32mp/../build/trusted/bl32/stm32mp_regulator.o
 .debug_abbrev  0x0000000000000000      0x15e /home/lodge/STM32MP157/tf-a/tf-a-stm32mp/../build/trusted/bl32/stm32mp_regulator.o
 .debug_loc     0x0000000000000000       0xeb /home/lodge/STM32MP157/tf-a/tf-a-stm32mp/../build/trusted/bl32/stm32mp_regulator.o
 .debug_aranges
                0x0000000000000000       0x38 /home/lodge/STM32MP157/tf-a/tf-a-stm32mp/../build/trusted/bl32/stm32mp_regulator.o
 .debug_ranges  0x0000000000000000       0x28 /home/lodge/STM32MP157/tf-a/tf-a-stm32mp/../build/trusted/bl32/stm32mp_regulator.o
 .debug_line    0x0000000000000000      0x190 /home/lodge/STM32MP157/tf-a/tf-a-stm32mp/../build/trusted/bl32/stm32mp_regulator.o
 .debug_str     0x0000000000000000      0x2a8 /home/lodge/STM32MP157/tf-a/tf-a-stm32mp/../build/trusted/bl32/stm32mp_regulator.o
 .comment       0x0000000000000000       0x5e /home/lodge/STM32MP157/tf-a/tf-a-stm32mp/../build/trusted/bl32/stm32mp_regulator.o
 .note.GNU-stack
                0x0000000000000000        0x0 /home/lodge/STM32MP157/tf-a/tf-a-stm32mp/../build/trusted/bl32/stm32mp_regulator.o
 .debug_frame   0x0000000000000000       0x6c /home/lodge/STM32MP157/tf-a/tf-a-stm32mp/../build/trusted/bl32/stm32mp_regulator.o
 .ARM.attributes
                0x0000000000000000       0x33 /home/lodge/STM32MP157/tf-a/tf-a-stm32mp/../build/trusted/bl32/stm32mp_regulator.o
 .text          0x0000000000000000        0x0 /home/lodge/STM32MP157/tf-a/tf-a-stm32mp/../build/trusted/bl32/stm32mp1_reset.o
 .data          0x0000000000000000        0x0 /home/lodge/STM32MP157/tf-a/tf-a-stm32mp/../build/trusted/bl32/stm32mp1_reset.o
 .bss           0x0000000000000000        0x0 /home/lodge/STM32MP157/tf-a/tf-a-stm32mp/../build/trusted/bl32/stm32mp1_reset.o
 .text          0x0000000000000000        0x0 /home/lodge/STM32MP157/tf-a/tf-a-stm32mp/../build/trusted/bl32/stm32mp_dt.o
 .data          0x0000000000000000        0x0 /home/lodge/STM32MP157/tf-a/tf-a-stm32mp/../build/trusted/bl32/stm32mp_dt.o
 .bss           0x0000000000000000        0x0 /home/lodge/STM32MP157/tf-a/tf-a-stm32mp/../build/trusted/bl32/stm32mp_dt.o
 .text.fdt_check_node
                0x0000000000000000       0x20 /home/lodge/STM32MP157/tf-a/tf-a-stm32mp/../build/trusted/bl32/stm32mp_dt.o
 .text.fdt_get_reg_props_by_name
                0x0000000000000000       0x98 /home/lodge/STM32MP157/tf-a/tf-a-stm32mp/../build/trusted/bl32/stm32mp_dt.o
 .text.dt_set_stdout_pinctrl
                0x0000000000000000       0x18 /home/lodge/STM32MP157/tf-a/tf-a-stm32mp/../build/trusted/bl32/stm32mp_dt.o
 .text.dt_match_instance_by_compatible
                0x0000000000000000       0x6c /home/lodge/STM32MP157/tf-a/tf-a-stm32mp/../build/trusted/bl32/stm32mp_dt.o
 .text.dt_get_max_opp_freqvolt
                0x0000000000000000       0x88 /home/lodge/STM32MP157/tf-a/tf-a-stm32mp/../build/trusted/bl32/stm32mp_dt.o
 .rodata.dt_get_pwr_vdd_voltage.str1.1
                0x0000000000000000       0x37 /home/lodge/STM32MP157/tf-a/tf-a-stm32mp/../build/trusted/bl32/stm32mp_dt.o
 .text.dt_get_pwr_vdd_voltage
                0x0000000000000000       0x54 /home/lodge/STM32MP157/tf-a/tf-a-stm32mp/../build/trusted/bl32/stm32mp_dt.o
 .rodata.dt_get_board_model.str1.1
                0x0000000000000000        0x8 /home/lodge/STM32MP157/tf-a/tf-a-stm32mp/../build/trusted/bl32/stm32mp_dt.o
 .text.dt_get_board_model
                0x0000000000000000       0x2c /home/lodge/STM32MP157/tf-a/tf-a-stm32mp/../build/trusted/bl32/stm32mp_dt.o
 .text          0x0000000000000000        0x0 /home/lodge/STM32MP157/tf-a/tf-a-stm32mp/../build/trusted/bl32/stm32mp_shres_helpers.o
 .data          0x0000000000000000        0x0 /home/lodge/STM32MP157/tf-a/tf-a-stm32mp/../build/trusted/bl32/stm32mp_shres_helpers.o
 .bss           0x0000000000000000        0x0 /home/lodge/STM32MP157/tf-a/tf-a-stm32mp/../build/trusted/bl32/stm32mp_shres_helpers.o
 .text          0x0000000000000000        0x0 /home/lodge/STM32MP157/tf-a/tf-a-stm32mp/../build/trusted/bl32/stm32mp1_context.o
 .data          0x0000000000000000        0x0 /home/lodge/STM32MP157/tf-a/tf-a-stm32mp/../build/trusted/bl32/stm32mp1_context.o
 .bss           0x0000000000000000        0x0 /home/lodge/STM32MP157/tf-a/tf-a-stm32mp/../build/trusted/bl32/stm32mp1_context.o
 .text.stm32_get_zdata_from_context
                0x0000000000000000       0x1e /home/lodge/STM32MP157/tf-a/tf-a-stm32mp/../build/trusted/bl32/stm32mp1_context.o
 .text.stm32_get_pll1_settings_from_context
                0x0000000000000000       0x20 /home/lodge/STM32MP157/tf-a/tf-a-stm32mp/../build/trusted/bl32/stm32mp1_context.o
 .text.stm32_save_boot_interface
                0x0000000000000000       0x34 /home/lodge/STM32MP157/tf-a/tf-a-stm32mp/../build/trusted/bl32/stm32mp1_context.o
 .text.stm32_get_boot_interface
                0x0000000000000000       0x2c /home/lodge/STM32MP157/tf-a/tf-a-stm32mp/../build/trusted/bl32/stm32mp1_context.o
 .text.stm32_restore_ddr_training_area
                0x0000000000000000       0x28 /home/lodge/STM32MP157/tf-a/tf-a-stm32mp/../build/trusted/bl32/stm32mp1_context.o
 .text          0x0000000000000000        0x0 /home/lodge/STM32MP157/tf-a/tf-a-stm32mp/../build/trusted/bl32/stm32mp1_dbgmcu.o
 .data          0x0000000000000000        0x0 /home/lodge/STM32MP157/tf-a/tf-a-stm32mp/../build/trusted/bl32/stm32mp1_dbgmcu.o
 .bss           0x0000000000000000        0x0 /home/lodge/STM32MP157/tf-a/tf-a-stm32mp/../build/trusted/bl32/stm32mp1_dbgmcu.o
 .text.stm32mp1_dbgmcu_get_chip_version
                0x0000000000000000       0x2c /home/lodge/STM32MP157/tf-a/tf-a-stm32mp/../build/trusted/bl32/stm32mp1_dbgmcu.o
 .text.stm32mp1_dbgmcu_freeze_iwdg2
                0x0000000000000000       0x2c /home/lodge/STM32MP157/tf-a/tf-a-stm32mp/../build/trusted/bl32/stm32mp1_dbgmcu.o
 .text          0x0000000000000000        0x0 /home/lodge/STM32MP157/tf-a/tf-a-stm32mp/../build/trusted/bl32/stm32mp1_security.o
 .data          0x0000000000000000        0x0 /home/lodge/STM32MP157/tf-a/tf-a-stm32mp/../build/trusted/bl32/stm32mp1_security.o
 .bss           0x0000000000000000        0x0 /home/lodge/STM32MP157/tf-a/tf-a-stm32mp/../build/trusted/bl32/stm32mp1_security.o
 .text.stm32mp1_arch_security_setup
                0x0000000000000000       0x50 /home/lodge/STM32MP157/tf-a/tf-a-stm32mp/../build/trusted/bl32/stm32mp1_security.o
 .text          0x0000000000000000        0x0 /home/lodge/STM32MP157/tf-a/tf-a-stm32mp/../build/trusted/bl32/stm32mp1_syscfg.o
 .data          0x0000000000000000        0x0 /home/lodge/STM32MP157/tf-a/tf-a-stm32mp/../build/trusted/bl32/stm32mp1_syscfg.o
 .bss           0x0000000000000000        0x0 /home/lodge/STM32MP157/tf-a/tf-a-stm32mp/../build/trusted/bl32/stm32mp1_syscfg.o
 .rodata.stm32mp1_syscfg_init.str1.1
                0x0000000000000000       0x96 /home/lodge/STM32MP157/tf-a/tf-a-stm32mp/../build/trusted/bl32/stm32mp1_syscfg.o
 .text.stm32mp1_syscfg_init
                0x0000000000000000       0x94 /home/lodge/STM32MP157/tf-a/tf-a-stm32mp/../build/trusted/bl32/stm32mp1_syscfg.o
 .text          0x0000000000000000        0x0 /home/lodge/STM32MP157/tf-a/tf-a-stm32mp/../build/trusted/bl32/entrypoint.o
 .data          0x0000000000000000        0x0 /home/lodge/STM32MP157/tf-a/tf-a-stm32mp/../build/trusted/bl32/entrypoint.o
 .bss           0x0000000000000000        0x0 /home/lodge/STM32MP157/tf-a/tf-a-stm32mp/../build/trusted/bl32/entrypoint.o
 .text          0x0000000000000000        0x0 /home/lodge/STM32MP157/tf-a/tf-a-stm32mp/../build/trusted/bl32/cpu_data.o
 .data          0x0000000000000000        0x0 /home/lodge/STM32MP157/tf-a/tf-a-stm32mp/../build/trusted/bl32/cpu_data.o
 .bss           0x0000000000000000        0x0 /home/lodge/STM32MP157/tf-a/tf-a-stm32mp/../build/trusted/bl32/cpu_data.o
 .text          0x0000000000000000        0x0 /home/lodge/STM32MP157/tf-a/tf-a-stm32mp/../build/trusted/bl32/cpu_helpers.o
 .data          0x0000000000000000        0x0 /home/lodge/STM32MP157/tf-a/tf-a-stm32mp/../build/trusted/bl32/cpu_helpers.o
 .bss           0x0000000000000000        0x0 /home/lodge/STM32MP157/tf-a/tf-a-stm32mp/../build/trusted/bl32/cpu_helpers.o
 .text.asm.cpu_get_rev_var
                0x0000000000000000       0x10 /home/lodge/STM32MP157/tf-a/tf-a-stm32mp/../build/trusted/bl32/cpu_helpers.o
 .text.asm.cpu_rev_var_ls
                0x0000000000000000       0x10 /home/lodge/STM32MP157/tf-a/tf-a-stm32mp/../build/trusted/bl32/cpu_helpers.o
 .text.asm.cpu_rev_var_hs
                0x0000000000000000       0x10 /home/lodge/STM32MP157/tf-a/tf-a-stm32mp/../build/trusted/bl32/cpu_helpers.o
 .text          0x0000000000000000        0x0 /home/lodge/STM32MP157/tf-a/tf-a-stm32mp/../build/trusted/bl32/spinlock.o
 .data          0x0000000000000000        0x0 /home/lodge/STM32MP157/tf-a/tf-a-stm32mp/../build/trusted/bl32/spinlock.o
 .bss           0x0000000000000000        0x0 /home/lodge/STM32MP157/tf-a/tf-a-stm32mp/../build/trusted/bl32/spinlock.o
 .text          0x0000000000000000        0x0 /home/lodge/STM32MP157/tf-a/tf-a-stm32mp/../build/trusted/bl32/psci_helpers.o
 .data          0x0000000000000000        0x0 /home/lodge/STM32MP157/tf-a/tf-a-stm32mp/../build/trusted/bl32/psci_helpers.o
 .bss           0x0000000000000000        0x0 /home/lodge/STM32MP157/tf-a/tf-a-stm32mp/../build/trusted/bl32/psci_helpers.o
 .text          0x0000000000000000        0x0 /home/lodge/STM32MP157/tf-a/tf-a-stm32mp/../build/trusted/bl32/platform_mp_stack.o
 .data          0x0000000000000000        0x0 /home/lodge/STM32MP157/tf-a/tf-a-stm32mp/../build/trusted/bl32/platform_mp_stack.o
 .bss           0x0000000000000000        0x0 /home/lodge/STM32MP157/tf-a/tf-a-stm32mp/../build/trusted/bl32/platform_mp_stack.o
 .text          0x0000000000000000        0x0 /home/lodge/STM32MP157/tf-a/tf-a-stm32mp/../build/trusted/bl32/debug.o
 .data          0x0000000000000000        0x0 /home/lodge/STM32MP157/tf-a/tf-a-stm32mp/../build/trusted/bl32/debug.o
 .bss           0x0000000000000000        0x0 /home/lodge/STM32MP157/tf-a/tf-a-stm32mp/../build/trusted/bl32/debug.o
 .text.asm.report_exception
                0x0000000000000000       0x14 /home/lodge/STM32MP157/tf-a/tf-a-stm32mp/../build/trusted/bl32/debug.o
 .text          0x0000000000000000        0x0 /home/lodge/STM32MP157/tf-a/tf-a-stm32mp/../build/trusted/bl32/cache_helpers.o
 .data          0x0000000000000000        0x0 /home/lodge/STM32MP157/tf-a/tf-a-stm32mp/../build/trusted/bl32/cache_helpers.o
 .bss           0x0000000000000000        0x0 /home/lodge/STM32MP157/tf-a/tf-a-stm32mp/../build/trusted/bl32/cache_helpers.o
 .text.asm.dcsw_op_louis
                0x0000000000000000       0x14 /home/lodge/STM32MP157/tf-a/tf-a-stm32mp/../build/trusted/bl32/cache_helpers.o
 .text.asm.dcsw_op_level2
                0x0000000000000000       0x10 /home/lodge/STM32MP157/tf-a/tf-a-stm32mp/../build/trusted/bl32/cache_helpers.o
 .text.asm.dcsw_op_level3
                0x0000000000000000       0x10 /home/lodge/STM32MP157/tf-a/tf-a-stm32mp/../build/trusted/bl32/cache_helpers.o
 .text          0x0000000000000000        0x0 /home/lodge/STM32MP157/tf-a/tf-a-stm32mp/../build/trusted/bl32/misc_helpers.o
 .data          0x0000000000000000        0x0 /home/lodge/STM32MP157/tf-a/tf-a-stm32mp/../build/trusted/bl32/misc_helpers.o
 .bss           0x0000000000000000        0x0 /home/lodge/STM32MP157/tf-a/tf-a-stm32mp/../build/trusted/bl32/misc_helpers.o
 .text.asm.smc  0x0000000000000000        0x8 /home/lodge/STM32MP157/tf-a/tf-a-stm32mp/../build/trusted/bl32/misc_helpers.o
 .text.asm.memcpy4
                0x0000000000000000       0x50 /home/lodge/STM32MP157/tf-a/tf-a-stm32mp/../build/trusted/bl32/misc_helpers.o
 .rodata.str1.1
                0x0000000000000000       0x1b /home/lodge/STM32MP157/tf-a/tf-a-stm32mp/../build/trusted/bl32/misc_helpers.o
 .text          0x0000000000000000        0x0 /home/lodge/STM32MP157/tf-a/tf-a-stm32mp/../build/trusted/bl32/platform_helpers.o
 .data          0x0000000000000000        0x0 /home/lodge/STM32MP157/tf-a/tf-a-stm32mp/../build/trusted/bl32/platform_helpers.o
 .bss           0x0000000000000000        0x0 /home/lodge/STM32MP157/tf-a/tf-a-stm32mp/../build/trusted/bl32/platform_helpers.o
 .text.asm.plat_report_exception
                0x0000000000000000        0x4 /home/lodge/STM32MP157/tf-a/tf-a-stm32mp/../build/trusted/bl32/platform_helpers.o
 .text.asm.plat_report_undef_inst
                0x0000000000000000        0x4 /home/lodge/STM32MP157/tf-a/tf-a-stm32mp/../build/trusted/bl32/platform_helpers.o
 .text.asm.plat_report_prefetch_abort
                0x0000000000000000        0x4 /home/lodge/STM32MP157/tf-a/tf-a-stm32mp/../build/trusted/bl32/platform_helpers.o
 .text.asm.plat_report_data_abort
                0x0000000000000000        0x4 /home/lodge/STM32MP157/tf-a/tf-a-stm32mp/../build/trusted/bl32/platform_helpers.o
 .text.asm.plat_reset_handler
                0x0000000000000000        0x4 /home/lodge/STM32MP157/tf-a/tf-a-stm32mp/../build/trusted/bl32/platform_helpers.o
 .text.asm.platform_mem_init
                0x0000000000000000        0x4 /home/lodge/STM32MP157/tf-a/tf-a-stm32mp/../build/trusted/bl32/platform_helpers.o
 .text.asm.bl1_plat_prepare_exit
                0x0000000000000000        0x4 /home/lodge/STM32MP157/tf-a/tf-a-stm32mp/../build/trusted/bl32/platform_helpers.o
 .text.asm.plat_panic_handler
                0x0000000000000000        0x4 /home/lodge/STM32MP157/tf-a/tf-a-stm32mp/../build/trusted/bl32/platform_helpers.o
 .text          0x0000000000000000       0x24 /home/lodge/STM32MP157/tf-a/tf-a-stm32mp/../build/trusted/bl32/aeabi_ldivmod.o
 .data          0x0000000000000000        0x0 /home/lodge/STM32MP157/tf-a/tf-a-stm32mp/../build/trusted/bl32/aeabi_ldivmod.o
 .bss           0x0000000000000000        0x0 /home/lodge/STM32MP157/tf-a/tf-a-stm32mp/../build/trusted/bl32/aeabi_ldivmod.o
 .debug_line    0x0000000000000000       0x66 /home/lodge/STM32MP157/tf-a/tf-a-stm32mp/../build/trusted/bl32/aeabi_ldivmod.o
 .debug_info    0x0000000000000000       0x26 /home/lodge/STM32MP157/tf-a/tf-a-stm32mp/../build/trusted/bl32/aeabi_ldivmod.o
 .debug_abbrev  0x0000000000000000       0x14 /home/lodge/STM32MP157/tf-a/tf-a-stm32mp/../build/trusted/bl32/aeabi_ldivmod.o
 .debug_aranges
                0x0000000000000000       0x20 /home/lodge/STM32MP157/tf-a/tf-a-stm32mp/../build/trusted/bl32/aeabi_ldivmod.o
 .debug_str     0x0000000000000000       0x64 /home/lodge/STM32MP157/tf-a/tf-a-stm32mp/../build/trusted/bl32/aeabi_ldivmod.o
 .ARM.attributes
                0x0000000000000000       0x27 /home/lodge/STM32MP157/tf-a/tf-a-stm32mp/../build/trusted/bl32/aeabi_ldivmod.o
 .data          0x0000000000000000        0x0 /home/lodge/STM32MP157/tf-a/tf-a-stm32mp/../build/trusted/bl32/aeabi_uldivmod.o
 .bss           0x0000000000000000        0x0 /home/lodge/STM32MP157/tf-a/tf-a-stm32mp/../build/trusted/bl32/aeabi_uldivmod.o
 .text          0x0000000000000000        0x0 /home/lodge/STM32MP157/tf-a/tf-a-stm32mp/../build/trusted/bl32/stm32_console.o
 .data          0x0000000000000000        0x0 /home/lodge/STM32MP157/tf-a/tf-a-stm32mp/../build/trusted/bl32/stm32_console.o
 .bss           0x0000000000000000        0x0 /home/lodge/STM32MP157/tf-a/tf-a-stm32mp/../build/trusted/bl32/stm32_console.o
 .text.asm.console_stm32_core_getc
                0x0000000000000000        0x8 /home/lodge/STM32MP157/tf-a/tf-a-stm32mp/../build/trusted/bl32/stm32_console.o
 .text          0x0000000000000000        0x0 /home/lodge/STM32MP157/tf-a/tf-a-stm32mp/../build/trusted/bl32/enable_mmu.o
 .data          0x0000000000000000        0x0 /home/lodge/STM32MP157/tf-a/tf-a-stm32mp/../build/trusted/bl32/enable_mmu.o
 .bss           0x0000000000000000        0x0 /home/lodge/STM32MP157/tf-a/tf-a-stm32mp/../build/trusted/bl32/enable_mmu.o
 .text.asm.enable_mmu_direct_hyp
                0x0000000000000000       0x74 /home/lodge/STM32MP157/tf-a/tf-a-stm32mp/../build/trusted/bl32/enable_mmu.o
 .text          0x0000000000000000        0x0 /home/lodge/STM32MP157/tf-a/tf-a-stm32mp/../build/trusted/bl32/cortex_a7.o
 .bss           0x0000000000000000        0x0 /home/lodge/STM32MP157/tf-a/tf-a-stm32mp/../build/trusted/bl32/cortex_a7.o
 .rodata        0x0000000000000000        0xa /home/lodge/STM32MP157/tf-a/tf-a-stm32mp/../build/trusted/bl32/cortex_a7.o
 .text          0x0000000000000000        0x0 /home/lodge/STM32MP157/tf-a/tf-a-stm32mp/../build/trusted/bl32/stm32mp1_helper.o
 .data          0x0000000000000000        0x0 /home/lodge/STM32MP157/tf-a/tf-a-stm32mp/../build/trusted/bl32/stm32mp1_helper.o
 .bss           0x0000000000000000        0x0 /home/lodge/STM32MP157/tf-a/tf-a-stm32mp/../build/trusted/bl32/stm32mp1_helper.o
 .text.asm.platform_mem_init
                0x0000000000000000        0x4 /home/lodge/STM32MP157/tf-a/tf-a-stm32mp/../build/trusted/bl32/stm32mp1_helper.o
 .text.asm.plat_get_my_entrypoint
                0x0000000000000000        0x8 /home/lodge/STM32MP157/tf-a/tf-a-stm32mp/../build/trusted/bl32/stm32mp1_helper.o
 .text.asm.plat_secondary_cold_boot_setup
                0x0000000000000000        0x4 /home/lodge/STM32MP157/tf-a/tf-a-stm32mp/../build/trusted/bl32/stm32mp1_helper.o
 .text.asm.plat_is_my_cpu_primary
                0x0000000000000000       0x20 /home/lodge/STM32MP157/tf-a/tf-a-stm32mp/../build/trusted/bl32/stm32mp1_helper.o
 .text          0x0000000000000000        0x0 /home/lodge/STM32MP157/tf-a/tf-a-stm32mp/../build/trusted/lib/libfdt.a(fdt.o)
 .data          0x0000000000000000        0x0 /home/lodge/STM32MP157/tf-a/tf-a-stm32mp/../build/trusted/lib/libfdt.a(fdt.o)
 .bss           0x0000000000000000        0x0 /home/lodge/STM32MP157/tf-a/tf-a-stm32mp/../build/trusted/lib/libfdt.a(fdt.o)
 .text.fdt_find_string_
                0x0000000000000000       0x30 /home/lodge/STM32MP157/tf-a/tf-a-stm32mp/../build/trusted/lib/libfdt.a(fdt.o)
 .text.fdt_move
                0x0000000000000000       0x2e /home/lodge/STM32MP157/tf-a/tf-a-stm32mp/../build/trusted/lib/libfdt.a(fdt.o)
 .text          0x0000000000000000        0x0 /home/lodge/STM32MP157/tf-a/tf-a-stm32mp/../build/trusted/lib/libfdt.a(fdt_addresses.o)
 .data          0x0000000000000000        0x0 /home/lodge/STM32MP157/tf-a/tf-a-stm32mp/../build/trusted/lib/libfdt.a(fdt_addresses.o)
 .bss           0x0000000000000000        0x0 /home/lodge/STM32MP157/tf-a/tf-a-stm32mp/../build/trusted/lib/libfdt.a(fdt_addresses.o)
 .rodata.fdt_size_cells.str1.1
                0x0000000000000000        0xc /home/lodge/STM32MP157/tf-a/tf-a-stm32mp/../build/trusted/lib/libfdt.a(fdt_addresses.o)
 .text.fdt_size_cells
                0x0000000000000000       0x48 /home/lodge/STM32MP157/tf-a/tf-a-stm32mp/../build/trusted/lib/libfdt.a(fdt_addresses.o)
 .text          0x0000000000000000        0x0 /home/lodge/STM32MP157/tf-a/tf-a-stm32mp/../build/trusted/lib/libfdt.a(fdt_ro.o)
 .data          0x0000000000000000        0x0 /home/lodge/STM32MP157/tf-a/tf-a-stm32mp/../build/trusted/lib/libfdt.a(fdt_ro.o)
 .bss           0x0000000000000000        0x0 /home/lodge/STM32MP157/tf-a/tf-a-stm32mp/../build/trusted/lib/libfdt.a(fdt_ro.o)
 .text.fdt64_to_cpu
                0x0000000000000000        0x8 /home/lodge/STM32MP157/tf-a/tf-a-stm32mp/../build/trusted/lib/libfdt.a(fdt_ro.o)
 .text.fdt_get_mem_rsv
                0x0000000000000000       0x3e /home/lodge/STM32MP157/tf-a/tf-a-stm32mp/../build/trusted/lib/libfdt.a(fdt_ro.o)
 .text.fdt_num_mem_rsv
                0x0000000000000000       0x26 /home/lodge/STM32MP157/tf-a/tf-a-stm32mp/../build/trusted/lib/libfdt.a(fdt_ro.o)
 .text.fdt_get_property_by_offset
                0x0000000000000000       0x24 /home/lodge/STM32MP157/tf-a/tf-a-stm32mp/../build/trusted/lib/libfdt.a(fdt_ro.o)
 .text.fdt_get_property_namelen
                0x0000000000000000       0x30 /home/lodge/STM32MP157/tf-a/tf-a-stm32mp/../build/trusted/lib/libfdt.a(fdt_ro.o)
 .text.fdt_get_property
                0x0000000000000000       0x22 /home/lodge/STM32MP157/tf-a/tf-a-stm32mp/../build/trusted/lib/libfdt.a(fdt_ro.o)
 .text.fdt_getprop_by_offset
                0x0000000000000000       0x48 /home/lodge/STM32MP157/tf-a/tf-a-stm32mp/../build/trusted/lib/libfdt.a(fdt_ro.o)
 .text.fdt_get_max_phandle
                0x0000000000000000       0x42 /home/lodge/STM32MP157/tf-a/tf-a-stm32mp/../build/trusted/lib/libfdt.a(fdt_ro.o)
 .text.fdt_get_alias
                0x0000000000000000       0x1a /home/lodge/STM32MP157/tf-a/tf-a-stm32mp/../build/trusted/lib/libfdt.a(fdt_ro.o)
 .text.fdt_get_path
                0x0000000000000000       0xca /home/lodge/STM32MP157/tf-a/tf-a-stm32mp/../build/trusted/lib/libfdt.a(fdt_ro.o)
 .text.fdt_node_offset_by_prop_value
                0x0000000000000000       0x58 /home/lodge/STM32MP157/tf-a/tf-a-stm32mp/../build/trusted/lib/libfdt.a(fdt_ro.o)
 .text.fdt_stringlist_count
                0x0000000000000000       0x38 /home/lodge/STM32MP157/tf-a/tf-a-stm32mp/../build/trusted/lib/libfdt.a(fdt_ro.o)
 .text.fdt_stringlist_get
                0x0000000000000000       0x60 /home/lodge/STM32MP157/tf-a/tf-a-stm32mp/../build/trusted/lib/libfdt.a(fdt_ro.o)
 .text          0x0000000000000000        0x0 /home/lodge/STM32MP157/tf-a/tf-a-stm32mp/../build/trusted/lib/libc.a(assert.o)
 .data          0x0000000000000000        0x0 /home/lodge/STM32MP157/tf-a/tf-a-stm32mp/../build/trusted/lib/libc.a(assert.o)
 .bss           0x0000000000000000        0x0 /home/lodge/STM32MP157/tf-a/tf-a-stm32mp/../build/trusted/lib/libc.a(assert.o)
 .text          0x0000000000000000        0x0 /home/lodge/STM32MP157/tf-a/tf-a-stm32mp/../build/trusted/lib/libc.a(memchr.o)
 .data          0x0000000000000000        0x0 /home/lodge/STM32MP157/tf-a/tf-a-stm32mp/../build/trusted/lib/libc.a(memchr.o)
 .bss           0x0000000000000000        0x0 /home/lodge/STM32MP157/tf-a/tf-a-stm32mp/../build/trusted/lib/libc.a(memchr.o)
 .text          0x0000000000000000        0x0 /home/lodge/STM32MP157/tf-a/tf-a-stm32mp/../build/trusted/lib/libc.a(memcmp.o)
 .data          0x0000000000000000        0x0 /home/lodge/STM32MP157/tf-a/tf-a-stm32mp/../build/trusted/lib/libc.a(memcmp.o)
 .bss           0x0000000000000000        0x0 /home/lodge/STM32MP157/tf-a/tf-a-stm32mp/../build/trusted/lib/libc.a(memcmp.o)
 .text          0x0000000000000000        0x0 /home/lodge/STM32MP157/tf-a/tf-a-stm32mp/../build/trusted/lib/libc.a(memcpy.o)
 .data          0x0000000000000000        0x0 /home/lodge/STM32MP157/tf-a/tf-a-stm32mp/../build/trusted/lib/libc.a(memcpy.o)
 .bss           0x0000000000000000        0x0 /home/lodge/STM32MP157/tf-a/tf-a-stm32mp/../build/trusted/lib/libc.a(memcpy.o)
 .text          0x0000000000000000        0x0 /home/lodge/STM32MP157/tf-a/tf-a-stm32mp/../build/trusted/lib/libc.a(memmove.o)
 .data          0x0000000000000000        0x0 /home/lodge/STM32MP157/tf-a/tf-a-stm32mp/../build/trusted/lib/libc.a(memmove.o)
 .bss           0x0000000000000000        0x0 /home/lodge/STM32MP157/tf-a/tf-a-stm32mp/../build/trusted/lib/libc.a(memmove.o)
 .text          0x0000000000000000        0x0 /home/lodge/STM32MP157/tf-a/tf-a-stm32mp/../build/trusted/lib/libc.a(memset.o)
 .data          0x0000000000000000        0x0 /home/lodge/STM32MP157/tf-a/tf-a-stm32mp/../build/trusted/lib/libc.a(memset.o)
 .bss           0x0000000000000000        0x0 /home/lodge/STM32MP157/tf-a/tf-a-stm32mp/../build/trusted/lib/libc.a(memset.o)
 .text          0x0000000000000000        0x0 /home/lodge/STM32MP157/tf-a/tf-a-stm32mp/../build/trusted/lib/libc.a(printf.o)
 .data          0x0000000000000000        0x0 /home/lodge/STM32MP157/tf-a/tf-a-stm32mp/../build/trusted/lib/libc.a(printf.o)
 .bss           0x0000000000000000        0x0 /home/lodge/STM32MP157/tf-a/tf-a-stm32mp/../build/trusted/lib/libc.a(printf.o)
 .text          0x0000000000000000        0x0 /home/lodge/STM32MP157/tf-a/tf-a-stm32mp/../build/trusted/lib/libc.a(putchar.o)
 .data          0x0000000000000000        0x0 /home/lodge/STM32MP157/tf-a/tf-a-stm32mp/../build/trusted/lib/libc.a(putchar.o)
 .bss           0x0000000000000000        0x0 /home/lodge/STM32MP157/tf-a/tf-a-stm32mp/../build/trusted/lib/libc.a(putchar.o)
 .text          0x0000000000000000        0x0 /home/lodge/STM32MP157/tf-a/tf-a-stm32mp/../build/trusted/lib/libc.a(snprintf.o)
 .data          0x0000000000000000        0x0 /home/lodge/STM32MP157/tf-a/tf-a-stm32mp/../build/trusted/lib/libc.a(snprintf.o)
 .bss           0x0000000000000000        0x0 /home/lodge/STM32MP157/tf-a/tf-a-stm32mp/../build/trusted/lib/libc.a(snprintf.o)
 .text.unsigned_dec_print
                0x0000000000000000       0x4a /home/lodge/STM32MP157/tf-a/tf-a-stm32mp/../build/trusted/lib/libc.a(snprintf.o)
 .rodata.snprintf.str1.1
                0x0000000000000000       0x39 /home/lodge/STM32MP157/tf-a/tf-a-stm32mp/../build/trusted/lib/libc.a(snprintf.o)
 .text.snprintf
                0x0000000000000000       0xe0 /home/lodge/STM32MP157/tf-a/tf-a-stm32mp/../build/trusted/lib/libc.a(snprintf.o)
 .debug_info    0x0000000000000000      0x32a /home/lodge/STM32MP157/tf-a/tf-a-stm32mp/../build/trusted/lib/libc.a(snprintf.o)
 .debug_abbrev  0x0000000000000000      0x21a /home/lodge/STM32MP157/tf-a/tf-a-stm32mp/../build/trusted/lib/libc.a(snprintf.o)
 .debug_loc     0x0000000000000000      0x203 /home/lodge/STM32MP157/tf-a/tf-a-stm32mp/../build/trusted/lib/libc.a(snprintf.o)
 .debug_aranges
                0x0000000000000000       0x28 /home/lodge/STM32MP157/tf-a/tf-a-stm32mp/../build/trusted/lib/libc.a(snprintf.o)
 .debug_ranges  0x0000000000000000       0x30 /home/lodge/STM32MP157/tf-a/tf-a-stm32mp/../build/trusted/lib/libc.a(snprintf.o)
 .debug_line    0x0000000000000000      0x316 /home/lodge/STM32MP157/tf-a/tf-a-stm32mp/../build/trusted/lib/libc.a(snprintf.o)
 .debug_str     0x0000000000000000      0x24c /home/lodge/STM32MP157/tf-a/tf-a-stm32mp/../build/trusted/lib/libc.a(snprintf.o)
 .comment       0x0000000000000000       0x5e /home/lodge/STM32MP157/tf-a/tf-a-stm32mp/../build/trusted/lib/libc.a(snprintf.o)
 .note.GNU-stack
                0x0000000000000000        0x0 /home/lodge/STM32MP157/tf-a/tf-a-stm32mp/../build/trusted/lib/libc.a(snprintf.o)
 .debug_frame   0x0000000000000000       0x6c /home/lodge/STM32MP157/tf-a/tf-a-stm32mp/../build/trusted/lib/libc.a(snprintf.o)
 .ARM.attributes
                0x0000000000000000       0x33 /home/lodge/STM32MP157/tf-a/tf-a-stm32mp/../build/trusted/lib/libc.a(snprintf.o)
 .text          0x0000000000000000        0x0 /home/lodge/STM32MP157/tf-a/tf-a-stm32mp/../build/trusted/lib/libc.a(strchr.o)
 .data          0x0000000000000000        0x0 /home/lodge/STM32MP157/tf-a/tf-a-stm32mp/../build/trusted/lib/libc.a(strchr.o)
 .bss           0x0000000000000000        0x0 /home/lodge/STM32MP157/tf-a/tf-a-stm32mp/../build/trusted/lib/libc.a(strchr.o)
 .text          0x0000000000000000        0x0 /home/lodge/STM32MP157/tf-a/tf-a-stm32mp/../build/trusted/lib/libc.a(strcmp.o)
 .data          0x0000000000000000        0x0 /home/lodge/STM32MP157/tf-a/tf-a-stm32mp/../build/trusted/lib/libc.a(strcmp.o)
 .bss           0x0000000000000000        0x0 /home/lodge/STM32MP157/tf-a/tf-a-stm32mp/../build/trusted/lib/libc.a(strcmp.o)
 .text          0x0000000000000000        0x0 /home/lodge/STM32MP157/tf-a/tf-a-stm32mp/../build/trusted/lib/libc.a(strlcpy.o)
 .data          0x0000000000000000        0x0 /home/lodge/STM32MP157/tf-a/tf-a-stm32mp/../build/trusted/lib/libc.a(strlcpy.o)
 .bss           0x0000000000000000        0x0 /home/lodge/STM32MP157/tf-a/tf-a-stm32mp/../build/trusted/lib/libc.a(strlcpy.o)
 .text          0x0000000000000000        0x0 /home/lodge/STM32MP157/tf-a/tf-a-stm32mp/../build/trusted/lib/libc.a(strlen.o)
 .data          0x0000000000000000        0x0 /home/lodge/STM32MP157/tf-a/tf-a-stm32mp/../build/trusted/lib/libc.a(strlen.o)
 .bss           0x0000000000000000        0x0 /home/lodge/STM32MP157/tf-a/tf-a-stm32mp/../build/trusted/lib/libc.a(strlen.o)
 .text          0x0000000000000000        0x0 /home/lodge/STM32MP157/tf-a/tf-a-stm32mp/../build/trusted/lib/libc.a(strncmp.o)
 .data          0x0000000000000000        0x0 /home/lodge/STM32MP157/tf-a/tf-a-stm32mp/../build/trusted/lib/libc.a(strncmp.o)
 .bss           0x0000000000000000        0x0 /home/lodge/STM32MP157/tf-a/tf-a-stm32mp/../build/trusted/lib/libc.a(strncmp.o)
 .text          0x0000000000000000        0x0 /home/lodge/STM32MP157/tf-a/tf-a-stm32mp/../build/trusted/lib/libc.a(strnlen.o)
 .data          0x0000000000000000        0x0 /home/lodge/STM32MP157/tf-a/tf-a-stm32mp/../build/trusted/lib/libc.a(strnlen.o)
 .bss           0x0000000000000000        0x0 /home/lodge/STM32MP157/tf-a/tf-a-stm32mp/../build/trusted/lib/libc.a(strnlen.o)
 .text          0x0000000000000000        0x0 /home/lodge/STM32MP157/tf-a/tf-a-stm32mp/../build/trusted/lib/libc.a(strrchr.o)
 .data          0x0000000000000000        0x0 /home/lodge/STM32MP157/tf-a/tf-a-stm32mp/../build/trusted/lib/libc.a(strrchr.o)
 .bss           0x0000000000000000        0x0 /home/lodge/STM32MP157/tf-a/tf-a-stm32mp/../build/trusted/lib/libc.a(strrchr.o)

Memory Configuration

Name             Origin             Length             Attributes
RAM              0x000000002ffed000 0x0000000000012000 xrw
*default*        0x0000000000000000 0xffffffffffffffff

Linker script and memory map

                0x000000002ffed000                . = 0x2ffed000
                0x0000000000000001                ASSERT ((. == ALIGN (0x1000)), BL32_BASE address is not aligned on a page boundary.)

ro              0x000000002ffed000    0x10000
                0x000000002ffed000                __RO_START__ = .
 *entrypoint.o(.text*)
 .text.asm.sp_min_entrypoint
                0x000000002ffed000      0x160 /home/lodge/STM32MP157/tf-a/tf-a-stm32mp/../build/trusted/bl32/entrypoint.o
                0x000000002ffed000                sp_min_entrypoint
 .text.asm.sp_min_handle_smc
                0x000000002ffed160       0xcc /home/lodge/STM32MP157/tf-a/tf-a-stm32mp/../build/trusted/bl32/entrypoint.o
                0x000000002ffed160                sp_min_handle_smc
 .text.asm.sp_min_handle_fiq
                0x000000002ffed22c       0xb4 /home/lodge/STM32MP157/tf-a/tf-a-stm32mp/../build/trusted/bl32/entrypoint.o
                0x000000002ffed22c                sp_min_handle_fiq
 .text.asm.sp_min_warm_entrypoint
                0x000000002ffed2e0       0xe0 /home/lodge/STM32MP157/tf-a/tf-a-stm32mp/../build/trusted/bl32/entrypoint.o
                0x000000002ffed2e0                sp_min_warm_entrypoint
 .text.asm.sp_min_exit
                0x000000002ffed3c0       0x84 /home/lodge/STM32MP157/tf-a/tf-a-stm32mp/../build/trusted/bl32/entrypoint.o
 *(.text*)
 .text.smc_get_ctx
                0x000000002ffed444       0x24 /home/lodge/STM32MP157/tf-a/tf-a-stm32mp/../build/trusted/bl32/sp_min_main.o
                0x000000002ffed444                smc_get_ctx
 .text.smc_get_next_ctx
                0x000000002ffed468       0x14 /home/lodge/STM32MP157/tf-a/tf-a-stm32mp/../build/trusted/bl32/sp_min_main.o
                0x000000002ffed468                smc_get_next_ctx
 .text.cm_get_context
                0x000000002ffed47c       0x24 /home/lodge/STM32MP157/tf-a/tf-a-stm32mp/../build/trusted/bl32/sp_min_main.o
                0x000000002ffed47c                cm_get_context
 .text.cm_get_context_by_index
                0x000000002ffed4a0       0x20 /home/lodge/STM32MP157/tf-a/tf-a-stm32mp/../build/trusted/bl32/sp_min_main.o
                0x000000002ffed4a0                cm_get_context_by_index
 .text.cm_set_context_by_index
                0x000000002ffed4c0       0x20 /home/lodge/STM32MP157/tf-a/tf-a-stm32mp/../build/trusted/bl32/sp_min_main.o
                0x000000002ffed4c0                cm_set_context_by_index
 .text.get_arm_std_svc_args
                0x000000002ffed4e0       0x20 /home/lodge/STM32MP157/tf-a/tf-a-stm32mp/../build/trusted/bl32/sp_min_main.o
                0x000000002ffed4e0                get_arm_std_svc_args
 .text.sp_min_main
                0x000000002ffed500       0xd0 /home/lodge/STM32MP157/tf-a/tf-a-stm32mp/../build/trusted/bl32/sp_min_main.o
                0x000000002ffed500                sp_min_main
 .text.sp_min_warm_boot
                0x000000002ffed5d0       0x74 /home/lodge/STM32MP157/tf-a/tf-a-stm32mp/../build/trusted/bl32/sp_min_main.o
                0x000000002ffed5d0                sp_min_warm_boot
 .text.sp_min_fiq
                0x000000002ffed644       0x16 /home/lodge/STM32MP157/tf-a/tf-a-stm32mp/../build/trusted/bl32/sp_min_main.o
                0x000000002ffed644                sp_min_fiq
 *fill*         0x000000002ffed65a        0x2 
 .text.handle_runtime_svc
                0x000000002ffed65c       0x60 /home/lodge/STM32MP157/tf-a/tf-a-stm32mp/../build/trusted/bl32/runtime_svc.o
                0x000000002ffed65c                handle_runtime_svc
 .text.runtime_svc_init
                0x000000002ffed6bc       0xd8 /home/lodge/STM32MP157/tf-a/tf-a-stm32mp/../build/trusted/bl32/runtime_svc.o
                0x000000002ffed6bc                runtime_svc_init
 .text.sp_min_plat_runtime_setup
                0x000000002ffed794        0x6 /home/lodge/STM32MP157/tf-a/tf-a-stm32mp/../build/trusted/bl32/plat_sp_min_common.o
                0x000000002ffed794                sp_min_plat_runtime_setup
 *fill*         0x000000002ffed79a        0x2 
 .text.std_svc_smc_handler
                0x000000002ffed79c       0x7c /home/lodge/STM32MP157/tf-a/tf-a-stm32mp/../build/trusted/bl32/std_svc_setup.o
 .text.std_svc_setup
                0x000000002ffed818       0x24 /home/lodge/STM32MP157/tf-a/tf-a-stm32mp/../build/trusted/bl32/std_svc_setup.o
 .text.cm_setup_context
                0x000000002ffed83c       0x78 /home/lodge/STM32MP157/tf-a/tf-a-stm32mp/../build/trusted/bl32/context_mgmt.o
                0x000000002ffed83c                cm_setup_context
 .text.cm_init_context_by_index
                0x000000002ffed8b4       0x18 /home/lodge/STM32MP157/tf-a/tf-a-stm32mp/../build/trusted/bl32/context_mgmt.o
                0x000000002ffed8b4                cm_init_context_by_index
 .text.cm_init_my_context
                0x000000002ffed8cc       0x18 /home/lodge/STM32MP157/tf-a/tf-a-stm32mp/../build/trusted/bl32/context_mgmt.o
                0x000000002ffed8cc                cm_init_my_context
 .text.cm_prepare_el3_exit
                0x000000002ffed8e4       0xb4 /home/lodge/STM32MP157/tf-a/tf-a-stm32mp/../build/trusted/bl32/context_mgmt.o
                0x000000002ffed8e4                cm_prepare_el3_exit
 .text.errata_needs_reporting
                0x000000002ffed998       0x2a /home/lodge/STM32MP157/tf-a/tf-a-stm32mp/../build/trusted/bl32/errata_report.o
                0x000000002ffed998                errata_needs_reporting
 *fill*         0x000000002ffed9c2        0x2 
 .text.psci_do_cpu_off
                0x000000002ffed9c4       0xbc /home/lodge/STM32MP157/tf-a/tf-a-stm32mp/../build/trusted/bl32/psci_off.o
                0x000000002ffed9c4                psci_do_cpu_off
 .text.psci_cpu_on_start
                0x000000002ffeda80      0x12c /home/lodge/STM32MP157/tf-a/tf-a-stm32mp/../build/trusted/bl32/psci_on.o
                0x000000002ffeda80                psci_cpu_on_start
 .text.psci_cpu_on_finish
                0x000000002ffedbac       0x9c /home/lodge/STM32MP157/tf-a/tf-a-stm32mp/../build/trusted/bl32/psci_on.o
                0x000000002ffedbac                psci_cpu_on_finish
 .text.psci_cpu_suspend_start
                0x000000002ffedc48      0x120 /home/lodge/STM32MP157/tf-a/tf-a-stm32mp/../build/trusted/bl32/psci_suspend.o
                0x000000002ffedc48                psci_cpu_suspend_start
 .text.psci_cpu_suspend_finish
                0x000000002ffedd68       0x8c /home/lodge/STM32MP157/tf-a/tf-a-stm32mp/../build/trusted/bl32/psci_suspend.o
                0x000000002ffedd68                psci_cpu_suspend_finish
 .text.psci_validate_power_state
                0x000000002ffeddf4       0x30 /home/lodge/STM32MP157/tf-a/tf-a-stm32mp/../build/trusted/bl32/psci_common.o
                0x000000002ffeddf4                psci_validate_power_state
 .text.psci_query_sys_suspend_pwrstate
                0x000000002ffede24       0x20 /home/lodge/STM32MP157/tf-a/tf-a-stm32mp/../build/trusted/bl32/psci_common.o
                0x000000002ffede24                psci_query_sys_suspend_pwrstate
 .text.psci_is_last_on_cpu
                0x000000002ffede44       0x50 /home/lodge/STM32MP157/tf-a/tf-a-stm32mp/../build/trusted/bl32/psci_common.o
                0x000000002ffede44                psci_is_last_on_cpu
 .text.psci_init_req_local_pwr_states
                0x000000002ffede94       0x10 /home/lodge/STM32MP157/tf-a/tf-a-stm32mp/../build/trusted/bl32/psci_common.o
                0x000000002ffede94                psci_init_req_local_pwr_states
 .text.psci_get_target_local_pwr_states
                0x000000002ffedea4       0x54 /home/lodge/STM32MP157/tf-a/tf-a-stm32mp/../build/trusted/bl32/psci_common.o
                0x000000002ffedea4                psci_get_target_local_pwr_states
 .text.psci_get_parent_pwr_domain_nodes
                0x000000002ffedef8       0x2c /home/lodge/STM32MP157/tf-a/tf-a-stm32mp/../build/trusted/bl32/psci_common.o
                0x000000002ffedef8                psci_get_parent_pwr_domain_nodes
 .text.psci_set_pwr_domains_to_run
                0x000000002ffedf24       0x84 /home/lodge/STM32MP157/tf-a/tf-a-stm32mp/../build/trusted/bl32/psci_common.o
                0x000000002ffedf24                psci_set_pwr_domains_to_run
 .text.psci_do_state_coordination
                0x000000002ffedfa8       0xbc /home/lodge/STM32MP157/tf-a/tf-a-stm32mp/../build/trusted/bl32/psci_common.o
                0x000000002ffedfa8                psci_do_state_coordination
 .text.psci_find_max_off_lvl
                0x000000002ffee064       0x18 /home/lodge/STM32MP157/tf-a/tf-a-stm32mp/../build/trusted/bl32/psci_common.o
                0x000000002ffee064                psci_find_max_off_lvl
 .text.psci_find_target_suspend_lvl
                0x000000002ffee07c       0x14 /home/lodge/STM32MP157/tf-a/tf-a-stm32mp/../build/trusted/bl32/psci_common.o
                0x000000002ffee07c                psci_find_target_suspend_lvl
 .text.psci_validate_suspend_req
                0x000000002ffee090       0x52 /home/lodge/STM32MP157/tf-a/tf-a-stm32mp/../build/trusted/bl32/psci_common.o
                0x000000002ffee090                psci_validate_suspend_req
 *fill*         0x000000002ffee0e2        0x2 
 .text.psci_acquire_pwr_domain_locks
                0x000000002ffee0e4       0x38 /home/lodge/STM32MP157/tf-a/tf-a-stm32mp/../build/trusted/bl32/psci_common.o
                0x000000002ffee0e4                psci_acquire_pwr_domain_locks
 .text.psci_release_pwr_domain_locks
                0x000000002ffee11c       0x30 /home/lodge/STM32MP157/tf-a/tf-a-stm32mp/../build/trusted/bl32/psci_common.o
                0x000000002ffee11c                psci_release_pwr_domain_locks
 .text.psci_validate_mpidr
                0x000000002ffee14c       0x12 /home/lodge/STM32MP157/tf-a/tf-a-stm32mp/../build/trusted/bl32/psci_common.o
                0x000000002ffee14c                psci_validate_mpidr
 *fill*         0x000000002ffee15e        0x2 
 .text.psci_validate_entry_point
                0x000000002ffee160       0x94 /home/lodge/STM32MP157/tf-a/tf-a-stm32mp/../build/trusted/bl32/psci_common.o
                0x000000002ffee160                psci_validate_entry_point
 .text.psci_warmboot_entrypoint
                0x000000002ffee1f4       0x98 /home/lodge/STM32MP157/tf-a/tf-a-stm32mp/../build/trusted/bl32/psci_common.o
                0x000000002ffee1f4                psci_warmboot_entrypoint
 .text.psci_spd_migrate_info
                0x000000002ffee28c       0x2c /home/lodge/STM32MP157/tf-a/tf-a-stm32mp/../build/trusted/bl32/psci_common.o
                0x000000002ffee28c                psci_spd_migrate_info
 .text.psci_print_power_domain_map
                0x000000002ffee2b8       0xb0 /home/lodge/STM32MP157/tf-a/tf-a-stm32mp/../build/trusted/bl32/psci_common.o
                0x000000002ffee2b8                psci_print_power_domain_map
 .text.psci_do_pwrdown_sequence
                0x000000002ffee368        0x4 /home/lodge/STM32MP157/tf-a/tf-a-stm32mp/../build/trusted/bl32/psci_common.o
                0x000000002ffee368                psci_do_pwrdown_sequence
 .text.psci_cpu_on
                0x000000002ffee36c       0x2e /home/lodge/STM32MP157/tf-a/tf-a-stm32mp/../build/trusted/bl32/psci_main.o
                0x000000002ffee36c                psci_cpu_on
 *fill*         0x000000002ffee39a        0x2 
 .text.psci_cpu_suspend
                0x000000002ffee39c       0xc4 /home/lodge/STM32MP157/tf-a/tf-a-stm32mp/../build/trusted/bl32/psci_main.o
                0x000000002ffee39c                psci_cpu_suspend
 .text.psci_system_suspend
                0x000000002ffee460       0x6c /home/lodge/STM32MP157/tf-a/tf-a-stm32mp/../build/trusted/bl32/psci_main.o
                0x000000002ffee460                psci_system_suspend
 .text.psci_cpu_off
                0x000000002ffee4cc       0x1c /home/lodge/STM32MP157/tf-a/tf-a-stm32mp/../build/trusted/bl32/psci_main.o
                0x000000002ffee4cc                psci_cpu_off
 .text.psci_affinity_info
                0x000000002ffee4e8       0x2a /home/lodge/STM32MP157/tf-a/tf-a-stm32mp/../build/trusted/bl32/psci_main.o
                0x000000002ffee4e8                psci_affinity_info
 *fill*         0x000000002ffee512        0x2 
 .text.psci_migrate
                0x000000002ffee514       0x6c /home/lodge/STM32MP157/tf-a/tf-a-stm32mp/../build/trusted/bl32/psci_main.o
                0x000000002ffee514                psci_migrate
 .text.psci_migrate_info_type
                0x000000002ffee580        0xe /home/lodge/STM32MP157/tf-a/tf-a-stm32mp/../build/trusted/bl32/psci_main.o
                0x000000002ffee580                psci_migrate_info_type
 .text.psci_migrate_info_up_cpu
                0x000000002ffee58e       0x18 /home/lodge/STM32MP157/tf-a/tf-a-stm32mp/../build/trusted/bl32/psci_main.o
                0x000000002ffee58e                psci_migrate_info_up_cpu
 *fill*         0x000000002ffee5a6        0x2 
 .text.psci_node_hw_state
                0x000000002ffee5a8       0x48 /home/lodge/STM32MP157/tf-a/tf-a-stm32mp/../build/trusted/bl32/psci_main.o
                0x000000002ffee5a8                psci_node_hw_state
 .text.psci_features
                0x000000002ffee5f0       0x60 /home/lodge/STM32MP157/tf-a/tf-a-stm32mp/../build/trusted/bl32/psci_main.o
                0x000000002ffee5f0                psci_features
 .text.psci_smc_handler
                0x000000002ffee650      0x134 /home/lodge/STM32MP157/tf-a/tf-a-stm32mp/../build/trusted/bl32/psci_main.o
                0x000000002ffee650                psci_smc_handler
 .text.psci_arch_setup
                0x000000002ffee784       0x16 /home/lodge/STM32MP157/tf-a/tf-a-stm32mp/../build/trusted/bl32/psci_setup.o
                0x000000002ffee784                psci_arch_setup
 *fill*         0x000000002ffee79a        0x2 
 .text.psci_setup
                0x000000002ffee79c      0x214 /home/lodge/STM32MP157/tf-a/tf-a-stm32mp/../build/trusted/bl32/psci_setup.o
                0x000000002ffee79c                psci_setup
 .text.psci_prepare_next_non_secure_ctx
                0x000000002ffee9b0       0x24 /home/lodge/STM32MP157/tf-a/tf-a-stm32mp/../build/trusted/bl32/psci_setup.o
                0x000000002ffee9b0                psci_prepare_next_non_secure_ctx
 .text.psci_system_off
                0x000000002ffee9d4       0x38 /home/lodge/STM32MP157/tf-a/tf-a-stm32mp/../build/trusted/bl32/psci_system_off.o
                0x000000002ffee9d4                psci_system_off
 .text.psci_system_reset
                0x000000002ffeea0c       0x38 /home/lodge/STM32MP157/tf-a/tf-a-stm32mp/../build/trusted/bl32/psci_system_off.o
                0x000000002ffeea0c                psci_system_reset
 .text.psci_system_reset2
                0x000000002ffeea44       0x70 /home/lodge/STM32MP157/tf-a/tf-a-stm32mp/../build/trusted/bl32/psci_system_off.o
                0x000000002ffeea44                psci_system_reset2
 .text.psci_mem_protect
                0x000000002ffeeab4       0x4c /home/lodge/STM32MP157/tf-a/tf-a-stm32mp/../build/trusted/bl32/psci_mem_protect.o
                0x000000002ffeeab4                psci_mem_protect
 .text.psci_mem_chk_range
                0x000000002ffeeb00       0x34 /home/lodge/STM32MP157/tf-a/tf-a-stm32mp/../build/trusted/bl32/psci_mem_protect.o
                0x000000002ffeeb00                psci_mem_chk_range
 .text.bakery_lock_get
                0x000000002ffeeb34      0x100 /home/lodge/STM32MP157/tf-a/tf-a-stm32mp/../build/trusted/bl32/bakery_lock_normal.o
                0x000000002ffeeb34                bakery_lock_get
 .text.bakery_lock_release
                0x000000002ffeec34       0x58 /home/lodge/STM32MP157/tf-a/tf-a-stm32mp/../build/trusted/bl32/bakery_lock_normal.o
                0x000000002ffeec34                bakery_lock_release
 .text.trim_increase
                0x000000002ffeec8c       0x26 /home/lodge/STM32MP157/tf-a/tf-a-stm32mp/../build/trusted/bl32/stm32mp1_calib.o
 .text.trim_table_init
                0x000000002ffeecb2       0x84 /home/lodge/STM32MP157/tf-a/tf-a-stm32mp/../build/trusted/bl32/stm32mp1_calib.o
 *fill*         0x000000002ffeed36        0x2 
 .text.csi_get_trimed_cal
                0x000000002ffeed38       0x20 /home/lodge/STM32MP157/tf-a/tf-a-stm32mp/../build/trusted/bl32/stm32mp1_calib.o
 .text.csi_set_trim
                0x000000002ffeed58       0x28 /home/lodge/STM32MP157/tf-a/tf-a-stm32mp/../build/trusted/bl32/stm32mp1_calib.o
 .text.hsi_get_trimed_cal
                0x000000002ffeed80       0x1c /home/lodge/STM32MP157/tf-a/tf-a-stm32mp/../build/trusted/bl32/stm32mp1_calib.o
 .text.hsi_set_trim
                0x000000002ffeed9c       0x24 /home/lodge/STM32MP157/tf-a/tf-a-stm32mp/../build/trusted/bl32/stm32mp1_calib.o
 .text.rcc_calibration
                0x000000002ffeedc0      0x180 /home/lodge/STM32MP157/tf-a/tf-a-stm32mp/../build/trusted/bl32/stm32mp1_calib.o
 .text.stm32mp1_calib_get_wakeup
                0x000000002ffeef40        0xc /home/lodge/STM32MP157/tf-a/tf-a-stm32mp/../build/trusted/bl32/stm32mp1_calib.o
                0x000000002ffeef40                stm32mp1_calib_get_wakeup
 .text.stm32mp1_calib_set_wakeup
                0x000000002ffeef4c        0xc /home/lodge/STM32MP157/tf-a/tf-a-stm32mp/../build/trusted/bl32/stm32mp1_calib.o
                0x000000002ffeef4c                stm32mp1_calib_set_wakeup
 .text.stm32mp1_calib_it_handler
                0x000000002ffeef58       0x88 /home/lodge/STM32MP157/tf-a/tf-a-stm32mp/../build/trusted/bl32/stm32mp1_calib.o
                0x000000002ffeef58                stm32mp1_calib_it_handler
 .text.stm32mp1_calib_start_hsi_cal
                0x000000002ffeefe0       0x1c /home/lodge/STM32MP157/tf-a/tf-a-stm32mp/../build/trusted/bl32/stm32mp1_calib.o
                0x000000002ffeefe0                stm32mp1_calib_start_hsi_cal
 .text.stm32mp1_calib_start_csi_cal
                0x000000002ffeeffc       0x1c /home/lodge/STM32MP157/tf-a/tf-a-stm32mp/../build/trusted/bl32/stm32mp1_calib.o
                0x000000002ffeeffc                stm32mp1_calib_start_csi_cal
 .text.stm32mp1_calib_init
                0x000000002ffef018       0xcc /home/lodge/STM32MP157/tf-a/tf-a-stm32mp/../build/trusted/bl32/stm32mp1_calib.o
                0x000000002ffef018                stm32mp1_calib_init
 .text.etzpc_configure_decprot
                0x000000002ffef0e4       0x40 /home/lodge/STM32MP157/tf-a/tf-a-stm32mp/../build/trusted/bl32/etzpc.o
                0x000000002ffef0e4                etzpc_configure_decprot
 .text.etzpc_get_decprot
                0x000000002ffef124       0x34 /home/lodge/STM32MP157/tf-a/tf-a-stm32mp/../build/trusted/bl32/etzpc.o
                0x000000002ffef124                etzpc_get_decprot
 .text.etzpc_lock_decprot
                0x000000002ffef158       0x30 /home/lodge/STM32MP157/tf-a/tf-a-stm32mp/../build/trusted/bl32/etzpc.o
                0x000000002ffef158                etzpc_lock_decprot
 .text.etzpc_configure_tzma
                0x000000002ffef188       0x24 /home/lodge/STM32MP157/tf-a/tf-a-stm32mp/../build/trusted/bl32/etzpc.o
                0x000000002ffef188                etzpc_configure_tzma
 .text.etzpc_init
                0x000000002ffef1ac       0xf4 /home/lodge/STM32MP157/tf-a/tf-a-stm32mp/../build/trusted/bl32/etzpc.o
                0x000000002ffef1ac                etzpc_init
 .text.stm32_rng_read
                0x000000002ffef2a0       0xe0 /home/lodge/STM32MP157/tf-a/tf-a-stm32mp/../build/trusted/bl32/stm32_rng.o
                0x000000002ffef2a0                stm32_rng_read
 .text.stm32_rng_init
                0x000000002ffef380       0x9c /home/lodge/STM32MP157/tf-a/tf-a-stm32mp/../build/trusted/bl32/stm32_rng.o
                0x000000002ffef380                stm32_rng_init
 .text.stm32_rtc_read_calendar
                0x000000002ffef41c       0x30 /home/lodge/STM32MP157/tf-a/tf-a-stm32mp/../build/trusted/bl32/stm32_rtc.o
 .text.stm32_is_a_leap_year
                0x000000002ffef44c       0x2c /home/lodge/STM32MP157/tf-a/tf-a-stm32mp/../build/trusted/bl32/stm32_rtc.o
 .text.stm32_rtc_get_date
                0x000000002ffef478       0x50 /home/lodge/STM32MP157/tf-a/tf-a-stm32mp/../build/trusted/bl32/stm32_rtc.o
 .text.stm32_rtc_get_time
                0x000000002ffef4c8       0x50 /home/lodge/STM32MP157/tf-a/tf-a-stm32mp/../build/trusted/bl32/stm32_rtc.o
 .text.stm32_rtc_get_second_fraction.isra.0
                0x000000002ffef518       0x20 /home/lodge/STM32MP157/tf-a/tf-a-stm32mp/../build/trusted/bl32/stm32_rtc.o
 .text.stm32_rtc_regs_lock
                0x000000002ffef538       0x18 /home/lodge/STM32MP157/tf-a/tf-a-stm32mp/../build/trusted/bl32/stm32_rtc.o
                0x000000002ffef538                stm32_rtc_regs_lock
 .text.stm32_rtc_regs_unlock
                0x000000002ffef550       0x18 /home/lodge/STM32MP157/tf-a/tf-a-stm32mp/../build/trusted/bl32/stm32_rtc.o
                0x000000002ffef550                stm32_rtc_regs_unlock
 .text.stm32_rtc_get_calendar
                0x000000002ffef568       0x40 /home/lodge/STM32MP157/tf-a/tf-a-stm32mp/../build/trusted/bl32/stm32_rtc.o
                0x000000002ffef568                stm32_rtc_get_calendar
 .text.stm32_rtc_diff_calendar
                0x000000002ffef5a8      0x1a8 /home/lodge/STM32MP157/tf-a/tf-a-stm32mp/../build/trusted/bl32/stm32_rtc.o
                0x000000002ffef5a8                stm32_rtc_diff_calendar
 .text.stm32_rtc_get_timestamp
                0x000000002ffef750       0x70 /home/lodge/STM32MP157/tf-a/tf-a-stm32mp/../build/trusted/bl32/stm32_rtc.o
                0x000000002ffef750                stm32_rtc_get_timestamp
 .text.stm32_rtc_set_tamper_timestamp
                0x000000002ffef7c0       0x48 /home/lodge/STM32MP157/tf-a/tf-a-stm32mp/../build/trusted/bl32/stm32_rtc.o
                0x000000002ffef7c0                stm32_rtc_set_tamper_timestamp
 .text.stm32_rtc_is_timestamp_enable
                0x000000002ffef808       0x20 /home/lodge/STM32MP157/tf-a/tf-a-stm32mp/../build/trusted/bl32/stm32_rtc.o
                0x000000002ffef808                stm32_rtc_is_timestamp_enable
 .text.stm32_rtc_init
                0x000000002ffef828       0x34 /home/lodge/STM32MP157/tf-a/tf-a-stm32mp/../build/trusted/bl32/stm32_rtc.o
                0x000000002ffef828                stm32_rtc_init
 .text.stm32_tamp_configure_internal
                0x000000002ffef85c       0x58 /home/lodge/STM32MP157/tf-a/tf-a-stm32mp/../build/trusted/bl32/stm32_tamp.o
                0x000000002ffef85c                stm32_tamp_configure_internal
 .text.stm32_tamp_configure_external
                0x000000002ffef8b4      0x104 /home/lodge/STM32MP157/tf-a/tf-a-stm32mp/../build/trusted/bl32/stm32_tamp.o
                0x000000002ffef8b4                stm32_tamp_configure_external
 .text.stm32_tamp_it_handler
                0x000000002ffef9b8       0xd8 /home/lodge/STM32MP157/tf-a/tf-a-stm32mp/../build/trusted/bl32/stm32_tamp.o
                0x000000002ffef9b8                stm32_tamp_it_handler
 .text.stm32_tamp_init
                0x000000002ffefa90      0x10c /home/lodge/STM32MP157/tf-a/tf-a-stm32mp/../build/trusted/bl32/stm32_tamp.o
                0x000000002ffefa90                stm32_tamp_init
 .text.stm32_timer_config
                0x000000002ffefb9c       0x7c /home/lodge/STM32MP157/tf-a/tf-a-stm32mp/../build/trusted/bl32/stm32_timer.o
 .text.stm32_timer_start_capture
                0x000000002ffefc18       0x80 /home/lodge/STM32MP157/tf-a/tf-a-stm32mp/../build/trusted/bl32/stm32_timer.o
 .text.stm32_timer_hsi_freq
                0x000000002ffefc98       0x24 /home/lodge/STM32MP157/tf-a/tf-a-stm32mp/../build/trusted/bl32/stm32_timer.o
                0x000000002ffefc98                stm32_timer_hsi_freq
 .text.stm32_timer_csi_freq
                0x000000002ffefcbc       0x28 /home/lodge/STM32MP157/tf-a/tf-a-stm32mp/../build/trusted/bl32/stm32_timer.o
                0x000000002ffefcbc                stm32_timer_csi_freq
 .text.stm32_timer_freq_func
                0x000000002ffefce4       0x34 /home/lodge/STM32MP157/tf-a/tf-a-stm32mp/../build/trusted/bl32/stm32_timer.o
                0x000000002ffefce4                stm32_timer_freq_func
 .text.stm32_timer_init
                0x000000002ffefd18       0xe0 /home/lodge/STM32MP157/tf-a/tf-a-stm32mp/../build/trusted/bl32/stm32_timer.o
                0x000000002ffefd18                stm32_timer_init
 .text.stm32mp1_tamper_action
                0x000000002ffefdf8       0x20 /home/lodge/STM32MP157/tf-a/tf-a-stm32mp/../build/trusted/bl32/sp_min_setup.o
 .text.sp_min_plat_fiq_handler
                0x000000002ffefe18       0xd0 /home/lodge/STM32MP157/tf-a/tf-a-stm32mp/../build/trusted/bl32/sp_min_setup.o
                0x000000002ffefe18                sp_min_plat_fiq_handler
 .text.sp_min_plat_get_bl33_ep_info
                0x000000002ffefee8       0x68 /home/lodge/STM32MP157/tf-a/tf-a-stm32mp/../build/trusted/bl32/sp_min_setup.o
                0x000000002ffefee8                sp_min_plat_get_bl33_ep_info
 .text.sp_min_early_platform_setup2
                0x000000002ffeff50      0x124 /home/lodge/STM32MP157/tf-a/tf-a-stm32mp/../build/trusted/bl32/sp_min_setup.o
                0x000000002ffeff50                sp_min_early_platform_setup2
 .text.sp_min_platform_setup
                0x000000002fff0074       0xa4 /home/lodge/STM32MP157/tf-a/tf-a-stm32mp/../build/trusted/bl32/sp_min_setup.o
                0x000000002fff0074                sp_min_platform_setup
 .text.sp_min_plat_arch_setup
                0x000000002fff0118        0x2 /home/lodge/STM32MP157/tf-a/tf-a-stm32mp/../build/trusted/bl32/sp_min_setup.o
                0x000000002fff0118                sp_min_plat_arch_setup
 *fill*         0x000000002fff011a        0x2 
 .text.stm32_apply_pmic_suspend_config
                0x000000002fff011c       0x44 /home/lodge/STM32MP157/tf-a/tf-a-stm32mp/../build/trusted/bl32/stm32mp1_low_power.o
                0x000000002fff011c                stm32_apply_pmic_suspend_config
 .text.stm32_exit_cstop
                0x000000002fff0160       0x98 /home/lodge/STM32MP157/tf-a/tf-a-stm32mp/../build/trusted/bl32/stm32mp1_low_power.o
                0x000000002fff0160                stm32_exit_cstop
 .text.stm32_pwr_down_wfi
                0x000000002fff01f8       0x38 /home/lodge/STM32MP157/tf-a/tf-a-stm32mp/../build/trusted/bl32/stm32mp1_low_power.o
                0x000000002fff01f8                stm32_pwr_down_wfi
 .text.stm32_enter_low_power
                0x000000002fff0230      0x194 /home/lodge/STM32MP157/tf-a/tf-a-stm32mp/../build/trusted/bl32/stm32mp1_low_power.o
                0x000000002fff0230                stm32_enter_low_power
 .text.stm32_pwr_domain_off
                0x000000002fff03c4        0x2 /home/lodge/STM32MP157/tf-a/tf-a-stm32mp/../build/trusted/bl32/stm32mp1_pm.o
 .text.stm32_validate_power_state
                0x000000002fff03c6       0x1c /home/lodge/STM32MP157/tf-a/tf-a-stm32mp/../build/trusted/bl32/stm32mp1_pm.o
 *fill*         0x000000002fff03e2        0x2 
 .text.stm32_validate_ns_entrypoint
                0x000000002fff03e4       0x18 /home/lodge/STM32MP157/tf-a/tf-a-stm32mp/../build/trusted/bl32/stm32mp1_pm.o
 .text.stm32_node_hw_state
                0x000000002fff03fc        0xc /home/lodge/STM32MP157/tf-a/tf-a-stm32mp/../build/trusted/bl32/stm32mp1_pm.o
 .text.stm32_get_sys_suspend_power_state
                0x000000002fff0408        0x8 /home/lodge/STM32MP157/tf-a/tf-a-stm32mp/../build/trusted/bl32/stm32mp1_pm.o
 .text.stm32_system_reset
                0x000000002fff0410       0x14 /home/lodge/STM32MP157/tf-a/tf-a-stm32mp/../build/trusted/bl32/stm32mp1_pm.o
 .text.stm32_pwr_domain_suspend
                0x000000002fff0424       0x18 /home/lodge/STM32MP157/tf-a/tf-a-stm32mp/../build/trusted/bl32/stm32mp1_pm.o
 .text.stm32_system_off
                0x000000002fff043c       0x3c /home/lodge/STM32MP157/tf-a/tf-a-stm32mp/../build/trusted/bl32/stm32mp1_pm.o
 .text.stm32_pwr_domain_pwr_down_wfi
                0x000000002fff0478       0x3c /home/lodge/STM32MP157/tf-a/tf-a-stm32mp/../build/trusted/bl32/stm32mp1_pm.o
 .text.stm32_pwr_domain_on_finish
                0x000000002fff04b4       0x14 /home/lodge/STM32MP157/tf-a/tf-a-stm32mp/../build/trusted/bl32/stm32mp1_pm.o
 .text.stm32_pwr_domain_on
                0x000000002fff04c8       0x84 /home/lodge/STM32MP157/tf-a/tf-a-stm32mp/../build/trusted/bl32/stm32mp1_pm.o
 .text.stm32_cpu_standby
                0x000000002fff054c       0x3c /home/lodge/STM32MP157/tf-a/tf-a-stm32mp/../build/trusted/bl32/stm32mp1_pm.o
 .text.stm32_pwr_domain_suspend_finish
                0x000000002fff0588        0x2 /home/lodge/STM32MP157/tf-a/tf-a-stm32mp/../build/trusted/bl32/stm32mp1_pm.o
 *fill*         0x000000002fff058a        0x2 
 .text.plat_setup_psci_ops
                0x000000002fff058c       0x14 /home/lodge/STM32MP157/tf-a/tf-a-stm32mp/../build/trusted/bl32/stm32mp1_pm.o
                0x000000002fff058c                plat_setup_psci_ops
 .text.stm32mp1_init_lp_states
                0x000000002fff05a0       0xdc /home/lodge/STM32MP157/tf-a/tf-a-stm32mp/../build/trusted/bl32/stm32mp1_power_config.o
                0x000000002fff05a0                stm32mp1_init_lp_states
 .text.stm32mp1_set_pm_domain_state
                0x000000002fff067c       0x14 /home/lodge/STM32MP157/tf-a/tf-a-stm32mp/../build/trusted/bl32/stm32mp1_power_config.o
                0x000000002fff067c                stm32mp1_set_pm_domain_state
 .text.stm32mp1_get_lp_soc_mode
                0x000000002fff0690       0x58 /home/lodge/STM32MP157/tf-a/tf-a-stm32mp/../build/trusted/bl32/stm32mp1_power_config.o
                0x000000002fff0690                stm32mp1_get_lp_soc_mode
 .text.decprot2str
                0x000000002fff06e8       0x38 /home/lodge/STM32MP157/tf-a/tf-a-stm32mp/../build/trusted/bl32/stm32mp1_shared_resources.o
 .text.check_decprot
                0x000000002fff0720       0x54 /home/lodge/STM32MP157/tf-a/tf-a-stm32mp/../build/trusted/bl32/stm32mp1_shared_resources.o
 .text.get_gpioz_nbpin
                0x000000002fff0774       0x30 /home/lodge/STM32MP157/tf-a/tf-a-stm32mp/../build/trusted/bl32/stm32mp1_shared_resources.o
 .text.register_periph
                0x000000002fff07a4       0xb0 /home/lodge/STM32MP157/tf-a/tf-a-stm32mp/../build/trusted/bl32/stm32mp1_shared_resources.o
 .text.register_periph_iomem
                0x000000002fff0854      0x128 /home/lodge/STM32MP157/tf-a/tf-a-stm32mp/../build/trusted/bl32/stm32mp1_shared_resources.o
 .text.stm32mp_register_secure_periph
                0x000000002fff097c        0x6 /home/lodge/STM32MP157/tf-a/tf-a-stm32mp/../build/trusted/bl32/stm32mp1_shared_resources.o
                0x000000002fff097c                stm32mp_register_secure_periph
 .text.stm32mp_register_secure_periph_iomem
                0x000000002fff0982        0x6 /home/lodge/STM32MP157/tf-a/tf-a-stm32mp/../build/trusted/bl32/stm32mp1_shared_resources.o
                0x000000002fff0982                stm32mp_register_secure_periph_iomem
 .text.stm32mp_register_non_secure_periph_iomem
                0x000000002fff0988        0x6 /home/lodge/STM32MP157/tf-a/tf-a-stm32mp/../build/trusted/bl32/stm32mp1_shared_resources.o
                0x000000002fff0988                stm32mp_register_non_secure_periph_iomem
 *fill*         0x000000002fff098e        0x2 
 .text.stm32mp_register_secure_gpio
                0x000000002fff0990       0x28 /home/lodge/STM32MP157/tf-a/tf-a-stm32mp/../build/trusted/bl32/stm32mp1_shared_resources.o
                0x000000002fff0990                stm32mp_register_secure_gpio
 .text.stm32mp_register_non_secure_gpio
                0x000000002fff09b8       0x10 /home/lodge/STM32MP157/tf-a/tf-a-stm32mp/../build/trusted/bl32/stm32mp1_shared_resources.o
                0x000000002fff09b8                stm32mp_register_non_secure_gpio
 .text.stm32mp1_register_etzpc_decprot
                0x000000002fff09c8       0x64 /home/lodge/STM32MP157/tf-a/tf-a-stm32mp/../build/trusted/bl32/stm32mp1_shared_resources.o
                0x000000002fff09c8                stm32mp1_register_etzpc_decprot
 .text.stm32mp1_periph_is_secure
                0x000000002fff0a2c       0x1c /home/lodge/STM32MP157/tf-a/tf-a-stm32mp/../build/trusted/bl32/stm32mp1_shared_resources.o
                0x000000002fff0a2c                stm32mp1_periph_is_secure
 .text.stm32mp_gpio_bank_is_non_secure.part.0
                0x000000002fff0a48       0x2a /home/lodge/STM32MP157/tf-a/tf-a-stm32mp/../build/trusted/bl32/stm32mp1_shared_resources.o
 *fill*         0x000000002fff0a72        0x2 
 .text.stm32mp_gpio_bank_is_non_secure
                0x000000002fff0a74       0x18 /home/lodge/STM32MP157/tf-a/tf-a-stm32mp/../build/trusted/bl32/stm32mp1_shared_resources.o
                0x000000002fff0a74                stm32mp_gpio_bank_is_non_secure
 .text.stm32mp_nsec_can_access_clock
                0x000000002fff0a8c       0xc0 /home/lodge/STM32MP157/tf-a/tf-a-stm32mp/../build/trusted/bl32/stm32mp1_shared_resources.o
                0x000000002fff0a8c                stm32mp_nsec_can_access_clock
 .text.stm32mp_nsec_can_access_reset
                0x000000002fff0b4c       0xb4 /home/lodge/STM32MP157/tf-a/tf-a-stm32mp/../build/trusted/bl32/stm32mp1_shared_resources.o
                0x000000002fff0b4c                stm32mp_nsec_can_access_reset
 .text.stm32mp_lock_periph_registering
                0x000000002fff0c00      0x1f4 /home/lodge/STM32MP157/tf-a/tf-a-stm32mp/../build/trusted/bl32/stm32mp1_shared_resources.o
                0x000000002fff0c00                stm32mp_lock_periph_registering
 .text.plat_get_power_domain_tree_desc
                0x000000002fff0df4        0x8 /home/lodge/STM32MP157/tf-a/tf-a-stm32mp/../build/trusted/bl32/stm32mp1_topology.o
                0x000000002fff0df4                plat_get_power_domain_tree_desc
 .text.plat_core_pos_by_mpidr
                0x000000002fff0dfc       0x22 /home/lodge/STM32MP157/tf-a/tf-a-stm32mp/../build/trusted/bl32/stm32mp1_topology.o
                0x000000002fff0dfc                plat_core_pos_by_mpidr
 .text.gicd_read_igroupr
                0x000000002fff0e1e        0xa /home/lodge/STM32MP157/tf-a/tf-a-stm32mp/../build/trusted/bl32/gic_common.o
                0x000000002fff0e1e                gicd_read_igroupr
 .text.gicd_read_icfgr
                0x000000002fff0e28        0xc /home/lodge/STM32MP157/tf-a/tf-a-stm32mp/../build/trusted/bl32/gic_common.o
                0x000000002fff0e28                gicd_read_icfgr
 .text.gicd_write_igroupr
                0x000000002fff0e34        0xa /home/lodge/STM32MP157/tf-a/tf-a-stm32mp/../build/trusted/bl32/gic_common.o
                0x000000002fff0e34                gicd_write_igroupr
 .text.gicd_write_isenabler
                0x000000002fff0e3e        0xc /home/lodge/STM32MP157/tf-a/tf-a-stm32mp/../build/trusted/bl32/gic_common.o
                0x000000002fff0e3e                gicd_write_isenabler
 .text.gicd_write_icenabler
                0x000000002fff0e4a        0xc /home/lodge/STM32MP157/tf-a/tf-a-stm32mp/../build/trusted/bl32/gic_common.o
                0x000000002fff0e4a                gicd_write_icenabler
 .text.gicd_write_ipriorityr
                0x000000002fff0e56        0xc /home/lodge/STM32MP157/tf-a/tf-a-stm32mp/../build/trusted/bl32/gic_common.o
                0x000000002fff0e56                gicd_write_ipriorityr
 .text.gicd_write_icfgr
                0x000000002fff0e62        0xc /home/lodge/STM32MP157/tf-a/tf-a-stm32mp/../build/trusted/bl32/gic_common.o
                0x000000002fff0e62                gicd_write_icfgr
 .text.gicd_set_igroupr
                0x000000002fff0e6e       0x20 /home/lodge/STM32MP157/tf-a/tf-a-stm32mp/../build/trusted/bl32/gic_common.o
                0x000000002fff0e6e                gicd_set_igroupr
 .text.gicd_clr_igroupr
                0x000000002fff0e8e       0x22 /home/lodge/STM32MP157/tf-a/tf-a-stm32mp/../build/trusted/bl32/gic_common.o
                0x000000002fff0e8e                gicd_clr_igroupr
 .text.gicd_set_isenabler
                0x000000002fff0eb0        0xc /home/lodge/STM32MP157/tf-a/tf-a-stm32mp/../build/trusted/bl32/gic_common.o
                0x000000002fff0eb0                gicd_set_isenabler
 .text.gicd_set_icenabler
                0x000000002fff0ebc        0xc /home/lodge/STM32MP157/tf-a/tf-a-stm32mp/../build/trusted/bl32/gic_common.o
                0x000000002fff0ebc                gicd_set_icenabler
 .text.gicd_set_ipriorityr
                0x000000002fff0ec8        0xa /home/lodge/STM32MP157/tf-a/tf-a-stm32mp/../build/trusted/bl32/gic_common.o
                0x000000002fff0ec8                gicd_set_ipriorityr
 .text.gicd_set_icfgr
                0x000000002fff0ed2       0x2c /home/lodge/STM32MP157/tf-a/tf-a-stm32mp/../build/trusted/bl32/gic_common.o
                0x000000002fff0ed2                gicd_set_icfgr
 .text.gicv2_get_cpuif_id
                0x000000002fff0efe        0x8 /home/lodge/STM32MP157/tf-a/tf-a-stm32mp/../build/trusted/bl32/gicv2_helpers.o
                0x000000002fff0efe                gicv2_get_cpuif_id
 .text.gicv2_spis_configure_defaults
                0x000000002fff0f06       0x50 /home/lodge/STM32MP157/tf-a/tf-a-stm32mp/../build/trusted/bl32/gicv2_helpers.o
                0x000000002fff0f06                gicv2_spis_configure_defaults
 *fill*         0x000000002fff0f56        0x2 
 .text.gicv2_secure_spis_configure_props
                0x000000002fff0f58       0x94 /home/lodge/STM32MP157/tf-a/tf-a-stm32mp/../build/trusted/bl32/gicv2_helpers.o
                0x000000002fff0f58                gicv2_secure_spis_configure_props
 .text.gicv2_secure_ppi_sgi_setup_props
                0x000000002fff0fec       0xb4 /home/lodge/STM32MP157/tf-a/tf-a-stm32mp/../build/trusted/bl32/gicv2_helpers.o
                0x000000002fff0fec                gicv2_secure_ppi_sgi_setup_props
 .text.gicv2_cpuif_enable
                0x000000002fff10a0       0x2c /home/lodge/STM32MP157/tf-a/tf-a-stm32mp/../build/trusted/bl32/gicv2_main.o
                0x000000002fff10a0                gicv2_cpuif_enable
 .text.gicv2_pcpu_distif_init
                0x000000002fff10cc       0x3c /home/lodge/STM32MP157/tf-a/tf-a-stm32mp/../build/trusted/bl32/gicv2_main.o
                0x000000002fff10cc                gicv2_pcpu_distif_init
 .text.gicv2_distif_init
                0x000000002fff1108       0x44 /home/lodge/STM32MP157/tf-a/tf-a-stm32mp/../build/trusted/bl32/gicv2_main.o
                0x000000002fff1108                gicv2_distif_init
 .text.gicv2_driver_init
                0x000000002fff114c       0x64 /home/lodge/STM32MP157/tf-a/tf-a-stm32mp/../build/trusted/bl32/gicv2_main.o
                0x000000002fff114c                gicv2_driver_init
 .text.gicv2_get_pending_interrupt_id
                0x000000002fff11b0       0x38 /home/lodge/STM32MP157/tf-a/tf-a-stm32mp/../build/trusted/bl32/gicv2_main.o
                0x000000002fff11b0                gicv2_get_pending_interrupt_id
 .text.gicv2_acknowledge_interrupt
                0x000000002fff11e8       0x24 /home/lodge/STM32MP157/tf-a/tf-a-stm32mp/../build/trusted/bl32/gicv2_main.o
                0x000000002fff11e8                gicv2_acknowledge_interrupt
 .text.gicv2_end_of_interrupt
                0x000000002fff120c       0x24 /home/lodge/STM32MP157/tf-a/tf-a-stm32mp/../build/trusted/bl32/gicv2_main.o
                0x000000002fff120c                gicv2_end_of_interrupt
 .text.gicv2_set_pe_target_mask
                0x000000002fff1230       0x68 /home/lodge/STM32MP157/tf-a/tf-a-stm32mp/../build/trusted/bl32/gicv2_main.o
                0x000000002fff1230                gicv2_set_pe_target_mask
 .text.gicv2_enable_interrupt
                0x000000002fff1298       0x44 /home/lodge/STM32MP157/tf-a/tf-a-stm32mp/../build/trusted/bl32/gicv2_main.o
                0x000000002fff1298                gicv2_enable_interrupt
 .text.gicv2_disable_interrupt
                0x000000002fff12dc       0x3c /home/lodge/STM32MP157/tf-a/tf-a-stm32mp/../build/trusted/bl32/gicv2_main.o
                0x000000002fff12dc                gicv2_disable_interrupt
 .text.gicv2_set_interrupt_priority
                0x000000002fff1318       0x40 /home/lodge/STM32MP157/tf-a/tf-a-stm32mp/../build/trusted/bl32/gicv2_main.o
                0x000000002fff1318                gicv2_set_interrupt_priority
 .text.gicv2_set_interrupt_type
                0x000000002fff1358       0x6c /home/lodge/STM32MP157/tf-a/tf-a-stm32mp/../build/trusted/bl32/gicv2_main.o
                0x000000002fff1358                gicv2_set_interrupt_type
 .text.gicv2_raise_sgi
                0x000000002fff13c4       0x6c /home/lodge/STM32MP157/tf-a/tf-a-stm32mp/../build/trusted/bl32/gicv2_main.o
                0x000000002fff13c4                gicv2_raise_sgi
 .text.gicv2_set_spi_routing
                0x000000002fff1430       0x6c /home/lodge/STM32MP157/tf-a/tf-a-stm32mp/../build/trusted/bl32/gicv2_main.o
                0x000000002fff1430                gicv2_set_spi_routing
 .text.gicv2_set_pmr
                0x000000002fff149c       0x38 /home/lodge/STM32MP157/tf-a/tf-a-stm32mp/../build/trusted/bl32/gicv2_main.o
                0x000000002fff149c                gicv2_set_pmr
 .text.gicv2_interrupt_set_cfg
                0x000000002fff14d4       0x14 /home/lodge/STM32MP157/tf-a/tf-a-stm32mp/../build/trusted/bl32/gicv2_main.o
                0x000000002fff14d4                gicv2_interrupt_set_cfg
 .text.plat_ic_get_pending_interrupt_id
                0x000000002fff14e8       0x14 /home/lodge/STM32MP157/tf-a/tf-a-stm32mp/../build/trusted/bl32/plat_gicv2.o
                0x000000002fff14e8                plat_ic_get_pending_interrupt_id
 .text.plat_ic_acknowledge_interrupt
                0x000000002fff14fc        0x4 /home/lodge/STM32MP157/tf-a/tf-a-stm32mp/../build/trusted/bl32/plat_gicv2.o
                0x000000002fff14fc                plat_ic_acknowledge_interrupt
 .text.plat_ic_end_of_interrupt
                0x000000002fff1500        0x4 /home/lodge/STM32MP157/tf-a/tf-a-stm32mp/../build/trusted/bl32/plat_gicv2.o
                0x000000002fff1500                plat_ic_end_of_interrupt
 .text.plat_ic_disable_interrupt
                0x000000002fff1504        0x4 /home/lodge/STM32MP157/tf-a/tf-a-stm32mp/../build/trusted/bl32/plat_gicv2.o
                0x000000002fff1504                plat_ic_disable_interrupt
 .text.plat_ic_set_interrupt_priority
                0x000000002fff1508        0x4 /home/lodge/STM32MP157/tf-a/tf-a-stm32mp/../build/trusted/bl32/plat_gicv2.o
                0x000000002fff1508                plat_ic_set_interrupt_priority
 .text.plat_ic_set_priority_mask
                0x000000002fff150c        0x4 /home/lodge/STM32MP157/tf-a/tf-a-stm32mp/../build/trusted/bl32/plat_gicv2.o
                0x000000002fff150c                plat_ic_set_priority_mask
 .text.fdt32_to_cpu
                0x000000002fff1510        0x4 /home/lodge/STM32MP157/tf-a/tf-a-stm32mp/../build/trusted/bl32/stm32_gic.o
 .text.enable_gic_interrupt
                0x000000002fff1514       0x62 /home/lodge/STM32MP157/tf-a/tf-a-stm32mp/../build/trusted/bl32/stm32_gic.o
 .text.stm32_gic_pcpu_init
                0x000000002fff1576       0x16 /home/lodge/STM32MP157/tf-a/tf-a-stm32mp/../build/trusted/bl32/stm32_gic.o
                0x000000002fff1576                stm32_gic_pcpu_init
 .text.stm32_gic_init
                0x000000002fff158c       0x90 /home/lodge/STM32MP157/tf-a/tf-a-stm32mp/../build/trusted/bl32/stm32_gic.o
                0x000000002fff158c                stm32_gic_init
 .text.stm32_gic_enable_spi
                0x000000002fff161c      0x138 /home/lodge/STM32MP157/tf-a/tf-a-stm32mp/../build/trusted/bl32/stm32_gic.o
                0x000000002fff161c                stm32_gic_enable_spi
 .text.plat_get_target_pwr_state
                0x000000002fff1754       0x24 /home/lodge/STM32MP157/tf-a/tf-a-stm32mp/../build/trusted/bl32/plat_psci_common.o
                0x000000002fff1754                plat_get_target_pwr_state
 .text.bsec_main
                0x000000002fff1778      0x12c /home/lodge/STM32MP157/tf-a/tf-a-stm32mp/../build/trusted/bl32/bsec_svc.o
                0x000000002fff1778                bsec_main
 .text.pm_domain_scv_handler
                0x000000002fff18a4       0x18 /home/lodge/STM32MP157/tf-a/tf-a-stm32mp/../build/trusted/bl32/low_power_svc.o
                0x000000002fff18a4                pm_domain_scv_handler
 .text.pwr_scv_handler
                0x000000002fff18bc       0x94 /home/lodge/STM32MP157/tf-a/tf-a-stm32mp/../build/trusted/bl32/pwr_svc.o
                0x000000002fff18bc                pwr_scv_handler
 .text.rcc_scv_handler
                0x000000002fff1950       0x76 /home/lodge/STM32MP157/tf-a/tf-a-stm32mp/../build/trusted/bl32/rcc_svc.o
                0x000000002fff1950                rcc_scv_handler
 .text.rcc_cal_scv_handler
                0x000000002fff19c6       0x26 /home/lodge/STM32MP157/tf-a/tf-a-stm32mp/../build/trusted/bl32/rcc_svc.o
                0x000000002fff19c6                rcc_cal_scv_handler
 .text.rcc_opp_scv_handler
                0x000000002fff19ec       0x4c /home/lodge/STM32MP157/tf-a/tf-a-stm32mp/../build/trusted/bl32/rcc_svc.o
                0x000000002fff19ec                rcc_opp_scv_handler
 .text.stm32mp1_svc_setup
                0x000000002fff1a38        0x4 /home/lodge/STM32MP157/tf-a/tf-a-stm32mp/../build/trusted/bl32/stm32mp1_svc_setup.o
 .text.stm32mp1_svc_smc_handler
                0x000000002fff1a3c       0xf0 /home/lodge/STM32MP157/tf-a/tf-a-stm32mp/../build/trusted/bl32/stm32mp1_svc_setup.o
 .text.discover_list_protocols
                0x000000002fff1b2c       0x8c /home/lodge/STM32MP157/tf-a/tf-a-stm32mp/../build/trusted/bl32/base.o
 .text.discover_implementation_version
                0x000000002fff1bb8       0x24 /home/lodge/STM32MP157/tf-a/tf-a-stm32mp/../build/trusted/bl32/base.o
 .text.report_message_attributes
                0x000000002fff1bdc       0x44 /home/lodge/STM32MP157/tf-a/tf-a-stm32mp/../build/trusted/bl32/base.o
 .text.report_version
                0x000000002fff1c20       0x28 /home/lodge/STM32MP157/tf-a/tf-a-stm32mp/../build/trusted/bl32/base.o
 .text.discover_sub_vendor
                0x000000002fff1c48       0x54 /home/lodge/STM32MP157/tf-a/tf-a-stm32mp/../build/trusted/bl32/base.o
 .text.discover_vendor
                0x000000002fff1c9c       0x54 /home/lodge/STM32MP157/tf-a/tf-a-stm32mp/../build/trusted/bl32/base.o
 .text.report_attributes
                0x000000002fff1cf0       0x2e /home/lodge/STM32MP157/tf-a/tf-a-stm32mp/../build/trusted/bl32/base.o
 *fill*         0x000000002fff1d1e        0x2 
 .text.scmi_msg_get_base_handler
                0x000000002fff1d20       0x24 /home/lodge/STM32MP157/tf-a/tf-a-stm32mp/../build/trusted/bl32/base.o
                0x000000002fff1d20                scmi_msg_get_base_handler
 .text.confine_array_index
                0x000000002fff1d44        0xc /home/lodge/STM32MP157/tf-a/tf-a-stm32mp/../build/trusted/bl32/clock.o
 .text.report_message_attributes
                0x000000002fff1d50       0x44 /home/lodge/STM32MP157/tf-a/tf-a-stm32mp/../build/trusted/bl32/clock.o
 .text.report_version
                0x000000002fff1d94       0x28 /home/lodge/STM32MP157/tf-a/tf-a-stm32mp/../build/trusted/bl32/clock.o
 .text.write_rate_desc_array_in_buffer
                0x000000002fff1dbc       0x30 /home/lodge/STM32MP157/tf-a/tf-a-stm32mp/../build/trusted/bl32/clock.o
 .text.report_attributes
                0x000000002fff1dec       0x34 /home/lodge/STM32MP157/tf-a/tf-a-stm32mp/../build/trusted/bl32/clock.o
 .text.scmi_clock_describe_rates
                0x000000002fff1e20       0xfc /home/lodge/STM32MP157/tf-a/tf-a-stm32mp/../build/trusted/bl32/clock.o
 .text.scmi_clock_rate_get
                0x000000002fff1f1c       0x60 /home/lodge/STM32MP157/tf-a/tf-a-stm32mp/../build/trusted/bl32/clock.o
 .text.scmi_clock_rate_set
                0x000000002fff1f7c       0x4a /home/lodge/STM32MP157/tf-a/tf-a-stm32mp/../build/trusted/bl32/clock.o
 *fill*         0x000000002fff1fc6        0x2 
 .text.scmi_clock_attributes
                0x000000002fff1fc8       0x90 /home/lodge/STM32MP157/tf-a/tf-a-stm32mp/../build/trusted/bl32/clock.o
 .text.scmi_clock_config_set
                0x000000002fff2058       0x4e /home/lodge/STM32MP157/tf-a/tf-a-stm32mp/../build/trusted/bl32/clock.o
 *fill*         0x000000002fff20a6        0x2 
 .text.scmi_msg_get_clock_handler
                0x000000002fff20a8       0x20 /home/lodge/STM32MP157/tf-a/tf-a-stm32mp/../build/trusted/bl32/clock.o
                0x000000002fff20a8                scmi_msg_get_clock_handler
 .text.scmi_status_response
                0x000000002fff20c8       0x30 /home/lodge/STM32MP157/tf-a/tf-a-stm32mp/../build/trusted/bl32/entry.o
                0x000000002fff20c8                scmi_status_response
 .text.scmi_write_response
                0x000000002fff20f8       0x2c /home/lodge/STM32MP157/tf-a/tf-a-stm32mp/../build/trusted/bl32/entry.o
                0x000000002fff20f8                scmi_write_response
 .text.scmi_process_message
                0x000000002fff2124       0x4c /home/lodge/STM32MP157/tf-a/tf-a-stm32mp/../build/trusted/bl32/entry.o
                0x000000002fff2124                scmi_process_message
 .text.report_message_attributes
                0x000000002fff2170       0x44 /home/lodge/STM32MP157/tf-a/tf-a-stm32mp/../build/trusted/bl32/reset_domain.o
 .text.report_version
                0x000000002fff21b4       0x28 /home/lodge/STM32MP157/tf-a/tf-a-stm32mp/../build/trusted/bl32/reset_domain.o
 .text.report_attributes
                0x000000002fff21dc       0x2e /home/lodge/STM32MP157/tf-a/tf-a-stm32mp/../build/trusted/bl32/reset_domain.o
 *fill*         0x000000002fff220a        0x2 
 .text.reset_domain_attributes
                0x000000002fff220c       0x98 /home/lodge/STM32MP157/tf-a/tf-a-stm32mp/../build/trusted/bl32/reset_domain.o
 .text.reset_request
                0x000000002fff22a4       0x78 /home/lodge/STM32MP157/tf-a/tf-a-stm32mp/../build/trusted/bl32/reset_domain.o
 .text.scmi_msg_get_rd_handler
                0x000000002fff231c       0x24 /home/lodge/STM32MP157/tf-a/tf-a-stm32mp/../build/trusted/bl32/reset_domain.o
                0x000000002fff231c                scmi_msg_get_rd_handler
 .text.scmi_proccess_smt
                0x000000002fff2340       0xb0 /home/lodge/STM32MP157/tf-a/tf-a-stm32mp/../build/trusted/bl32/smt.o
 .text.scmi_smt_fastcall_smc_entry
                0x000000002fff23f0       0x20 /home/lodge/STM32MP157/tf-a/tf-a-stm32mp/../build/trusted/bl32/smt.o
                0x000000002fff23f0                scmi_smt_fastcall_smc_entry
 .text.scmi_smt_init_agent_channel
                0x000000002fff2410       0x20 /home/lodge/STM32MP157/tf-a/tf-a-stm32mp/../build/trusted/bl32/smt.o
                0x000000002fff2410                scmi_smt_init_agent_channel
 .text.find_resource.part.0
                0x000000002fff2430       0x10 /home/lodge/STM32MP157/tf-a/tf-a-stm32mp/../build/trusted/bl32/stm32mp1_scmi.o
 .text.find_clock
                0x000000002fff2440       0x34 /home/lodge/STM32MP157/tf-a/tf-a-stm32mp/../build/trusted/bl32/stm32mp1_scmi.o
 .text.find_rd  0x000000002fff2474       0x34 /home/lodge/STM32MP157/tf-a/tf-a-stm32mp/../build/trusted/bl32/stm32mp1_scmi.o
 .text.plat_scmi_get_channel
                0x000000002fff24a8       0x20 /home/lodge/STM32MP157/tf-a/tf-a-stm32mp/../build/trusted/bl32/stm32mp1_scmi.o
                0x000000002fff24a8                plat_scmi_get_channel
 .text.plat_scmi_vendor_name
                0x000000002fff24c8        0x8 /home/lodge/STM32MP157/tf-a/tf-a-stm32mp/../build/trusted/bl32/stm32mp1_scmi.o
                0x000000002fff24c8                plat_scmi_vendor_name
 .text.plat_scmi_sub_vendor_name
                0x000000002fff24d0        0x8 /home/lodge/STM32MP157/tf-a/tf-a-stm32mp/../build/trusted/bl32/stm32mp1_scmi.o
                0x000000002fff24d0                plat_scmi_sub_vendor_name
 .text.plat_scmi_protocol_count
                0x000000002fff24d8        0x4 /home/lodge/STM32MP157/tf-a/tf-a-stm32mp/../build/trusted/bl32/stm32mp1_scmi.o
                0x000000002fff24d8                plat_scmi_protocol_count
 .text.plat_scmi_protocol_list
                0x000000002fff24dc        0x8 /home/lodge/STM32MP157/tf-a/tf-a-stm32mp/../build/trusted/bl32/stm32mp1_scmi.o
                0x000000002fff24dc                plat_scmi_protocol_list
 .text.plat_scmi_clock_count
                0x000000002fff24e4       0x18 /home/lodge/STM32MP157/tf-a/tf-a-stm32mp/../build/trusted/bl32/stm32mp1_scmi.o
                0x000000002fff24e4                plat_scmi_clock_count
 .text.plat_scmi_clock_get_name
                0x000000002fff24fc       0x1c /home/lodge/STM32MP157/tf-a/tf-a-stm32mp/../build/trusted/bl32/stm32mp1_scmi.o
                0x000000002fff24fc                plat_scmi_clock_get_name
 .text.plat_scmi_clock_rates_array
                0x000000002fff2518        0x6 /home/lodge/STM32MP157/tf-a/tf-a-stm32mp/../build/trusted/bl32/stm32mp1_scmi.o
                0x000000002fff2518                plat_scmi_clock_rates_array
 .text.plat_scmi_clock_rates_by_step
                0x000000002fff251e       0x44 /home/lodge/STM32MP157/tf-a/tf-a-stm32mp/../build/trusted/bl32/stm32mp1_scmi.o
                0x000000002fff251e                plat_scmi_clock_rates_by_step
 .text.plat_scmi_clock_set_rate
                0x000000002fff2562       0x48 /home/lodge/STM32MP157/tf-a/tf-a-stm32mp/../build/trusted/bl32/stm32mp1_scmi.o
                0x000000002fff2562                plat_scmi_clock_set_rate
 .text.plat_scmi_clock_get_rate
                0x000000002fff25aa       0x20 /home/lodge/STM32MP157/tf-a/tf-a-stm32mp/../build/trusted/bl32/stm32mp1_scmi.o
                0x000000002fff25aa                plat_scmi_clock_get_rate
 .text.plat_scmi_clock_get_state
                0x000000002fff25ca       0x1c /home/lodge/STM32MP157/tf-a/tf-a-stm32mp/../build/trusted/bl32/stm32mp1_scmi.o
                0x000000002fff25ca                plat_scmi_clock_get_state
 .text.plat_scmi_clock_set_state
                0x000000002fff25e6       0x44 /home/lodge/STM32MP157/tf-a/tf-a-stm32mp/../build/trusted/bl32/stm32mp1_scmi.o
                0x000000002fff25e6                plat_scmi_clock_set_state
 .text.plat_scmi_rd_get_name
                0x000000002fff262a        0xc /home/lodge/STM32MP157/tf-a/tf-a-stm32mp/../build/trusted/bl32/stm32mp1_scmi.o
                0x000000002fff262a                plat_scmi_rd_get_name
 *fill*         0x000000002fff2636        0x2 
 .text.plat_scmi_rd_count
                0x000000002fff2638       0x18 /home/lodge/STM32MP157/tf-a/tf-a-stm32mp/../build/trusted/bl32/stm32mp1_scmi.o
                0x000000002fff2638                plat_scmi_rd_count
 .text.plat_scmi_rd_autonomous
                0x000000002fff2650       0x46 /home/lodge/STM32MP157/tf-a/tf-a-stm32mp/../build/trusted/bl32/stm32mp1_scmi.o
                0x000000002fff2650                plat_scmi_rd_autonomous
 .text.plat_scmi_rd_set_state
                0x000000002fff2696       0x36 /home/lodge/STM32MP157/tf-a/tf-a-stm32mp/../build/trusted/bl32/stm32mp1_scmi.o
                0x000000002fff2696                plat_scmi_rd_set_state
 .text.stm32mp1_init_scmi_server
                0x000000002fff26cc       0xa8 /home/lodge/STM32MP157/tf-a/tf-a-stm32mp/../build/trusted/bl32/stm32mp1_scmi.o
                0x000000002fff26cc                stm32mp1_init_scmi_server
 .text.stm32mp1_pm_save_scmi_state
                0x000000002fff2774       0x78 /home/lodge/STM32MP157/tf-a/tf-a-stm32mp/../build/trusted/bl32/stm32mp1_scmi.o
                0x000000002fff2774                stm32mp1_pm_save_scmi_state
 .text.stm32mp1_pm_restore_scmi_state
                0x000000002fff27ec       0x78 /home/lodge/STM32MP157/tf-a/tf-a-stm32mp/../build/trusted/bl32/stm32mp1_scmi.o
                0x000000002fff27ec                stm32mp1_pm_restore_scmi_state
 .text.tf_log   0x000000002fff2864       0x5c /home/lodge/STM32MP157/tf-a/tf-a-stm32mp/../build/trusted/bl32/tf_log.o
                0x000000002fff2864                tf_log
 .text.console_is_registered
                0x000000002fff28c0       0x2c /home/lodge/STM32MP157/tf-a/tf-a-stm32mp/../build/trusted/bl32/multi_console.o
                0x000000002fff28c0                console_is_registered
 .text.console_register
                0x000000002fff28ec       0x40 /home/lodge/STM32MP157/tf-a/tf-a-stm32mp/../build/trusted/bl32/multi_console.o
                0x000000002fff28ec                console_register
 .text.console_switch_state
                0x000000002fff292c        0xc /home/lodge/STM32MP157/tf-a/tf-a-stm32mp/../build/trusted/bl32/multi_console.o
                0x000000002fff292c                console_switch_state
 .text.console_set_scope
                0x000000002fff2938       0x1c /home/lodge/STM32MP157/tf-a/tf-a-stm32mp/../build/trusted/bl32/multi_console.o
                0x000000002fff2938                console_set_scope
 .text.console_putc
                0x000000002fff2954       0x58 /home/lodge/STM32MP157/tf-a/tf-a-stm32mp/../build/trusted/bl32/multi_console.o
                0x000000002fff2954                console_putc
 .text.console_flush
                0x000000002fff29ac       0x40 /home/lodge/STM32MP157/tf-a/tf-a-stm32mp/../build/trusted/bl32/multi_console.o
                0x000000002fff29ac                console_flush
 .text.plat_log_get_prefix
                0x000000002fff29ec       0x24 /home/lodge/STM32MP157/tf-a/tf-a-stm32mp/../build/trusted/bl32/plat_log_common.o
                0x000000002fff29ec                plat_log_get_prefix
 .text.bl32_plat_enable_mmu
                0x000000002fff2a10        0x4 /home/lodge/STM32MP157/tf-a/tf-a-stm32mp/../build/trusted/bl32/plat_common.o
                0x000000002fff2a10                bl32_plat_enable_mmu
 .text.__ctzdi2
                0x000000002fff2a14       0x20 /home/lodge/STM32MP157/tf-a/tf-a-stm32mp/../build/trusted/bl32/ctzdi2.o
                0x000000002fff2a14                __ctzdi2
 .text.__udivmoddi4
                0x000000002fff2a34      0x17e /home/lodge/STM32MP157/tf-a/tf-a-stm32mp/../build/trusted/bl32/udivmoddi4.o
                0x000000002fff2a34                __udivmoddi4
 .text.plat_get_syscnt_freq2
                0x000000002fff2bb2        0x6 /home/lodge/STM32MP157/tf-a/tf-a-stm32mp/../build/trusted/bl32/stm32mp_common.o
                0x000000002fff2bb2                plat_get_syscnt_freq2
 .text.stm32mp_ddrctrl_base
                0x000000002fff2bb8        0x8 /home/lodge/STM32MP157/tf-a/tf-a-stm32mp/../build/trusted/bl32/stm32mp_common.o
                0x000000002fff2bb8                stm32mp_ddrctrl_base
 .text.stm32mp_ddrphyc_base
                0x000000002fff2bc0        0x8 /home/lodge/STM32MP157/tf-a/tf-a-stm32mp/../build/trusted/bl32/stm32mp_common.o
                0x000000002fff2bc0                stm32mp_ddrphyc_base
 .text.stm32mp_pwr_base
                0x000000002fff2bc8        0x8 /home/lodge/STM32MP157/tf-a/tf-a-stm32mp/../build/trusted/bl32/stm32mp_common.o
                0x000000002fff2bc8                stm32mp_pwr_base
 .text.stm32mp_rcc_base
                0x000000002fff2bd0        0x6 /home/lodge/STM32MP157/tf-a/tf-a-stm32mp/../build/trusted/bl32/stm32mp_common.o
                0x000000002fff2bd0                stm32mp_rcc_base
 .text.stm32mp_lock_available
                0x000000002fff2bd6       0x10 /home/lodge/STM32MP157/tf-a/tf-a-stm32mp/../build/trusted/bl32/stm32mp_common.o
                0x000000002fff2bd6                stm32mp_lock_available
 *fill*         0x000000002fff2be6        0x2 
 .text.stm32mp_pwr_regs_lock
                0x000000002fff2be8       0x18 /home/lodge/STM32MP157/tf-a/tf-a-stm32mp/../build/trusted/bl32/stm32mp_common.o
                0x000000002fff2be8                stm32mp_pwr_regs_lock
 .text.stm32mp_pwr_regs_unlock
                0x000000002fff2c00       0x18 /home/lodge/STM32MP157/tf-a/tf-a-stm32mp/../build/trusted/bl32/stm32mp_common.o
                0x000000002fff2c00                stm32mp_pwr_regs_unlock
 .text.stm32_get_gpio_bank_base
                0x000000002fff2c18       0x28 /home/lodge/STM32MP157/tf-a/tf-a-stm32mp/../build/trusted/bl32/stm32mp_common.o
                0x000000002fff2c18                stm32_get_gpio_bank_base
 .text.stm32_get_gpio_bank_offset
                0x000000002fff2c40       0x20 /home/lodge/STM32MP157/tf-a/tf-a-stm32mp/../build/trusted/bl32/stm32mp_common.o
                0x000000002fff2c40                stm32_get_gpio_bank_offset
 .text.stm32mp_get_cpu_supply_name
                0x000000002fff2c60       0x2e /home/lodge/STM32MP157/tf-a/tf-a-stm32mp/../build/trusted/bl32/stm32mp_common.o
                0x000000002fff2c60                stm32mp_get_cpu_supply_name
 *fill*         0x000000002fff2c8e        0x2 
 .text.configure_mmu
                0x000000002fff2c90       0x1c /home/lodge/STM32MP157/tf-a/tf-a-stm32mp/../build/trusted/bl32/stm32mp1_private.o
                0x000000002fff2c90                configure_mmu
 .text.stm32mp_mask_timer
                0x000000002fff2cac       0x1a /home/lodge/STM32MP157/tf-a/tf-a-stm32mp/../build/trusted/bl32/stm32mp1_private.o
                0x000000002fff2cac                stm32mp_mask_timer
 .text.stm32mp_wait_cpu_reset
                0x000000002fff2cc6       0x42 /home/lodge/STM32MP157/tf-a/tf-a-stm32mp/../build/trusted/bl32/stm32mp1_private.o
                0x000000002fff2cc6                stm32mp_wait_cpu_reset
 .text.stm32_get_gpio_bank_clock
                0x000000002fff2d08       0x20 /home/lodge/STM32MP157/tf-a/tf-a-stm32mp/../build/trusted/bl32/stm32mp1_private.o
                0x000000002fff2d08                stm32_get_gpio_bank_clock
 .text.stm32_get_otp_index
                0x000000002fff2d28       0x28 /home/lodge/STM32MP157/tf-a/tf-a-stm32mp/../build/trusted/bl32/stm32mp1_private.o
                0x000000002fff2d28                stm32_get_otp_index
 .text.stm32_get_otp_value_from_idx
                0x000000002fff2d50       0x30 /home/lodge/STM32MP157/tf-a/tf-a-stm32mp/../build/trusted/bl32/stm32mp1_private.o
                0x000000002fff2d50                stm32_get_otp_value_from_idx
 .text.stm32_get_otp_value
                0x000000002fff2d80       0x48 /home/lodge/STM32MP157/tf-a/tf-a-stm32mp/../build/trusted/bl32/stm32mp1_private.o
                0x000000002fff2d80                stm32_get_otp_value
 .text.get_part_number
                0x000000002fff2dc8       0x4c /home/lodge/STM32MP157/tf-a/tf-a-stm32mp/../build/trusted/bl32/stm32mp1_private.o
 .text.stm32mp_supports_cpu_opp
                0x000000002fff2e14       0x40 /home/lodge/STM32MP157/tf-a/tf-a-stm32mp/../build/trusted/bl32/stm32mp1_private.o
                0x000000002fff2e14                stm32mp_supports_cpu_opp
 .text.stm32mp_is_single_core
                0x000000002fff2e54       0x2c /home/lodge/STM32MP157/tf-a/tf-a-stm32mp/../build/trusted/bl32/stm32mp1_private.o
                0x000000002fff2e54                stm32mp_is_single_core
 .text.stm32mp_plat_reset
                0x000000002fff2e80       0xac /home/lodge/STM32MP157/tf-a/tf-a-stm32mp/../build/trusted/bl32/stm32mp1_private.o
                0x000000002fff2e80                stm32mp_plat_reset
 .text.stm32_iwdg_get_instance
                0x000000002fff2f2c       0x28 /home/lodge/STM32MP157/tf-a/tf-a-stm32mp/../build/trusted/bl32/stm32mp1_private.o
                0x000000002fff2f2c                stm32_iwdg_get_instance
 .text.stm32_iwdg_get_otp_config
                0x000000002fff2f54       0x54 /home/lodge/STM32MP157/tf-a/tf-a-stm32mp/../build/trusted/bl32/stm32mp1_private.o
                0x000000002fff2f54                stm32_iwdg_get_otp_config
 .text.stm32mp_etzpc_binding2decprot
                0x000000002fff2fa8       0x10 /home/lodge/STM32MP157/tf-a/tf-a-stm32mp/../build/trusted/bl32/stm32mp1_private.o
                0x000000002fff2fa8                stm32mp_etzpc_binding2decprot
 .text.xlat_arch_get_max_supported_pa
                0x000000002fff2fb8        0x8 /home/lodge/STM32MP157/tf-a/tf-a-stm32mp/../build/trusted/bl32/xlat_tables_arch.o
                0x000000002fff2fb8                xlat_arch_get_max_supported_pa
 .text.xlat_get_min_virt_addr_space_size
                0x000000002fff2fc0        0x6 /home/lodge/STM32MP157/tf-a/tf-a-stm32mp/../build/trusted/bl32/xlat_tables_arch.o
                0x000000002fff2fc0                xlat_get_min_virt_addr_space_size
 .text.is_dcache_enabled
                0x000000002fff2fc6       0x1c /home/lodge/STM32MP157/tf-a/tf-a-stm32mp/../build/trusted/bl32/xlat_tables_arch.o
                0x000000002fff2fc6                is_dcache_enabled
 *fill*         0x000000002fff2fe2        0x2 
 .text.xlat_arch_regime_get_xn_desc
                0x000000002fff2fe4       0x28 /home/lodge/STM32MP157/tf-a/tf-a-stm32mp/../build/trusted/bl32/xlat_tables_arch.o
                0x000000002fff2fe4                xlat_arch_regime_get_xn_desc
 .text.xlat_arch_tlbi_va
                0x000000002fff300c       0x30 /home/lodge/STM32MP157/tf-a/tf-a-stm32mp/../build/trusted/bl32/xlat_tables_arch.o
                0x000000002fff300c                xlat_arch_tlbi_va
 .text.xlat_arch_tlbi_va_sync
                0x000000002fff303c       0x10 /home/lodge/STM32MP157/tf-a/tf-a-stm32mp/../build/trusted/bl32/xlat_tables_arch.o
                0x000000002fff303c                xlat_arch_tlbi_va_sync
 .text.xlat_arch_current_el
                0x000000002fff304c       0x3c /home/lodge/STM32MP157/tf-a/tf-a-stm32mp/../build/trusted/bl32/xlat_tables_arch.o
                0x000000002fff304c                xlat_arch_current_el
 .text.is_mmu_enabled_ctx
                0x000000002fff3088       0x40 /home/lodge/STM32MP157/tf-a/tf-a-stm32mp/../build/trusted/bl32/xlat_tables_arch.o
                0x000000002fff3088                is_mmu_enabled_ctx
 .text.setup_mmu_cfg
                0x000000002fff30c8       0xac /home/lodge/STM32MP157/tf-a/tf-a-stm32mp/../build/trusted/bl32/xlat_tables_arch.o
                0x000000002fff30c8                setup_mmu_cfg
 .text.mmap_add_region
                0x000000002fff3174       0x28 /home/lodge/STM32MP157/tf-a/tf-a-stm32mp/../build/trusted/bl32/xlat_tables_context.o
                0x000000002fff3174                mmap_add_region
 .text.mmap_add
                0x000000002fff319c        0xc /home/lodge/STM32MP157/tf-a/tf-a-stm32mp/../build/trusted/bl32/xlat_tables_context.o
                0x000000002fff319c                mmap_add
 .text.mmap_add_dynamic_region
                0x000000002fff31a8       0x28 /home/lodge/STM32MP157/tf-a/tf-a-stm32mp/../build/trusted/bl32/xlat_tables_context.o
                0x000000002fff31a8                mmap_add_dynamic_region
 .text.mmap_remove_dynamic_region
                0x000000002fff31d0       0x10 /home/lodge/STM32MP157/tf-a/tf-a-stm32mp/../build/trusted/bl32/xlat_tables_context.o
                0x000000002fff31d0                mmap_remove_dynamic_region
 .text.init_xlat_tables
                0x000000002fff31e0       0x3c /home/lodge/STM32MP157/tf-a/tf-a-stm32mp/../build/trusted/bl32/xlat_tables_context.o
                0x000000002fff31e0                init_xlat_tables
 .text.enable_mmu_svc_mon
                0x000000002fff321c       0x34 /home/lodge/STM32MP157/tf-a/tf-a-stm32mp/../build/trusted/bl32/xlat_tables_context.o
                0x000000002fff321c                enable_mmu_svc_mon
 .text.mmap_add_region_check
                0x000000002fff3250      0x12e /home/lodge/STM32MP157/tf-a/tf-a-stm32mp/../build/trusted/bl32/xlat_tables_core.o
 .text.xlat_clean_dcache_range
                0x000000002fff337e       0x1a /home/lodge/STM32MP157/tf-a/tf-a-stm32mp/../build/trusted/bl32/xlat_tables_core.o
 .text.xlat_table_get_index
                0x000000002fff3398       0x28 /home/lodge/STM32MP157/tf-a/tf-a-stm32mp/../build/trusted/bl32/xlat_tables_core.o
 .text.xlat_tables_unmap_region
                0x000000002fff33c0      0x13c /home/lodge/STM32MP157/tf-a/tf-a-stm32mp/../build/trusted/bl32/xlat_tables_core.o
 .text.xlat_desc
                0x000000002fff34fc       0xa4 /home/lodge/STM32MP157/tf-a/tf-a-stm32mp/../build/trusted/bl32/xlat_tables_core.o
                0x000000002fff34fc                xlat_desc
 .text.xlat_tables_map_region
                0x000000002fff35a0      0x1a8 /home/lodge/STM32MP157/tf-a/tf-a-stm32mp/../build/trusted/bl32/xlat_tables_core.o
 .text.mmap_add_region_ctx
                0x000000002fff3748       0xe4 /home/lodge/STM32MP157/tf-a/tf-a-stm32mp/../build/trusted/bl32/xlat_tables_core.o
                0x000000002fff3748                mmap_add_region_ctx
 .text.mmap_add_ctx
                0x000000002fff382c       0x18 /home/lodge/STM32MP157/tf-a/tf-a-stm32mp/../build/trusted/bl32/xlat_tables_core.o
                0x000000002fff382c                mmap_add_ctx
 .text.mmap_add_dynamic_region_ctx
                0x000000002fff3844      0x160 /home/lodge/STM32MP157/tf-a/tf-a-stm32mp/../build/trusted/bl32/xlat_tables_core.o
                0x000000002fff3844                mmap_add_dynamic_region_ctx
 .text.mmap_remove_dynamic_region_ctx
                0x000000002fff39a4      0x108 /home/lodge/STM32MP157/tf-a/tf-a-stm32mp/../build/trusted/bl32/xlat_tables_core.o
                0x000000002fff39a4                mmap_remove_dynamic_region_ctx
 .text.init_xlat_tables_ctx
                0x000000002fff3aac      0x154 /home/lodge/STM32MP157/tf-a/tf-a-stm32mp/../build/trusted/bl32/xlat_tables_core.o
                0x000000002fff3aac                init_xlat_tables_ctx
 .text.xlat_mmap_print
                0x000000002fff3c00        0x2 /home/lodge/STM32MP157/tf-a/tf-a-stm32mp/../build/trusted/bl32/xlat_tables_utils.o
                0x000000002fff3c00                xlat_mmap_print
 .text.xlat_tables_print
                0x000000002fff3c02        0x2 /home/lodge/STM32MP157/tf-a/tf-a-stm32mp/../build/trusted/bl32/xlat_tables_utils.o
                0x000000002fff3c02                xlat_tables_print
 .text.tzc400_set_action
                0x000000002fff3c04       0x24 /home/lodge/STM32MP157/tf-a/tf-a-stm32mp/../build/trusted/bl32/tzc400.o
                0x000000002fff3c04                tzc400_set_action
 .text.tzc400_init
                0x000000002fff3c28       0x5c /home/lodge/STM32MP157/tf-a/tf-a-stm32mp/../build/trusted/bl32/tzc400.o
                0x000000002fff3c28                tzc400_init
 .text.tzc400_configure_region
                0x000000002fff3c84       0xb0 /home/lodge/STM32MP157/tf-a/tf-a-stm32mp/../build/trusted/bl32/tzc400.o
                0x000000002fff3c84                tzc400_configure_region
 .text.tzc400_enable_filters
                0x000000002fff3d34       0x68 /home/lodge/STM32MP157/tf-a/tf-a-stm32mp/../build/trusted/bl32/tzc400.o
                0x000000002fff3d34                tzc400_enable_filters
 .text.tzc400_disable_filters
                0x000000002fff3d9c       0x4c /home/lodge/STM32MP157/tf-a/tf-a-stm32mp/../build/trusted/bl32/tzc400.o
                0x000000002fff3d9c                tzc400_disable_filters
 .text.tzc400_is_pending_interrupt
                0x000000002fff3de8       0x3c /home/lodge/STM32MP157/tf-a/tf-a-stm32mp/../build/trusted/bl32/tzc400.o
                0x000000002fff3de8                tzc400_is_pending_interrupt
 .text.tzc400_it_handler
                0x000000002fff3e24       0xbc /home/lodge/STM32MP157/tf-a/tf-a-stm32mp/../build/trusted/bl32/tzc400.o
                0x000000002fff3e24                tzc400_it_handler
 .text.udelay   0x000000002fff3ee0       0x5c /home/lodge/STM32MP157/tf-a/tf-a-stm32mp/../build/trusted/bl32/delay_timer.o
                0x000000002fff3ee0                udelay
 .text.mdelay   0x000000002fff3f3c        0xa /home/lodge/STM32MP157/tf-a/tf-a-stm32mp/../build/trusted/bl32/delay_timer.o
                0x000000002fff3f3c                mdelay
 *fill*         0x000000002fff3f46        0x2 
 .text.timer_init
                0x000000002fff3f48       0x28 /home/lodge/STM32MP157/tf-a/tf-a-stm32mp/../build/trusted/bl32/delay_timer.o
                0x000000002fff3f48                timer_init
 .text.get_timer_value
                0x000000002fff3f70        0x8 /home/lodge/STM32MP157/tf-a/tf-a-stm32mp/../build/trusted/bl32/generic_delay_timer.o
 .text.generic_delay_timer_init_args
                0x000000002fff3f78       0x18 /home/lodge/STM32MP157/tf-a/tf-a-stm32mp/../build/trusted/bl32/generic_delay_timer.o
                0x000000002fff3f78                generic_delay_timer_init_args
 .text.generic_delay_timer_init
                0x000000002fff3f90       0x44 /home/lodge/STM32MP157/tf-a/tf-a-stm32mp/../build/trusted/bl32/generic_delay_timer.o
                0x000000002fff3f90                generic_delay_timer_init
 .text.fdt32_to_cpu
                0x000000002fff3fd4        0x4 /home/lodge/STM32MP157/tf-a/tf-a-stm32mp/../build/trusted/bl32/bsec2.o
 .text.bsec_lock
                0x000000002fff3fd8       0x18 /home/lodge/STM32MP157/tf-a/tf-a-stm32mp/../build/trusted/bl32/bsec2.o
 .text.bsec_unlock
                0x000000002fff3ff0       0x18 /home/lodge/STM32MP157/tf-a/tf-a-stm32mp/../build/trusted/bl32/bsec2.o
 .text.otp_bank_offset
                0x000000002fff4008       0x18 /home/lodge/STM32MP157/tf-a/tf-a-stm32mp/../build/trusted/bl32/bsec2.o
 .text.bsec_check_error
                0x000000002fff4020       0x34 /home/lodge/STM32MP157/tf-a/tf-a-stm32mp/../build/trusted/bl32/bsec2.o
 .text.bsec_find_otp_name_in_dt
                0x000000002fff4054       0xd0 /home/lodge/STM32MP157/tf-a/tf-a-stm32mp/../build/trusted/bl32/bsec2.o
                0x000000002fff4054                bsec_find_otp_name_in_dt
 .text.bsec_read_otp
                0x000000002fff4124       0x20 /home/lodge/STM32MP157/tf-a/tf-a-stm32mp/../build/trusted/bl32/bsec2.o
                0x000000002fff4124                bsec_read_otp
 .text.bsec_read_debug_conf
                0x000000002fff4144        0xc /home/lodge/STM32MP157/tf-a/tf-a-stm32mp/../build/trusted/bl32/bsec2.o
                0x000000002fff4144                bsec_read_debug_conf
 .text.bsec_get_status
                0x000000002fff4150        0xc /home/lodge/STM32MP157/tf-a/tf-a-stm32mp/../build/trusted/bl32/bsec2.o
                0x000000002fff4150                bsec_get_status
 .text.bsec_power_safmem
                0x000000002fff415c       0x64 /home/lodge/STM32MP157/tf-a/tf-a-stm32mp/../build/trusted/bl32/bsec2.o
 .text.bsec_permanent_lock_otp
                0x000000002fff41c0       0x90 /home/lodge/STM32MP157/tf-a/tf-a-stm32mp/../build/trusted/bl32/bsec2.o
                0x000000002fff41c0                bsec_permanent_lock_otp
 .text.bsec_get_version
                0x000000002fff4250       0x10 /home/lodge/STM32MP157/tf-a/tf-a-stm32mp/../build/trusted/bl32/bsec2.o
                0x000000002fff4250                bsec_get_version
 .text.bsec_get_id
                0x000000002fff4260       0x10 /home/lodge/STM32MP157/tf-a/tf-a-stm32mp/../build/trusted/bl32/bsec2.o
                0x000000002fff4260                bsec_get_id
 .text.bsec_read_sr_lock
                0x000000002fff4270       0x38 /home/lodge/STM32MP157/tf-a/tf-a-stm32mp/../build/trusted/bl32/bsec2.o
                0x000000002fff4270                bsec_read_sr_lock
 .text.bsec_shadow_register
                0x000000002fff42a8       0x7c /home/lodge/STM32MP157/tf-a/tf-a-stm32mp/../build/trusted/bl32/bsec2.o
                0x000000002fff42a8                bsec_shadow_register
 .text.bsec_probe
                0x000000002fff4324      0x11c /home/lodge/STM32MP157/tf-a/tf-a-stm32mp/../build/trusted/bl32/bsec2.o
                0x000000002fff4324                bsec_probe
 .text.bsec_read_sw_lock
                0x000000002fff4440       0x38 /home/lodge/STM32MP157/tf-a/tf-a-stm32mp/../build/trusted/bl32/bsec2.o
                0x000000002fff4440                bsec_read_sw_lock
 .text.bsec_write_otp
                0x000000002fff4478       0x44 /home/lodge/STM32MP157/tf-a/tf-a-stm32mp/../build/trusted/bl32/bsec2.o
                0x000000002fff4478                bsec_write_otp
 .text.bsec_read_sp_lock
                0x000000002fff44bc       0x38 /home/lodge/STM32MP157/tf-a/tf-a-stm32mp/../build/trusted/bl32/bsec2.o
                0x000000002fff44bc                bsec_read_sp_lock
 .text.bsec_read_permanent_lock
                0x000000002fff44f4       0x38 /home/lodge/STM32MP157/tf-a/tf-a-stm32mp/../build/trusted/bl32/bsec2.o
                0x000000002fff44f4                bsec_read_permanent_lock
 .text.bsec_program_otp
                0x000000002fff452c       0xe0 /home/lodge/STM32MP157/tf-a/tf-a-stm32mp/../build/trusted/bl32/bsec2.o
                0x000000002fff452c                bsec_program_otp
 .text.bsec_check_nsec_access_rights
                0x000000002fff460c       0x34 /home/lodge/STM32MP157/tf-a/tf-a-stm32mp/../build/trusted/bl32/bsec2.o
                0x000000002fff460c                bsec_check_nsec_access_rights
 .text.fdt32_to_cpu
                0x000000002fff4640        0x4 /home/lodge/STM32MP157/tf-a/tf-a-stm32mp/../build/trusted/bl32/stm32mp_clkfunc.o
 .text.fdt_osc_read_freq
                0x000000002fff4644       0x90 /home/lodge/STM32MP157/tf-a/tf-a-stm32mp/../build/trusted/bl32/stm32mp_clkfunc.o
                0x000000002fff4644                fdt_osc_read_freq
 .text.fdt_get_rcc_node
                0x000000002fff46d4        0xc /home/lodge/STM32MP157/tf-a/tf-a-stm32mp/../build/trusted/bl32/stm32mp_clkfunc.o
                0x000000002fff46d4                fdt_get_rcc_node
 .text.fdt_rcc_read_uint32_default
                0x000000002fff46e0       0x1e /home/lodge/STM32MP157/tf-a/tf-a-stm32mp/../build/trusted/bl32/stm32mp_clkfunc.o
                0x000000002fff46e0                fdt_rcc_read_uint32_default
 .text.fdt_rcc_read_prop
                0x000000002fff46fe       0x30 /home/lodge/STM32MP157/tf-a/tf-a-stm32mp/../build/trusted/bl32/stm32mp_clkfunc.o
                0x000000002fff46fe                fdt_rcc_read_prop
 .text.fdt_rcc_enable_it
                0x000000002fff472e       0x1c /home/lodge/STM32MP157/tf-a/tf-a-stm32mp/../build/trusted/bl32/stm32mp_clkfunc.o
                0x000000002fff472e                fdt_rcc_enable_it
 *fill*         0x000000002fff474a        0x2 
 .text.fdt_get_clock_id
                0x000000002fff474c       0x38 /home/lodge/STM32MP157/tf-a/tf-a-stm32mp/../build/trusted/bl32/stm32mp_clkfunc.o
                0x000000002fff474c                fdt_get_clock_id
 .text.fdt_get_clock_id_by_name
                0x000000002fff4784       0x64 /home/lodge/STM32MP157/tf-a/tf-a-stm32mp/../build/trusted/bl32/stm32mp_clkfunc.o
                0x000000002fff4784                fdt_get_clock_id_by_name
 .text.stm32mp_stgen_get_counter
                0x000000002fff47e8        0xc /home/lodge/STM32MP157/tf-a/tf-a-stm32mp/../build/trusted/bl32/stm32mp_clkfunc.o
                0x000000002fff47e8                stm32mp_stgen_get_counter
 .text.stm32mp_stgen_restore_counter
                0x000000002fff47f4       0x40 /home/lodge/STM32MP157/tf-a/tf-a-stm32mp/../build/trusted/bl32/stm32mp_clkfunc.o
                0x000000002fff47f4                stm32mp_stgen_restore_counter
 .text.clock_is_always_on
                0x000000002fff4834       0x1c /home/lodge/STM32MP157/tf-a/tf-a-stm32mp/../build/trusted/bl32/stm32mp1_clk.o
 .text.stm32mp1_pll_compute_pllxcfgr2
                0x000000002fff4850       0x1e /home/lodge/STM32MP157/tf-a/tf-a-stm32mp/../build/trusted/bl32/stm32mp1_clk.o
 *fill*         0x000000002fff486e        0x2 
 .text.stm32mp1_read_pll_freq
                0x000000002fff4870       0xa8 /home/lodge/STM32MP157/tf-a/tf-a-stm32mp/../build/trusted/bl32/stm32mp1_clk.o
 .text.get_clock_rate
                0x000000002fff4918      0x198 /home/lodge/STM32MP157/tf-a/tf-a-stm32mp/../build/trusted/bl32/stm32mp1_clk.o
 .text.stm32mp1_pll_start
                0x000000002fff4ab0       0x24 /home/lodge/STM32MP157/tf-a/tf-a-stm32mp/../build/trusted/bl32/stm32mp1_clk.o
 .text.stm32mp1_clk_lock
                0x000000002fff4ad4       0x16 /home/lodge/STM32MP157/tf-a/tf-a-stm32mp/../build/trusted/bl32/stm32mp1_clk.o
 .text.stm32mp1_clk_unlock
                0x000000002fff4aea       0x16 /home/lodge/STM32MP157/tf-a/tf-a-stm32mp/../build/trusted/bl32/stm32mp1_clk.o
 .text.stm32mp1_set_clkdiv
                0x000000002fff4b00       0x68 /home/lodge/STM32MP157/tf-a/tf-a-stm32mp/../build/trusted/bl32/stm32mp1_clk.o
 .text.__clk_enable
                0x000000002fff4b68       0x26 /home/lodge/STM32MP157/tf-a/tf-a-stm32mp/../build/trusted/bl32/stm32mp1_clk.o
 .text.__clk_disable
                0x000000002fff4b8e       0x28 /home/lodge/STM32MP157/tf-a/tf-a-stm32mp/../build/trusted/bl32/stm32mp1_clk.o
 *fill*         0x000000002fff4bb6        0x2 
 .text.stm32mp1_clk_get_gated_id
                0x000000002fff4bb8       0x34 /home/lodge/STM32MP157/tf-a/tf-a-stm32mp/../build/trusted/bl32/stm32mp1_clk.o
 .text.stm32mp1_clk_get_parent
                0x000000002fff4bec       0x78 /home/lodge/STM32MP157/tf-a/tf-a-stm32mp/../build/trusted/bl32/stm32mp1_clk.o
 .text.__stm32mp1_clk_enable
                0x000000002fff4c64       0x7c /home/lodge/STM32MP157/tf-a/tf-a-stm32mp/../build/trusted/bl32/stm32mp1_clk.o
 .text.__stm32mp1_clk_disable
                0x000000002fff4ce0       0x78 /home/lodge/STM32MP157/tf-a/tf-a-stm32mp/../build/trusted/bl32/stm32mp1_clk.o
 .text.stm32mp1_pll_compute_pllxcfgr1
                0x000000002fff4d58       0x8c /home/lodge/STM32MP157/tf-a/tf-a-stm32mp/../build/trusted/bl32/stm32mp1_clk.o
 .text.stm32mp1_pll_config
                0x000000002fff4de4       0x58 /home/lodge/STM32MP157/tf-a/tf-a-stm32mp/../build/trusted/bl32/stm32mp1_clk.o
 .text.stm32mp1_set_clksrc
                0x000000002fff4e3c       0x80 /home/lodge/STM32MP157/tf-a/tf-a-stm32mp/../build/trusted/bl32/stm32mp1_clk.o
 .text.stm32mp1_pll_output
                0x000000002fff4ebc       0x84 /home/lodge/STM32MP157/tf-a/tf-a-stm32mp/../build/trusted/bl32/stm32mp1_clk.o
 .text.stm32mp1_pll_stop
                0x000000002fff4f40       0x7c /home/lodge/STM32MP157/tf-a/tf-a-stm32mp/../build/trusted/bl32/stm32mp1_clk.o
 .text.stm32mp1_pll1_config_from_opp_khz
                0x000000002fff4fbc      0x13c /home/lodge/STM32MP157/tf-a/tf-a-stm32mp/../build/trusted/bl32/stm32mp1_clk.o
 .text.stm32mp1_rcc_is_secure
                0x000000002fff50f8        0xe /home/lodge/STM32MP157/tf-a/tf-a-stm32mp/../build/trusted/bl32/stm32mp1_clk.o
                0x000000002fff50f8                stm32mp1_rcc_is_secure
 .text.stm32mp1_rcc_is_mckprot
                0x000000002fff5106       0x14 /home/lodge/STM32MP157/tf-a/tf-a-stm32mp/../build/trusted/bl32/stm32mp1_clk.o
                0x000000002fff5106                stm32mp1_rcc_is_mckprot
 *fill*         0x000000002fff511a        0x2 
 .text.stm32mp1_clk_rcc_regs_lock
                0x000000002fff511c        0xc /home/lodge/STM32MP157/tf-a/tf-a-stm32mp/../build/trusted/bl32/stm32mp1_clk.o
                0x000000002fff511c                stm32mp1_clk_rcc_regs_lock
 .text.stm32mp1_clk_rcc_regs_unlock
                0x000000002fff5128        0xc /home/lodge/STM32MP157/tf-a/tf-a-stm32mp/../build/trusted/bl32/stm32mp1_clk.o
                0x000000002fff5128                stm32mp1_clk_rcc_regs_unlock
 .text.stm32mp_clk_enable
                0x000000002fff5134        0x6 /home/lodge/STM32MP157/tf-a/tf-a-stm32mp/../build/trusted/bl32/stm32mp1_clk.o
                0x000000002fff5134                stm32mp_clk_enable
 .text.stm32mp_clk_disable
                0x000000002fff513a        0x6 /home/lodge/STM32MP157/tf-a/tf-a-stm32mp/../build/trusted/bl32/stm32mp1_clk.o
                0x000000002fff513a                stm32mp_clk_disable
 .text.stm32mp1_clk_force_enable
                0x000000002fff5140        0x6 /home/lodge/STM32MP157/tf-a/tf-a-stm32mp/../build/trusted/bl32/stm32mp1_clk.o
                0x000000002fff5140                stm32mp1_clk_force_enable
 .text.stm32mp1_clk_force_disable
                0x000000002fff5146        0x6 /home/lodge/STM32MP157/tf-a/tf-a-stm32mp/../build/trusted/bl32/stm32mp1_clk.o
                0x000000002fff5146                stm32mp1_clk_force_disable
 .text.stm32mp_clk_is_enabled
                0x000000002fff514c       0x40 /home/lodge/STM32MP157/tf-a/tf-a-stm32mp/../build/trusted/bl32/stm32mp1_clk.o
                0x000000002fff514c                stm32mp_clk_is_enabled
 .text.stm32mp_clk_get_rate
                0x000000002fff518c       0x16 /home/lodge/STM32MP157/tf-a/tf-a-stm32mp/../build/trusted/bl32/stm32mp1_clk.o
                0x000000002fff518c                stm32mp_clk_get_rate
 *fill*         0x000000002fff51a2        0x2 
 .text.clk_get_pll1_settings
                0x000000002fff51a4      0x1f4 /home/lodge/STM32MP157/tf-a/tf-a-stm32mp/../build/trusted/bl32/stm32mp1_clk.o
 .text.stm32mp_clk_timer_get_rate
                0x000000002fff5398       0x3c /home/lodge/STM32MP157/tf-a/tf-a-stm32mp/../build/trusted/bl32/stm32mp1_clk.o
                0x000000002fff5398                stm32mp_clk_timer_get_rate
 .text.stm32mp1_rtc_get_read_twice
                0x000000002fff53d4       0x5e /home/lodge/STM32MP157/tf-a/tf-a-stm32mp/../build/trusted/bl32/stm32mp1_clk.o
                0x000000002fff53d4                stm32mp1_rtc_get_read_twice
 *fill*         0x000000002fff5432        0x2 
 .text.stm32mp1_round_opp_khz
                0x000000002fff5434       0x38 /home/lodge/STM32MP157/tf-a/tf-a-stm32mp/../build/trusted/bl32/stm32mp1_clk.o
                0x000000002fff5434                stm32mp1_round_opp_khz
 .text.stm32mp1_set_opp_khz
                0x000000002fff546c       0x70 /home/lodge/STM32MP157/tf-a/tf-a-stm32mp/../build/trusted/bl32/stm32mp1_clk.o
                0x000000002fff546c                stm32mp1_set_opp_khz
 .text.stm32mp1_clk_compute_all_pll1_settings
                0x000000002fff54dc      0x128 /home/lodge/STM32MP157/tf-a/tf-a-stm32mp/../build/trusted/bl32/stm32mp1_clk.o
                0x000000002fff54dc                stm32mp1_clk_compute_all_pll1_settings
 .text.stm32mp1_clk_lp_save_opp_pll1_settings
                0x000000002fff5604       0x2c /home/lodge/STM32MP157/tf-a/tf-a-stm32mp/../build/trusted/bl32/stm32mp1_clk.o
                0x000000002fff5604                stm32mp1_clk_lp_save_opp_pll1_settings
 .text.stm32mp1_clk_lp_load_opp_pll1_settings
                0x000000002fff5630       0x20 /home/lodge/STM32MP157/tf-a/tf-a-stm32mp/../build/trusted/bl32/stm32mp1_clk.o
                0x000000002fff5630                stm32mp1_clk_lp_load_opp_pll1_settings
 .text.stm32mp1_register_clock_parents_secure
                0x000000002fff5650      0x134 /home/lodge/STM32MP157/tf-a/tf-a-stm32mp/../build/trusted/bl32/stm32mp1_clk.o
                0x000000002fff5650                stm32mp1_register_clock_parents_secure
 .text.save_clock_pm_context
                0x000000002fff5784       0x50 /home/lodge/STM32MP157/tf-a/tf-a-stm32mp/../build/trusted/bl32/stm32mp1_clk.o
                0x000000002fff5784                save_clock_pm_context
 .text.restore_clock_pm_context
                0x000000002fff57d4       0x50 /home/lodge/STM32MP157/tf-a/tf-a-stm32mp/../build/trusted/bl32/stm32mp1_clk.o
                0x000000002fff57d4                restore_clock_pm_context
 .text.stm32mp1_clock_suspend
                0x000000002fff5824       0x98 /home/lodge/STM32MP157/tf-a/tf-a-stm32mp/../build/trusted/bl32/stm32mp1_clk.o
                0x000000002fff5824                stm32mp1_clock_suspend
 .text.stm32mp1_clock_resume
                0x000000002fff58bc       0xd4 /home/lodge/STM32MP157/tf-a/tf-a-stm32mp/../build/trusted/bl32/stm32mp1_clk.o
                0x000000002fff58bc                stm32mp1_clock_resume
 .text.stm32mp1_clock_stopmode_save
                0x000000002fff5990       0x4c /home/lodge/STM32MP157/tf-a/tf-a-stm32mp/../build/trusted/bl32/stm32mp1_clk.o
                0x000000002fff5990                stm32mp1_clock_stopmode_save
 .text.stm32mp1_clock_stopmode_resume
                0x000000002fff59dc       0x98 /home/lodge/STM32MP157/tf-a/tf-a-stm32mp/../build/trusted/bl32/stm32mp1_clk.o
                0x000000002fff59dc                stm32mp1_clock_stopmode_resume
 .text.stm32mp1_dump_clocks_state
                0x000000002fff5a74        0x2 /home/lodge/STM32MP157/tf-a/tf-a-stm32mp/../build/trusted/bl32/stm32mp1_clk.o
                0x000000002fff5a74                stm32mp1_dump_clocks_state
 *fill*         0x000000002fff5a76        0x2 
 .text.stm32mp1_clk_probe
                0x000000002fff5a78       0xbc /home/lodge/STM32MP157/tf-a/tf-a-stm32mp/../build/trusted/bl32/stm32mp1_clk.o
                0x000000002fff5a78                stm32mp1_clk_probe
 .text.do_sw_handshake
                0x000000002fff5b34       0x14 /home/lodge/STM32MP157/tf-a/tf-a-stm32mp/../build/trusted/bl32/stm32mp1_ddr_helpers.o
 .text.do_sw_ack
                0x000000002fff5b48       0x54 /home/lodge/STM32MP157/tf-a/tf-a-stm32mp/../build/trusted/bl32/stm32mp1_ddr_helpers.o
 .text.ddr_enable_clock
                0x000000002fff5b9c       0x22 /home/lodge/STM32MP157/tf-a/tf-a-stm32mp/../build/trusted/bl32/stm32mp1_ddr_helpers.o
                0x000000002fff5b9c                ddr_enable_clock
 *fill*         0x000000002fff5bbe        0x2 
 .text.ddr_sw_self_refresh_exit
                0x000000002fff5bc0      0x1e8 /home/lodge/STM32MP157/tf-a/tf-a-stm32mp/../build/trusted/bl32/stm32mp1_ddr_helpers.o
                0x000000002fff5bc0                ddr_sw_self_refresh_exit
 .text.ddr_standby_sr_entry
                0x000000002fff5da8      0x23c /home/lodge/STM32MP157/tf-a/tf-a-stm32mp/../build/trusted/bl32/stm32mp1_ddr_helpers.o
                0x000000002fff5da8                ddr_standby_sr_entry
 .text.ddr_read_sr_mode
                0x000000002fff5fe4       0x18 /home/lodge/STM32MP157/tf-a/tf-a-stm32mp/../build/trusted/bl32/stm32mp1_ddr_helpers.o
                0x000000002fff5fe4                ddr_read_sr_mode
 .text.ddr_set_sr_mode
                0x000000002fff5ffc      0x1cc /home/lodge/STM32MP157/tf-a/tf-a-stm32mp/../build/trusted/bl32/stm32mp1_ddr_helpers.o
                0x000000002fff5ffc                ddr_set_sr_mode
 .text.ddr_save_sr_mode
                0x000000002fff61c8       0x10 /home/lodge/STM32MP157/tf-a/tf-a-stm32mp/../build/trusted/bl32/stm32mp1_ddr_helpers.o
                0x000000002fff61c8                ddr_save_sr_mode
 .text.ddr_restore_sr_mode
                0x000000002fff61d8        0xc /home/lodge/STM32MP157/tf-a/tf-a-stm32mp/../build/trusted/bl32/stm32mp1_ddr_helpers.o
                0x000000002fff61d8                ddr_restore_sr_mode
 .text.fdt32_to_cpu
                0x000000002fff61e4        0x4 /home/lodge/STM32MP157/tf-a/tf-a-stm32mp/../build/trusted/bl32/stm32_gpio.o
 .text.set_gpio
                0x000000002fff61e8      0x100 /home/lodge/STM32MP157/tf-a/tf-a-stm32mp/../build/trusted/bl32/stm32_gpio.o
                0x000000002fff61e8                set_gpio
 .text.dt_set_pinctrl_config
                0x000000002fff62e8      0x204 /home/lodge/STM32MP157/tf-a/tf-a-stm32mp/../build/trusted/bl32/stm32_gpio.o
                0x000000002fff62e8                dt_set_pinctrl_config
 .text.set_gpio_secure_cfg
                0x000000002fff64ec       0x60 /home/lodge/STM32MP157/tf-a/tf-a-stm32mp/../build/trusted/bl32/stm32_gpio.o
                0x000000002fff64ec                set_gpio_secure_cfg
 .text.i2c_wait_flag
                0x000000002fff654c       0x44 /home/lodge/STM32MP157/tf-a/tf-a-stm32mp/../build/trusted/bl32/stm32_i2c.o
 .text.i2c_transfer_config.isra.0
                0x000000002fff6590       0x2c /home/lodge/STM32MP157/tf-a/tf-a-stm32mp/../build/trusted/bl32/stm32_i2c.o
 .text.i2c_ack_failed
                0x000000002fff65bc       0x8e /home/lodge/STM32MP157/tf-a/tf-a-stm32mp/../build/trusted/bl32/stm32_i2c.o
 .text.i2c_wait_txis
                0x000000002fff664a       0x42 /home/lodge/STM32MP157/tf-a/tf-a-stm32mp/../build/trusted/bl32/stm32_i2c.o
 .text.i2c_wait_stop
                0x000000002fff668c       0x42 /home/lodge/STM32MP157/tf-a/tf-a-stm32mp/../build/trusted/bl32/stm32_i2c.o
 *fill*         0x000000002fff66ce        0x2 
 .text.i2c_read.constprop.0
                0x000000002fff66d0      0x1ec /home/lodge/STM32MP157/tf-a/tf-a-stm32mp/../build/trusted/bl32/stm32_i2c.o
 .text.i2c_write
                0x000000002fff68bc      0x224 /home/lodge/STM32MP157/tf-a/tf-a-stm32mp/../build/trusted/bl32/stm32_i2c.o
 .text.stm32_i2c_get_setup_from_fdt
                0x000000002fff6ae0       0x60 /home/lodge/STM32MP157/tf-a/tf-a-stm32mp/../build/trusted/bl32/stm32_i2c.o
                0x000000002fff6ae0                stm32_i2c_get_setup_from_fdt
 .text.stm32_i2c_init
                0x000000002fff6b40      0x45c /home/lodge/STM32MP157/tf-a/tf-a-stm32mp/../build/trusted/bl32/stm32_i2c.o
                0x000000002fff6b40                stm32_i2c_init
 .text.stm32_i2c_mem_write
                0x000000002fff6f9c       0x1c /home/lodge/STM32MP157/tf-a/tf-a-stm32mp/../build/trusted/bl32/stm32_i2c.o
                0x000000002fff6f9c                stm32_i2c_mem_write
 .text.stm32_i2c_mem_read
                0x000000002fff6fb8       0x12 /home/lodge/STM32MP157/tf-a/tf-a-stm32mp/../build/trusted/bl32/stm32_i2c.o
                0x000000002fff6fb8                stm32_i2c_mem_read
 *fill*         0x000000002fff6fca        0x2 
 .text.stm32_i2c_is_device_ready
                0x000000002fff6fcc      0x144 /home/lodge/STM32MP157/tf-a/tf-a-stm32mp/../build/trusted/bl32/stm32_i2c.o
                0x000000002fff6fcc                stm32_i2c_is_device_ready
 .text.stm32_iwdg_refresh
                0x000000002fff7110       0x40 /home/lodge/STM32MP157/tf-a/tf-a-stm32mp/../build/trusted/bl32/stm32_iwdg.o
                0x000000002fff7110                stm32_iwdg_refresh
 .text.stm32_iwdg_it_handler
                0x000000002fff7150       0x5c /home/lodge/STM32MP157/tf-a/tf-a-stm32mp/../build/trusted/bl32/stm32_iwdg.o
                0x000000002fff7150                stm32_iwdg_it_handler
 .text.stm32_iwdg_init
                0x000000002fff71ac      0x1ec /home/lodge/STM32MP157/tf-a/tf-a-stm32mp/../build/trusted/bl32/stm32_iwdg.o
                0x000000002fff71ac                stm32_iwdg_init
 .text.fdt32_to_cpu
                0x000000002fff7398        0x4 /home/lodge/STM32MP157/tf-a/tf-a-stm32mp/../build/trusted/bl32/stm32mp_pmic.o
 .text.dt_get_pmic_node
                0x000000002fff739c       0x20 /home/lodge/STM32MP157/tf-a/tf-a-stm32mp/../build/trusted/bl32/stm32mp_pmic.o
 .text.dt_pmic_get_regulator_voltage
                0x000000002fff73bc       0x60 /home/lodge/STM32MP157/tf-a/tf-a-stm32mp/../build/trusted/bl32/stm32mp_pmic.o
 .text.pmic_operate
                0x000000002fff741c      0x244 /home/lodge/STM32MP157/tf-a/tf-a-stm32mp/../build/trusted/bl32/stm32mp_pmic.o
 .text.dt_pmic_status
                0x000000002fff7660       0x28 /home/lodge/STM32MP157/tf-a/tf-a-stm32mp/../build/trusted/bl32/stm32mp_pmic.o
                0x000000002fff7660                dt_pmic_status
 .text.pmic_configure_boot_on_regulators
                0x000000002fff7688        0xa /home/lodge/STM32MP157/tf-a/tf-a-stm32mp/../build/trusted/bl32/stm32mp_pmic.o
                0x000000002fff7688                pmic_configure_boot_on_regulators
 .text.pmic_set_lp_config
                0x000000002fff7692        0xa /home/lodge/STM32MP157/tf-a/tf-a-stm32mp/../build/trusted/bl32/stm32mp_pmic.o
                0x000000002fff7692                pmic_set_lp_config
 .text.dt_pmic_find_supply
                0x000000002fff769c       0x7c /home/lodge/STM32MP157/tf-a/tf-a-stm32mp/../build/trusted/bl32/stm32mp_pmic.o
                0x000000002fff769c                dt_pmic_find_supply
 .text.initialize_pmic_i2c
                0x000000002fff7718      0x108 /home/lodge/STM32MP157/tf-a/tf-a-stm32mp/../build/trusted/bl32/stm32mp_pmic.o
                0x000000002fff7718                initialize_pmic_i2c
 .text.initialize_pmic
                0x000000002fff7820       0x34 /home/lodge/STM32MP157/tf-a/tf-a-stm32mp/../build/trusted/bl32/stm32mp_pmic.o
                0x000000002fff7820                initialize_pmic
 .text.get_regulator_data
                0x000000002fff7854       0x3c /home/lodge/STM32MP157/tf-a/tf-a-stm32mp/../build/trusted/bl32/stpmic1.o
 .text.voltage_to_index
                0x000000002fff7890       0x2a /home/lodge/STM32MP157/tf-a/tf-a-stm32mp/../build/trusted/bl32/stpmic1.o
 *fill*         0x000000002fff78ba        0x2 
 .text.stpmic1_register_read
                0x000000002fff78bc       0x28 /home/lodge/STM32MP157/tf-a/tf-a-stm32mp/../build/trusted/bl32/stpmic1.o
                0x000000002fff78bc                stpmic1_register_read
 .text.stpmic1_is_regulator_enabled
                0x000000002fff78e4       0x28 /home/lodge/STM32MP157/tf-a/tf-a-stm32mp/../build/trusted/bl32/stpmic1.o
                0x000000002fff78e4                stpmic1_is_regulator_enabled
 .text.stpmic1_regulator_voltage_get
                0x000000002fff790c       0x74 /home/lodge/STM32MP157/tf-a/tf-a-stm32mp/../build/trusted/bl32/stpmic1.o
                0x000000002fff790c                stpmic1_regulator_voltage_get
 .text.stpmic1_register_write
                0x000000002fff7980       0x58 /home/lodge/STM32MP157/tf-a/tf-a-stm32mp/../build/trusted/bl32/stpmic1.o
                0x000000002fff7980                stpmic1_register_write
 .text.stpmic1_lp_copy_reg
                0x000000002fff79d8       0x26 /home/lodge/STM32MP157/tf-a/tf-a-stm32mp/../build/trusted/bl32/stpmic1.o
                0x000000002fff79d8                stpmic1_lp_copy_reg
 .text.stpmic1_register_update
                0x000000002fff79fe       0x2e /home/lodge/STM32MP157/tf-a/tf-a-stm32mp/../build/trusted/bl32/stpmic1.o
                0x000000002fff79fe                stpmic1_register_update
 .text.stpmic1_powerctrl_on
                0x000000002fff7a2c        0xa /home/lodge/STM32MP157/tf-a/tf-a-stm32mp/../build/trusted/bl32/stpmic1.o
                0x000000002fff7a2c                stpmic1_powerctrl_on
 .text.stpmic1_switch_off
                0x000000002fff7a36        0xa /home/lodge/STM32MP157/tf-a/tf-a-stm32mp/../build/trusted/bl32/stpmic1.o
                0x000000002fff7a36                stpmic1_switch_off
 .text.stpmic1_regulator_enable
                0x000000002fff7a40       0x14 /home/lodge/STM32MP157/tf-a/tf-a-stm32mp/../build/trusted/bl32/stpmic1.o
                0x000000002fff7a40                stpmic1_regulator_enable
 .text.stpmic1_regulator_voltage_set
                0x000000002fff7a54       0x5c /home/lodge/STM32MP157/tf-a/tf-a-stm32mp/../build/trusted/bl32/stpmic1.o
                0x000000002fff7a54                stpmic1_regulator_voltage_set
 .text.stpmic1_regulator_pull_down_set
                0x000000002fff7ab0       0x24 /home/lodge/STM32MP157/tf-a/tf-a-stm32mp/../build/trusted/bl32/stpmic1.o
                0x000000002fff7ab0                stpmic1_regulator_pull_down_set
 .text.stpmic1_regulator_mask_reset_set
                0x000000002fff7ad4       0x1a /home/lodge/STM32MP157/tf-a/tf-a-stm32mp/../build/trusted/bl32/stpmic1.o
                0x000000002fff7ad4                stpmic1_regulator_mask_reset_set
 .text.stpmic1_lp_reg_on_off
                0x000000002fff7aee       0x16 /home/lodge/STM32MP157/tf-a/tf-a-stm32mp/../build/trusted/bl32/stpmic1.o
                0x000000002fff7aee                stpmic1_lp_reg_on_off
 .text.stpmic1_lp_set_mode
                0x000000002fff7b04       0x1a /home/lodge/STM32MP157/tf-a/tf-a-stm32mp/../build/trusted/bl32/stpmic1.o
                0x000000002fff7b04                stpmic1_lp_set_mode
 *fill*         0x000000002fff7b1e        0x2 
 .text.stpmic1_lp_set_voltage
                0x000000002fff7b20       0x5c /home/lodge/STM32MP157/tf-a/tf-a-stm32mp/../build/trusted/bl32/stpmic1.o
                0x000000002fff7b20                stpmic1_lp_set_voltage
 .text.stpmic1_bind_i2c
                0x000000002fff7b7c       0x14 /home/lodge/STM32MP157/tf-a/tf-a-stm32mp/../build/trusted/bl32/stpmic1.o
                0x000000002fff7b7c                stpmic1_bind_i2c
 .text.stm32mp_reset_assert_to
                0x000000002fff7b90       0x78 /home/lodge/STM32MP157/tf-a/tf-a-stm32mp/../build/trusted/bl32/stm32mp1_reset.o
                0x000000002fff7b90                stm32mp_reset_assert_to
 .text.stm32mp_reset_deassert_to
                0x000000002fff7c08       0x7c /home/lodge/STM32MP157/tf-a/tf-a-stm32mp/../build/trusted/bl32/stm32mp1_reset.o
                0x000000002fff7c08                stm32mp_reset_deassert_to
 .text.fdt32_to_cpu
                0x000000002fff7c84        0x4 /home/lodge/STM32MP157/tf-a/tf-a-stm32mp/../build/trusted/bl32/stm32mp_dt.o
 .text.fdt_get_node_parent_address_cells
                0x000000002fff7c88       0x24 /home/lodge/STM32MP157/tf-a/tf-a-stm32mp/../build/trusted/bl32/stm32mp_dt.o
 .text.dt_get_stdout_node_offset
                0x000000002fff7cac       0x7c /home/lodge/STM32MP157/tf-a/tf-a-stm32mp/../build/trusted/bl32/stm32mp_dt.o
 .text.dt_get_opp_freqvolt_from_subnode
                0x000000002fff7d28       0xc4 /home/lodge/STM32MP157/tf-a/tf-a-stm32mp/../build/trusted/bl32/stm32mp_dt.o
 .text.dt_open_and_check
                0x000000002fff7dec       0x1c /home/lodge/STM32MP157/tf-a/tf-a-stm32mp/../build/trusted/bl32/stm32mp_dt.o
                0x000000002fff7dec                dt_open_and_check
 .text.fdt_get_address
                0x000000002fff7e08       0x18 /home/lodge/STM32MP157/tf-a/tf-a-stm32mp/../build/trusted/bl32/stm32mp_dt.o
                0x000000002fff7e08                fdt_get_address
 .text.fdt_get_status
                0x000000002fff7e20       0x64 /home/lodge/STM32MP157/tf-a/tf-a-stm32mp/../build/trusted/bl32/stm32mp_dt.o
                0x000000002fff7e20                fdt_get_status
 .text.fdt_get_interrupt
                0x000000002fff7e84       0x5c /home/lodge/STM32MP157/tf-a/tf-a-stm32mp/../build/trusted/bl32/stm32mp_dt.o
                0x000000002fff7e84                fdt_get_interrupt
 .text.fdt_read_uint32_default
                0x000000002fff7ee0       0x28 /home/lodge/STM32MP157/tf-a/tf-a-stm32mp/../build/trusted/bl32/stm32mp_dt.o
                0x000000002fff7ee0                fdt_read_uint32_default
 .text.fdt_read_uint32_array
                0x000000002fff7f08       0x4c /home/lodge/STM32MP157/tf-a/tf-a-stm32mp/../build/trusted/bl32/stm32mp_dt.o
                0x000000002fff7f08                fdt_read_uint32_array
 .text.dt_fill_device_info
                0x000000002fff7f54       0x88 /home/lodge/STM32MP157/tf-a/tf-a-stm32mp/../build/trusted/bl32/stm32mp_dt.o
                0x000000002fff7f54                dt_fill_device_info
 .text.dt_get_node
                0x000000002fff7fdc       0x24 /home/lodge/STM32MP157/tf-a/tf-a-stm32mp/../build/trusted/bl32/stm32mp_dt.o
                0x000000002fff7fdc                dt_get_node
 .text.dt_get_stdout_uart_info
                0x000000002fff8000       0x1e /home/lodge/STM32MP157/tf-a/tf-a-stm32mp/../build/trusted/bl32/stm32mp_dt.o
                0x000000002fff8000                dt_get_stdout_uart_info
 *fill*         0x000000002fff801e        0x2 
 .text.dt_get_node_by_compatible
                0x000000002fff8020       0x28 /home/lodge/STM32MP157/tf-a/tf-a-stm32mp/../build/trusted/bl32/stm32mp_dt.o
                0x000000002fff8020                dt_get_node_by_compatible
 .text.dt_get_ddr_size
                0x000000002fff8048       0x24 /home/lodge/STM32MP157/tf-a/tf-a-stm32mp/../build/trusted/bl32/stm32mp_dt.o
                0x000000002fff8048                dt_get_ddr_size
 .text.dt_get_all_opp_freqvolt
                0x000000002fff806c       0x94 /home/lodge/STM32MP157/tf-a/tf-a-stm32mp/../build/trusted/bl32/stm32mp_dt.o
                0x000000002fff806c                dt_get_all_opp_freqvolt
 .text.dt_get_cpu_regulator_name
                0x000000002fff8100       0x50 /home/lodge/STM32MP157/tf-a/tf-a-stm32mp/../build/trusted/bl32/stm32mp_dt.o
                0x000000002fff8100                dt_get_cpu_regulator_name
 .text.fdt_get_gpio_bank_pinctrl_node
                0x000000002fff8150       0x30 /home/lodge/STM32MP157/tf-a/tf-a-stm32mp/../build/trusted/bl32/stm32mp_dt.o
                0x000000002fff8150                fdt_get_gpio_bank_pinctrl_node
 .text.fdt_get_gpioz_nbpins_from_dt
                0x000000002fff8180       0x9c /home/lodge/STM32MP157/tf-a/tf-a-stm32mp/../build/trusted/bl32/stm32mp_dt.o
                0x000000002fff8180                fdt_get_gpioz_nbpins_from_dt
 .text.stm32mp_lock_shregs
                0x000000002fff821c       0x18 /home/lodge/STM32MP157/tf-a/tf-a-stm32mp/../build/trusted/bl32/stm32mp_shres_helpers.o
                0x000000002fff821c                stm32mp_lock_shregs
 .text.stm32mp_unlock_shregs
                0x000000002fff8234       0x18 /home/lodge/STM32MP157/tf-a/tf-a-stm32mp/../build/trusted/bl32/stm32mp_shres_helpers.o
                0x000000002fff8234                stm32mp_unlock_shregs
 .text.stm32mp_mmio_clrsetbits_32_shregs
                0x000000002fff824c       0x1e /home/lodge/STM32MP157/tf-a/tf-a-stm32mp/../build/trusted/bl32/stm32mp_shres_helpers.o
                0x000000002fff824c                stm32mp_mmio_clrsetbits_32_shregs
 .text.stm32mp_mmio_clrbits_32_shregs
                0x000000002fff826a       0x1a /home/lodge/STM32MP157/tf-a/tf-a-stm32mp/../build/trusted/bl32/stm32mp_shres_helpers.o
                0x000000002fff826a                stm32mp_mmio_clrbits_32_shregs
 .text.stm32mp_mmio_setbits_32_shregs
                0x000000002fff8284       0x18 /home/lodge/STM32MP157/tf-a/tf-a-stm32mp/../build/trusted/bl32/stm32mp_shres_helpers.o
                0x000000002fff8284                stm32mp_mmio_setbits_32_shregs
 .text.stm32_clean_context
                0x000000002fff829c       0x1e /home/lodge/STM32MP157/tf-a/tf-a-stm32mp/../build/trusted/bl32/stm32mp1_context.o
                0x000000002fff829c                stm32_clean_context
 .text.stm32mp1_pm_save_clock_cfg
                0x000000002fff82ba       0x38 /home/lodge/STM32MP157/tf-a/tf-a-stm32mp/../build/trusted/bl32/stm32mp1_context.o
                0x000000002fff82ba                stm32mp1_pm_save_clock_cfg
 .text.stm32mp1_pm_restore_clock_cfg
                0x000000002fff82f2       0x38 /home/lodge/STM32MP157/tf-a/tf-a-stm32mp/../build/trusted/bl32/stm32mp1_context.o
                0x000000002fff82f2                stm32mp1_pm_restore_clock_cfg
 *fill*         0x000000002fff832a        0x2 
 .text.stm32_save_context
                0x000000002fff832c       0x7c /home/lodge/STM32MP157/tf-a/tf-a-stm32mp/../build/trusted/bl32/stm32mp1_context.o
                0x000000002fff832c                stm32_save_context
 .text.stm32_restore_context
                0x000000002fff83a8       0x84 /home/lodge/STM32MP157/tf-a/tf-a-stm32mp/../build/trusted/bl32/stm32mp1_context.o
                0x000000002fff83a8                stm32_restore_context
 .text.stm32_get_stgen_from_context
                0x000000002fff842c       0x1c /home/lodge/STM32MP157/tf-a/tf-a-stm32mp/../build/trusted/bl32/stm32mp1_context.o
                0x000000002fff842c                stm32_get_stgen_from_context
 .text.stm32_are_pll1_settings_valid_in_context
                0x000000002fff8448       0x2c /home/lodge/STM32MP157/tf-a/tf-a-stm32mp/../build/trusted/bl32/stm32mp1_context.o
                0x000000002fff8448                stm32_are_pll1_settings_valid_in_context
 .text.stm32_save_ddr_training_area
                0x000000002fff8474       0x64 /home/lodge/STM32MP157/tf-a/tf-a-stm32mp/../build/trusted/bl32/stm32mp1_context.o
                0x000000002fff8474                stm32_save_ddr_training_area
 .text.stm32mp1_dbgmcu_init
                0x000000002fff84d8       0x30 /home/lodge/STM32MP157/tf-a/tf-a-stm32mp/../build/trusted/bl32/stm32mp1_dbgmcu.o
 .text.stm32mp1_dbgmcu_get_chip_dev_id
                0x000000002fff8508       0x30 /home/lodge/STM32MP157/tf-a/tf-a-stm32mp/../build/trusted/bl32/stm32mp1_dbgmcu.o
                0x000000002fff8508                stm32mp1_dbgmcu_get_chip_dev_id
 .text.stm32mp1_security_setup
                0x000000002fff8538       0x50 /home/lodge/STM32MP157/tf-a/tf-a-stm32mp/../build/trusted/bl32/stm32mp1_security.o
                0x000000002fff8538                stm32mp1_security_setup
 .text.stm32mp1_syscfg_enable_io_compensation
                0x000000002fff8588       0x60 /home/lodge/STM32MP157/tf-a/tf-a-stm32mp/../build/trusted/bl32/stm32mp1_syscfg.o
                0x000000002fff8588                stm32mp1_syscfg_enable_io_compensation
 .text.stm32mp1_syscfg_disable_io_compensation
                0x000000002fff85e8       0x2c /home/lodge/STM32MP157/tf-a/tf-a-stm32mp/../build/trusted/bl32/stm32mp1_syscfg.o
                0x000000002fff85e8                stm32mp1_syscfg_disable_io_compensation
 .text.asm._cpu_data
                0x000000002fff8614       0x10 /home/lodge/STM32MP157/tf-a/tf-a-stm32mp/../build/trusted/bl32/cpu_data.o
                0x000000002fff8614                _cpu_data
 .text.asm._cpu_data_by_index
                0x000000002fff8624       0x18 /home/lodge/STM32MP157/tf-a/tf-a-stm32mp/../build/trusted/bl32/cpu_data.o
                0x000000002fff8624                _cpu_data_by_index
 .text.asm.reset_handler
                0x000000002fff863c       0x38 /home/lodge/STM32MP157/tf-a/tf-a-stm32mp/../build/trusted/bl32/cpu_helpers.o
                0x000000002fff863c                reset_handler
 .text.asm.prepare_cpu_pwr_dwn
                0x000000002fff8674       0x44 /home/lodge/STM32MP157/tf-a/tf-a-stm32mp/../build/trusted/bl32/cpu_helpers.o
                0x000000002fff8674                prepare_cpu_pwr_dwn
 .text.asm.init_cpu_ops
                0x000000002fff86b8       0x3c /home/lodge/STM32MP157/tf-a/tf-a-stm32mp/../build/trusted/bl32/cpu_helpers.o
                0x000000002fff86b8                init_cpu_ops
 .text.asm.get_cpu_ops_ptr
                0x000000002fff86f4       0x44 /home/lodge/STM32MP157/tf-a/tf-a-stm32mp/../build/trusted/bl32/cpu_helpers.o
                0x000000002fff86f4                get_cpu_ops_ptr
 .text.asm.print_errata_status
                0x000000002fff8738       0x34 /home/lodge/STM32MP157/tf-a/tf-a-stm32mp/../build/trusted/bl32/cpu_helpers.o
                0x000000002fff8738                print_errata_status
 .text.asm.spin_lock
                0x000000002fff876c       0x24 /home/lodge/STM32MP157/tf-a/tf-a-stm32mp/../build/trusted/bl32/spinlock.o
                0x000000002fff876c                spin_lock
 .text.asm.spin_unlock
                0x000000002fff8790       0x18 /home/lodge/STM32MP157/tf-a/tf-a-stm32mp/../build/trusted/bl32/spinlock.o
                0x000000002fff8790                spin_unlock
 .text.asm.psci_do_pwrdown_cache_maintenance
                0x000000002fff87a8       0x18 /home/lodge/STM32MP157/tf-a/tf-a-stm32mp/../build/trusted/bl32/psci_helpers.o
                0x000000002fff87a8                psci_do_pwrdown_cache_maintenance
 .text.asm.psci_do_pwrup_cache_maintenance
                0x000000002fff87c0       0x30 /home/lodge/STM32MP157/tf-a/tf-a-stm32mp/../build/trusted/bl32/psci_helpers.o
                0x000000002fff87c0                psci_do_pwrup_cache_maintenance
 .text.asm.do_stack_maintenance
                0x000000002fff87f0       0x3c /home/lodge/STM32MP157/tf-a/tf-a-stm32mp/../build/trusted/bl32/psci_helpers.o
 .text.asm.psci_power_down_wfi
                0x000000002fff882c       0x10 /home/lodge/STM32MP157/tf-a/tf-a-stm32mp/../build/trusted/bl32/psci_helpers.o
                0x000000002fff882c                psci_power_down_wfi
 .text.asm.plat_get_my_stack
                0x000000002fff883c       0x1c /home/lodge/STM32MP157/tf-a/tf-a-stm32mp/../build/trusted/bl32/platform_mp_stack.o
                0x000000002fff883c                plat_get_my_stack
 .text.asm.plat_set_my_stack
                0x000000002fff8858       0x20 /home/lodge/STM32MP157/tf-a/tf-a-stm32mp/../build/trusted/bl32/platform_mp_stack.o
                0x000000002fff8858                plat_set_my_stack
 .text.asm.do_panic
                0x000000002fff8878       0x3c /home/lodge/STM32MP157/tf-a/tf-a-stm32mp/../build/trusted/bl32/debug.o
                0x000000002fff8878                do_panic
 .text.asm.report_undef_inst
                0x000000002fff88b4       0x10 /home/lodge/STM32MP157/tf-a/tf-a-stm32mp/../build/trusted/bl32/debug.o
                0x000000002fff88b4                report_undef_inst
 .text.asm.report_prefetch_abort
                0x000000002fff88c4       0x10 /home/lodge/STM32MP157/tf-a/tf-a-stm32mp/../build/trusted/bl32/debug.o
                0x000000002fff88c4                report_prefetch_abort
 .text.asm.report_data_abort
                0x000000002fff88d4       0x10 /home/lodge/STM32MP157/tf-a/tf-a-stm32mp/../build/trusted/bl32/debug.o
                0x000000002fff88d4                report_data_abort
 .text.asm.asm_assert
                0x000000002fff88e4       0x7c /home/lodge/STM32MP157/tf-a/tf-a-stm32mp/../build/trusted/bl32/debug.o
                0x000000002fff88e4                asm_assert
 .text.asm.asm_print_str
                0x000000002fff8960       0x1c /home/lodge/STM32MP157/tf-a/tf-a-stm32mp/../build/trusted/bl32/debug.o
                0x000000002fff8960                asm_print_str
 .text.asm.asm_print_hex
                0x000000002fff897c       0x34 /home/lodge/STM32MP157/tf-a/tf-a-stm32mp/../build/trusted/bl32/debug.o
                0x000000002fff897c                asm_print_hex
 .text.asm.flush_dcache_range
                0x000000002fff89b0       0x3c /home/lodge/STM32MP157/tf-a/tf-a-stm32mp/../build/trusted/bl32/cache_helpers.o
                0x000000002fff89b0                flush_dcache_range
 .text.asm.clean_dcache_range
                0x000000002fff89ec       0x3c /home/lodge/STM32MP157/tf-a/tf-a-stm32mp/../build/trusted/bl32/cache_helpers.o
                0x000000002fff89ec                clean_dcache_range
 .text.asm.inv_dcache_range
                0x000000002fff8a28       0x3c /home/lodge/STM32MP157/tf-a/tf-a-stm32mp/../build/trusted/bl32/cache_helpers.o
                0x000000002fff8a28                inv_dcache_range
 .text.asm.do_dcsw_op
                0x000000002fff8a64       0x9c /home/lodge/STM32MP157/tf-a/tf-a-stm32mp/../build/trusted/bl32/cache_helpers.o
 .text.asm.dcsw_op_all
                0x000000002fff8b00       0x14 /home/lodge/STM32MP157/tf-a/tf-a-stm32mp/../build/trusted/bl32/cache_helpers.o
                0x000000002fff8b00                dcsw_op_all
 .text.asm.dcsw_op_level1
                0x000000002fff8b14       0x10 /home/lodge/STM32MP157/tf-a/tf-a-stm32mp/../build/trusted/bl32/cache_helpers.o
                0x000000002fff8b14                dcsw_op_level1
 .text.asm.zeromem
                0x000000002fff8b24       0x64 /home/lodge/STM32MP157/tf-a/tf-a-stm32mp/../build/trusted/bl32/misc_helpers.o
                0x000000002fff8b24                zeromem
                0x000000002fff8b24                zero_normalmem
 .text.asm.disable_mmu_secure
                0x000000002fff8b88       0x1c /home/lodge/STM32MP157/tf-a/tf-a-stm32mp/../build/trusted/bl32/misc_helpers.o
                0x000000002fff8b88                disable_mmu_secure
 .text.asm.disable_mmu_icache_secure
                0x000000002fff8ba4        0xc /home/lodge/STM32MP157/tf-a/tf-a-stm32mp/../build/trusted/bl32/misc_helpers.o
                0x000000002fff8ba4                disable_mmu_icache_secure
 .text.asm.plat_disable_acp
                0x000000002fff8bb0        0x4 /home/lodge/STM32MP157/tf-a/tf-a-stm32mp/../build/trusted/bl32/platform_helpers.o
                0x000000002fff8bb0                plat_disable_acp
 .text          0x000000002fff8bb4       0x24 /home/lodge/STM32MP157/tf-a/tf-a-stm32mp/../build/trusted/bl32/aeabi_uldivmod.o
                0x000000002fff8bb4                __aeabi_uldivmod
 .text.asm.console_stm32_core_init
                0x000000002fff8bd8       0x18 /home/lodge/STM32MP157/tf-a/tf-a-stm32mp/../build/trusted/bl32/stm32_console.o
                0x000000002fff8bd8                console_stm32_core_init
 .text.asm.console_stm32_register
                0x000000002fff8bf0       0x58 /home/lodge/STM32MP157/tf-a/tf-a-stm32mp/../build/trusted/bl32/stm32_console.o
                0x000000002fff8bf0                console_stm32_register
 .text.asm.console_stm32_core_putc
                0x000000002fff8c48       0x48 /home/lodge/STM32MP157/tf-a/tf-a-stm32mp/../build/trusted/bl32/stm32_console.o
                0x000000002fff8c48                console_stm32_core_putc
 .text.asm.console_stm32_putc
                0x000000002fff8c90       0x20 /home/lodge/STM32MP157/tf-a/tf-a-stm32mp/../build/trusted/bl32/stm32_console.o
                0x000000002fff8c90                console_stm32_putc
 .text.asm.console_stm32_core_flush
                0x000000002fff8cb0       0x30 /home/lodge/STM32MP157/tf-a/tf-a-stm32mp/../build/trusted/bl32/stm32_console.o
                0x000000002fff8cb0                console_stm32_core_flush
 .text.asm.console_stm32_flush
                0x000000002fff8ce0       0x20 /home/lodge/STM32MP157/tf-a/tf-a-stm32mp/../build/trusted/bl32/stm32_console.o
                0x000000002fff8ce0                console_stm32_flush
 .text.asm.enable_mmu_direct_svc_mon
                0x000000002fff8d00       0x80 /home/lodge/STM32MP157/tf-a/tf-a-stm32mp/../build/trusted/bl32/enable_mmu.o
                0x000000002fff8d00                enable_mmu_direct_svc_mon
 .text.asm.cortex_a7_disable_smp
                0x000000002fff8d80       0x18 /home/lodge/STM32MP157/tf-a/tf-a-stm32mp/../build/trusted/bl32/cortex_a7.o
 .text.asm.cortex_a7_enable_smp
                0x000000002fff8d98       0x14 /home/lodge/STM32MP157/tf-a/tf-a-stm32mp/../build/trusted/bl32/cortex_a7.o
 .text.asm.cortex_a7_reset_func
                0x000000002fff8dac        0x4 /home/lodge/STM32MP157/tf-a/tf-a-stm32mp/../build/trusted/bl32/cortex_a7.o
 .text.asm.cortex_a7_core_pwr_dwn
                0x000000002fff8db0       0x30 /home/lodge/STM32MP157/tf-a/tf-a-stm32mp/../build/trusted/bl32/cortex_a7.o
 .text.asm.cortex_a7_cluster_pwr_dwn
                0x000000002fff8de0       0x34 /home/lodge/STM32MP157/tf-a/tf-a-stm32mp/../build/trusted/bl32/cortex_a7.o
 .text.asm.cortex_a7_errata_report
                0x000000002fff8e14        0x4 /home/lodge/STM32MP157/tf-a/tf-a-stm32mp/../build/trusted/bl32/cortex_a7.o
 .text.asm.plat_report_exception
                0x000000002fff8e18       0x74 /home/lodge/STM32MP157/tf-a/tf-a-stm32mp/../build/trusted/bl32/stm32mp1_helper.o
                0x000000002fff8e18                plat_report_exception
 .text.asm.plat_report_undef_inst
                0x000000002fff8e8c       0x30 /home/lodge/STM32MP157/tf-a/tf-a-stm32mp/../build/trusted/bl32/stm32mp1_helper.o
                0x000000002fff8e8c                plat_report_undef_inst
 .text.asm.plat_report_prefetch_abort
                0x000000002fff8ebc       0x58 /home/lodge/STM32MP157/tf-a/tf-a-stm32mp/../build/trusted/bl32/stm32mp1_helper.o
                0x000000002fff8ebc                plat_report_prefetch_abort
 .text.asm.plat_report_data_abort
                0x000000002fff8f14       0x58 /home/lodge/STM32MP157/tf-a/tf-a-stm32mp/../build/trusted/bl32/stm32mp1_helper.o
                0x000000002fff8f14                plat_report_data_abort
 .text.asm.plat_reset_handler
                0x000000002fff8f6c        0x4 /home/lodge/STM32MP157/tf-a/tf-a-stm32mp/../build/trusted/bl32/stm32mp1_helper.o
                0x000000002fff8f6c                plat_reset_handler
 .text.asm.plat_stm32mp1_get_core_pos
                0x000000002fff8f70       0x10 /home/lodge/STM32MP157/tf-a/tf-a-stm32mp/../build/trusted/bl32/stm32mp1_helper.o
 .text.asm.plat_my_core_pos
                0x000000002fff8f80        0x8 /home/lodge/STM32MP157/tf-a/tf-a-stm32mp/../build/trusted/bl32/stm32mp1_helper.o
                0x000000002fff8f80                plat_my_core_pos
 .text.asm.plat_crash_console_init
                0x000000002fff8f88       0xac /home/lodge/STM32MP157/tf-a/tf-a-stm32mp/../build/trusted/bl32/stm32mp1_helper.o
                0x000000002fff8f88                plat_crash_console_init
 .text.asm.plat_crash_console_flush
                0x000000002fff9034        0xc /home/lodge/STM32MP157/tf-a/tf-a-stm32mp/../build/trusted/bl32/stm32mp1_helper.o
                0x000000002fff9034                plat_crash_console_flush
 .text.asm.plat_crash_console_putc
                0x000000002fff9040        0xc /home/lodge/STM32MP157/tf-a/tf-a-stm32mp/../build/trusted/bl32/stm32mp1_helper.o
                0x000000002fff9040                plat_crash_console_putc
 .text.asm.plat_panic_handler
                0x000000002fff904c       0x14 /home/lodge/STM32MP157/tf-a/tf-a-stm32mp/../build/trusted/bl32/stm32mp1_helper.o
                0x000000002fff904c                plat_panic_handler
 .text.asm.wfi_svc_int_enable
                0x000000002fff9060       0x44 /home/lodge/STM32MP157/tf-a/tf-a-stm32mp/../build/trusted/bl32/stm32mp1_helper.o
                0x000000002fff9060                wfi_svc_int_enable
 .text.fdt32_to_cpu
                0x000000002fff90a4        0x4 /home/lodge/STM32MP157/tf-a/tf-a-stm32mp/../build/trusted/lib/libfdt.a(fdt.o)
 .text.fdt_check_header
                0x000000002fff90a8       0x58 /home/lodge/STM32MP157/tf-a/tf-a-stm32mp/../build/trusted/lib/libfdt.a(fdt.o)
                0x000000002fff90a8                fdt_check_header
 .text.fdt_offset_ptr
                0x000000002fff9100       0x3c /home/lodge/STM32MP157/tf-a/tf-a-stm32mp/../build/trusted/lib/libfdt.a(fdt.o)
                0x000000002fff9100                fdt_offset_ptr
 .text.fdt_next_tag
                0x000000002fff913c       0xc8 /home/lodge/STM32MP157/tf-a/tf-a-stm32mp/../build/trusted/lib/libfdt.a(fdt.o)
                0x000000002fff913c                fdt_next_tag
 .text.fdt_check_node_offset_
                0x000000002fff9204       0x24 /home/lodge/STM32MP157/tf-a/tf-a-stm32mp/../build/trusted/lib/libfdt.a(fdt.o)
                0x000000002fff9204                fdt_check_node_offset_
 .text.fdt_check_prop_offset_
                0x000000002fff9228       0x24 /home/lodge/STM32MP157/tf-a/tf-a-stm32mp/../build/trusted/lib/libfdt.a(fdt.o)
                0x000000002fff9228                fdt_check_prop_offset_
 .text.fdt_next_node
                0x000000002fff924c       0x6e /home/lodge/STM32MP157/tf-a/tf-a-stm32mp/../build/trusted/lib/libfdt.a(fdt.o)
                0x000000002fff924c                fdt_next_node
 .text.fdt_first_subnode
                0x000000002fff92ba       0x26 /home/lodge/STM32MP157/tf-a/tf-a-stm32mp/../build/trusted/lib/libfdt.a(fdt.o)
                0x000000002fff92ba                fdt_first_subnode
 .text.fdt_next_subnode
                0x000000002fff92e0       0x2a /home/lodge/STM32MP157/tf-a/tf-a-stm32mp/../build/trusted/lib/libfdt.a(fdt.o)
                0x000000002fff92e0                fdt_next_subnode
 *fill*         0x000000002fff930a        0x2 
 .text.fdt_address_cells
                0x000000002fff930c       0x48 /home/lodge/STM32MP157/tf-a/tf-a-stm32mp/../build/trusted/lib/libfdt.a(fdt_addresses.o)
                0x000000002fff930c                fdt_address_cells
 .text.fdt32_to_cpu
                0x000000002fff9354        0x4 /home/lodge/STM32MP157/tf-a/tf-a-stm32mp/../build/trusted/lib/libfdt.a(fdt_ro.o)
 .text.nextprop_
                0x000000002fff9358       0x32 /home/lodge/STM32MP157/tf-a/tf-a-stm32mp/../build/trusted/lib/libfdt.a(fdt_ro.o)
 .text.fdt_get_property_by_offset_
                0x000000002fff938a       0x36 /home/lodge/STM32MP157/tf-a/tf-a-stm32mp/../build/trusted/lib/libfdt.a(fdt_ro.o)
 .text.fdt_string
                0x000000002fff93c0       0x10 /home/lodge/STM32MP157/tf-a/tf-a-stm32mp/../build/trusted/lib/libfdt.a(fdt_ro.o)
                0x000000002fff93c0                fdt_string
 .text.fdt_get_name
                0x000000002fff93d0       0x5e /home/lodge/STM32MP157/tf-a/tf-a-stm32mp/../build/trusted/lib/libfdt.a(fdt_ro.o)
                0x000000002fff93d0                fdt_get_name
 .text.fdt_subnode_offset_namelen
                0x000000002fff942e       0x80 /home/lodge/STM32MP157/tf-a/tf-a-stm32mp/../build/trusted/lib/libfdt.a(fdt_ro.o)
                0x000000002fff942e                fdt_subnode_offset_namelen
 .text.fdt_subnode_offset
                0x000000002fff94ae       0x1e /home/lodge/STM32MP157/tf-a/tf-a-stm32mp/../build/trusted/lib/libfdt.a(fdt_ro.o)
                0x000000002fff94ae                fdt_subnode_offset
 .text.fdt_first_property_offset
                0x000000002fff94cc       0x18 /home/lodge/STM32MP157/tf-a/tf-a-stm32mp/../build/trusted/lib/libfdt.a(fdt_ro.o)
                0x000000002fff94cc                fdt_first_property_offset
 .text.fdt_next_property_offset
                0x000000002fff94e4       0x18 /home/lodge/STM32MP157/tf-a/tf-a-stm32mp/../build/trusted/lib/libfdt.a(fdt_ro.o)
                0x000000002fff94e4                fdt_next_property_offset
 .text.fdt_get_property_namelen_
                0x000000002fff94fc       0x76 /home/lodge/STM32MP157/tf-a/tf-a-stm32mp/../build/trusted/lib/libfdt.a(fdt_ro.o)
 .text.fdt_getprop_namelen
                0x000000002fff9572       0x3e /home/lodge/STM32MP157/tf-a/tf-a-stm32mp/../build/trusted/lib/libfdt.a(fdt_ro.o)
                0x000000002fff9572                fdt_getprop_namelen
 .text.fdt_getprop
                0x000000002fff95b0       0x22 /home/lodge/STM32MP157/tf-a/tf-a-stm32mp/../build/trusted/lib/libfdt.a(fdt_ro.o)
                0x000000002fff95b0                fdt_getprop
 *fill*         0x000000002fff95d2        0x2 
 .text.fdt_get_phandle
                0x000000002fff95d4       0x44 /home/lodge/STM32MP157/tf-a/tf-a-stm32mp/../build/trusted/lib/libfdt.a(fdt_ro.o)
                0x000000002fff95d4                fdt_get_phandle
 .text.fdt_get_alias_namelen
                0x000000002fff9618       0x2c /home/lodge/STM32MP157/tf-a/tf-a-stm32mp/../build/trusted/lib/libfdt.a(fdt_ro.o)
                0x000000002fff9618                fdt_get_alias_namelen
 .text.fdt_path_offset_namelen
                0x000000002fff9644       0x90 /home/lodge/STM32MP157/tf-a/tf-a-stm32mp/../build/trusted/lib/libfdt.a(fdt_ro.o)
                0x000000002fff9644                fdt_path_offset_namelen
 .text.fdt_path_offset
                0x000000002fff96d4       0x1a /home/lodge/STM32MP157/tf-a/tf-a-stm32mp/../build/trusted/lib/libfdt.a(fdt_ro.o)
                0x000000002fff96d4                fdt_path_offset
 .text.fdt_supernode_atdepth_offset
                0x000000002fff96ee       0x68 /home/lodge/STM32MP157/tf-a/tf-a-stm32mp/../build/trusted/lib/libfdt.a(fdt_ro.o)
                0x000000002fff96ee                fdt_supernode_atdepth_offset
 .text.fdt_node_depth
                0x000000002fff9756       0x1e /home/lodge/STM32MP157/tf-a/tf-a-stm32mp/../build/trusted/lib/libfdt.a(fdt_ro.o)
                0x000000002fff9756                fdt_node_depth
 .text.fdt_parent_offset
                0x000000002fff9774       0x20 /home/lodge/STM32MP157/tf-a/tf-a-stm32mp/../build/trusted/lib/libfdt.a(fdt_ro.o)
                0x000000002fff9774                fdt_parent_offset
 .text.fdt_node_offset_by_phandle
                0x000000002fff9794       0x42 /home/lodge/STM32MP157/tf-a/tf-a-stm32mp/../build/trusted/lib/libfdt.a(fdt_ro.o)
                0x000000002fff9794                fdt_node_offset_by_phandle
 .text.fdt_stringlist_contains
                0x000000002fff97d6       0x46 /home/lodge/STM32MP157/tf-a/tf-a-stm32mp/../build/trusted/lib/libfdt.a(fdt_ro.o)
                0x000000002fff97d6                fdt_stringlist_contains
 .text.fdt_stringlist_search
                0x000000002fff981c       0x66 /home/lodge/STM32MP157/tf-a/tf-a-stm32mp/../build/trusted/lib/libfdt.a(fdt_ro.o)
                0x000000002fff981c                fdt_stringlist_search
 *fill*         0x000000002fff9882        0x2 
 .text.fdt_node_check_compatible
                0x000000002fff9884       0x28 /home/lodge/STM32MP157/tf-a/tf-a-stm32mp/../build/trusted/lib/libfdt.a(fdt_ro.o)
                0x000000002fff9884                fdt_node_check_compatible
 .text.fdt_node_offset_by_compatible
                0x000000002fff98ac       0x40 /home/lodge/STM32MP157/tf-a/tf-a-stm32mp/../build/trusted/lib/libfdt.a(fdt_ro.o)
                0x000000002fff98ac                fdt_node_offset_by_compatible
 .text.__assert
                0x000000002fff98ec       0x18 /home/lodge/STM32MP157/tf-a/tf-a-stm32mp/../build/trusted/lib/libc.a(assert.o)
                0x000000002fff98ec                __assert
 .text.memchr   0x000000002fff9904       0x1c /home/lodge/STM32MP157/tf-a/tf-a-stm32mp/../build/trusted/lib/libc.a(memchr.o)
                0x000000002fff9904                memchr
 .text.memcmp   0x000000002fff9920       0x1c /home/lodge/STM32MP157/tf-a/tf-a-stm32mp/../build/trusted/lib/libc.a(memcmp.o)
                0x000000002fff9920                memcmp
 .text.memcpy   0x000000002fff993c       0x16 /home/lodge/STM32MP157/tf-a/tf-a-stm32mp/../build/trusted/lib/libc.a(memcpy.o)
                0x000000002fff993c                memcpy
 .text.memmove  0x000000002fff9952       0x2c /home/lodge/STM32MP157/tf-a/tf-a-stm32mp/../build/trusted/lib/libc.a(memmove.o)
                0x000000002fff9952                memmove
 .text.memset   0x000000002fff997e       0x10 /home/lodge/STM32MP157/tf-a/tf-a-stm32mp/../build/trusted/lib/libc.a(memset.o)
                0x000000002fff997e                memset
 .text.unsigned_num_print
                0x000000002fff998e       0x7c /home/lodge/STM32MP157/tf-a/tf-a-stm32mp/../build/trusted/lib/libc.a(printf.o)
 *fill*         0x000000002fff9a0a        0x2 
 .text.vprintf  0x000000002fff9a0c      0x198 /home/lodge/STM32MP157/tf-a/tf-a-stm32mp/../build/trusted/lib/libc.a(printf.o)
                0x000000002fff9a0c                vprintf
 .text.printf   0x000000002fff9ba4       0x1a /home/lodge/STM32MP157/tf-a/tf-a-stm32mp/../build/trusted/lib/libc.a(printf.o)
                0x000000002fff9ba4                printf
 .text.putchar  0x000000002fff9bbe       0x16 /home/lodge/STM32MP157/tf-a/tf-a-stm32mp/../build/trusted/lib/libc.a(putchar.o)
                0x000000002fff9bbe                putchar
 .text.strchr   0x000000002fff9bd4       0x16 /home/lodge/STM32MP157/tf-a/tf-a-stm32mp/../build/trusted/lib/libc.a(strchr.o)
                0x000000002fff9bd4                strchr
 .text.strcmp   0x000000002fff9bea       0x18 /home/lodge/STM32MP157/tf-a/tf-a-stm32mp/../build/trusted/lib/libc.a(strcmp.o)
                0x000000002fff9bea                strcmp
 .text.strlcpy  0x000000002fff9c02       0x38 /home/lodge/STM32MP157/tf-a/tf-a-stm32mp/../build/trusted/lib/libc.a(strlcpy.o)
                0x000000002fff9c02                strlcpy
 .text.strlen   0x000000002fff9c3a       0x10 /home/lodge/STM32MP157/tf-a/tf-a-stm32mp/../build/trusted/lib/libc.a(strlen.o)
                0x000000002fff9c3a                strlen
 .text.strncmp  0x000000002fff9c4a       0x28 /home/lodge/STM32MP157/tf-a/tf-a-stm32mp/../build/trusted/lib/libc.a(strncmp.o)
                0x000000002fff9c4a                strncmp
 .text.strnlen  0x000000002fff9c72       0x14 /home/lodge/STM32MP157/tf-a/tf-a-stm32mp/../build/trusted/lib/libc.a(strnlen.o)
                0x000000002fff9c72                strnlen
 .text.strrchr  0x000000002fff9c86       0x1a /home/lodge/STM32MP157/tf-a/tf-a-stm32mp/../build/trusted/lib/libc.a(strrchr.o)
                0x000000002fff9c86                strrchr
 *(.rodata*)
 .rodata.build_message
                0x000000002fff9ca0       0x1e /home/lodge/STM32MP157/tf-a/tf-a-stm32mp/../build/trusted/bl32/build_message.o
                0x000000002fff9ca0                build_message
 .rodata.version_string
                0x000000002fff9cbe       0x1f /home/lodge/STM32MP157/tf-a/tf-a-stm32mp/../build/trusted/bl32/build_message.o
                0x000000002fff9cbe                version_string
 .rodata.smc_get_ctx.str1.1
                0x000000002fff9cdd       0x1a /home/lodge/STM32MP157/tf-a/tf-a-stm32mp/../build/trusted/bl32/sp_min_main.o
 .rodata.sp_min_main.str1.1
                0x000000002fff9cf7       0x5e /home/lodge/STM32MP157/tf-a/tf-a-stm32mp/../build/trusted/bl32/sp_min_main.o
 *fill*         0x000000002fff9d55        0x3 
 .rodata.psci_args.0
                0x000000002fff9d58        0xc /home/lodge/STM32MP157/tf-a/tf-a-stm32mp/../build/trusted/bl32/sp_min_main.o
 .rodata.handle_runtime_svc.str1.1
                0x000000002fff9d64       0x15 /home/lodge/STM32MP157/tf-a/tf-a-stm32mp/../build/trusted/bl32/runtime_svc.o
 .rodata.runtime_svc_init.str1.1
                0x000000002fff9d79       0x50 /home/lodge/STM32MP157/tf-a/tf-a-stm32mp/../build/trusted/bl32/runtime_svc.o
 .rodata.std_svc_smc_handler.str1.1
                0x000000002fff9dc9       0x2d /home/lodge/STM32MP157/tf-a/tf-a-stm32mp/../build/trusted/bl32/std_svc_setup.o
 .rodata.std_svc_setup.str1.1
                0x000000002fff9df6       0x21 /home/lodge/STM32MP157/tf-a/tf-a-stm32mp/../build/trusted/bl32/std_svc_setup.o
 .rodata.str1.1
                0x000000002fff9e17        0x8 /home/lodge/STM32MP157/tf-a/tf-a-stm32mp/../build/trusted/bl32/std_svc_setup.o
 .rodata.cm_setup_context.str1.1
                0x000000002fff9e1f       0x27 /home/lodge/STM32MP157/tf-a/tf-a-stm32mp/../build/trusted/bl32/context_mgmt.o
 .rodata.psci_do_cpu_off.str1.1
                0x000000002fff9e46       0x14 /home/lodge/STM32MP157/tf-a/tf-a-stm32mp/../build/trusted/bl32/psci_off.o
 .rodata.psci_cpu_on_start.str1.1
                0x000000002fff9e5a       0x13 /home/lodge/STM32MP157/tf-a/tf-a-stm32mp/../build/trusted/bl32/psci_on.o
 .rodata.psci_cpu_suspend_start.str1.1
                0x000000002fff9e6d       0x18 /home/lodge/STM32MP157/tf-a/tf-a-stm32mp/../build/trusted/bl32/psci_suspend.o
 .rodata.psci_validate_power_state.str1.1
                0x000000002fff9e85       0x17 /home/lodge/STM32MP157/tf-a/tf-a-stm32mp/../build/trusted/bl32/psci_common.o
 .rodata.psci_warmboot_entrypoint.str1.1
                0x000000002fff9e9c       0x20 /home/lodge/STM32MP157/tf-a/tf-a-stm32mp/../build/trusted/bl32/psci_common.o
 .rodata.psci_print_power_domain_map.str1.1
                0x000000002fff9ebc       0x91 /home/lodge/STM32MP157/tf-a/tf-a-stm32mp/../build/trusted/bl32/psci_common.o
 .rodata.str1.1
                0x000000002fff9f4d        0xe /home/lodge/STM32MP157/tf-a/tf-a-stm32mp/../build/trusted/bl32/psci_common.o
                                         0x11 (size before relaxing)
 .rodata        0x000000002fff9f5b        0x2 /home/lodge/STM32MP157/tf-a/tf-a-stm32mp/../build/trusted/bl32/psci_common.o
 *fill*         0x000000002fff9f5d        0x3 
 .rodata.psci_state_type_str.0
                0x000000002fff9f60        0xc /home/lodge/STM32MP157/tf-a/tf-a-stm32mp/../build/trusted/bl32/psci_common.o
 .rodata.psci_cpu_suspend.str1.1
                0x000000002fff9f6c       0x48 /home/lodge/STM32MP157/tf-a/tf-a-stm32mp/../build/trusted/bl32/psci_main.o
 .rodata.psci_smc_handler.str1.1
                0x000000002fff9fb4       0x20 /home/lodge/STM32MP157/tf-a/tf-a-stm32mp/../build/trusted/bl32/psci_main.o
 .rodata        0x000000002fff9fd4        0x2 /home/lodge/STM32MP157/tf-a/tf-a-stm32mp/../build/trusted/bl32/psci_main.o
 .rodata.psci_setup.str1.1
                0x000000002fff9fd6       0x16 /home/lodge/STM32MP157/tf-a/tf-a-stm32mp/../build/trusted/bl32/psci_setup.o
 .rodata.psci_system_off.str1.1
                0x000000002fff9fec       0x1b /home/lodge/STM32MP157/tf-a/tf-a-stm32mp/../build/trusted/bl32/psci_system_off.o
 .rodata.psci_mem_protect.str1.1
                0x000000002fffa007       0x1c /home/lodge/STM32MP157/tf-a/tf-a-stm32mp/../build/trusted/bl32/psci_mem_protect.o
 .rodata.bakery_lock_get.str1.1
                0x000000002fffa023       0x26 /home/lodge/STM32MP157/tf-a/tf-a-stm32mp/../build/trusted/bl32/bakery_lock_normal.o
 .rodata.rcc_calibration.str1.1
                0x000000002fffa049       0x2d /home/lodge/STM32MP157/tf-a/tf-a-stm32mp/../build/trusted/bl32/stm32mp1_calib.o
 .rodata.stm32mp1_calib_init.str1.1
                0x000000002fffa076       0x29 /home/lodge/STM32MP157/tf-a/tf-a-stm32mp/../build/trusted/bl32/stm32mp1_calib.o
 .rodata.etzpc_configure_decprot.str1.1
                0x000000002fffa09f       0x19 /home/lodge/STM32MP157/tf-a/tf-a-stm32mp/../build/trusted/bl32/etzpc.o
 .rodata.etzpc_init.str1.1
                0x000000002fffa0b8       0x5a /home/lodge/STM32MP157/tf-a/tf-a-stm32mp/../build/trusted/bl32/etzpc.o
 .rodata.stm32_rng_read.str1.1
                0x000000002fffa112        0xc /home/lodge/STM32MP157/tf-a/tf-a-stm32mp/../build/trusted/bl32/stm32_rng.o
 .rodata.stm32_rng_init.str1.1
                0x000000002fffa11e       0x28 /home/lodge/STM32MP157/tf-a/tf-a-stm32mp/../build/trusted/bl32/stm32_rng.o
 .rodata.stm32_rtc_get_date.str1.1
                0x000000002fffa146       0x1b /home/lodge/STM32MP157/tf-a/tf-a-stm32mp/../build/trusted/bl32/stm32_rtc.o
 .rodata.stm32_rtc_init.str1.1
                0x000000002fffa161       0x10 /home/lodge/STM32MP157/tf-a/tf-a-stm32mp/../build/trusted/bl32/stm32_rtc.o
 .rodata.month_len.0
                0x000000002fffa171        0xc /home/lodge/STM32MP157/tf-a/tf-a-stm32mp/../build/trusted/bl32/stm32_rtc.o
 .rodata.stm32_tamp_configure_internal.str1.1
                0x000000002fffa17d       0x1f /home/lodge/STM32MP157/tf-a/tf-a-stm32mp/../build/trusted/bl32/stm32_tamp.o
 .rodata.stm32_tamp_configure_external.str1.1
                0x000000002fffa19c       0x26 /home/lodge/STM32MP157/tf-a/tf-a-stm32mp/../build/trusted/bl32/stm32_tamp.o
 .rodata.stm32_tamp_it_handler.str1.1
                0x000000002fffa1c2       0x3a /home/lodge/STM32MP157/tf-a/tf-a-stm32mp/../build/trusted/bl32/stm32_tamp.o
 .rodata.stm32_tamp_init.str1.1
                0x000000002fffa1fc       0x4e /home/lodge/STM32MP157/tf-a/tf-a-stm32mp/../build/trusted/bl32/stm32_tamp.o
 .rodata.stm32_timer_config.str1.1
                0x000000002fffa24a       0x2f /home/lodge/STM32MP157/tf-a/tf-a-stm32mp/../build/trusted/bl32/stm32_timer.o
 .rodata.stm32_timer_init.str1.1
                0x000000002fffa279       0x47 /home/lodge/STM32MP157/tf-a/tf-a-stm32mp/../build/trusted/bl32/stm32_timer.o
 .rodata.__func__.0
                0x000000002fffa2c0       0x18 /home/lodge/STM32MP157/tf-a/tf-a-stm32mp/../build/trusted/bl32/stm32_timer.o
 .rodata.stm32mp1_tamper_action.str1.1
                0x000000002fffa2d8       0x13 /home/lodge/STM32MP157/tf-a/tf-a-stm32mp/../build/trusted/bl32/sp_min_setup.o
 .rodata.sp_min_plat_fiq_handler.str1.1
                0x000000002fffa2eb       0xc9 /home/lodge/STM32MP157/tf-a/tf-a-stm32mp/../build/trusted/bl32/sp_min_setup.o
 .rodata.sp_min_early_platform_setup2.str1.1
                0x000000002fffa3b4       0x27 /home/lodge/STM32MP157/tf-a/tf-a-stm32mp/../build/trusted/bl32/sp_min_setup.o
 .rodata.sp_min_platform_setup.str1.1
                0x000000002fffa3db       0x4c /home/lodge/STM32MP157/tf-a/tf-a-stm32mp/../build/trusted/bl32/sp_min_setup.o
 .rodata.str1.1
                0x000000002fffa427       0x6e /home/lodge/STM32MP157/tf-a/tf-a-stm32mp/../build/trusted/bl32/sp_min_setup.o
 *fill*         0x000000002fffa495        0x3 
 .rodata.tamper_name
                0x000000002fffa498       0x18 /home/lodge/STM32MP157/tf-a/tf-a-stm32mp/../build/trusted/bl32/sp_min_setup.o
 .rodata.stm32_apply_pmic_suspend_config.str1.1
                0x000000002fffa4b0       0x26 /home/lodge/STM32MP157/tf-a/tf-a-stm32mp/../build/trusted/bl32/stm32mp1_low_power.o
 .rodata.stm32_enter_low_power.str1.1
                0x000000002fffa4d6       0x28 /home/lodge/STM32MP157/tf-a/tf-a-stm32mp/../build/trusted/bl32/stm32mp1_low_power.o
 .rodata.str1.1
                0x000000002fffa4fe       0x31 /home/lodge/STM32MP157/tf-a/tf-a-stm32mp/../build/trusted/bl32/stm32mp1_low_power.o
 *fill*         0x000000002fffa52f        0x1 
 .rodata.config_pwr
                0x000000002fffa530       0x54 /home/lodge/STM32MP157/tf-a/tf-a-stm32mp/../build/trusted/bl32/stm32mp1_low_power.o
 .rodata.stm32_cpu_standby.str1.1
                0x000000002fffa584       0x1f /home/lodge/STM32MP157/tf-a/tf-a-stm32mp/../build/trusted/bl32/stm32mp1_pm.o
 *fill*         0x000000002fffa5a3        0x1 
 .rodata.stm32_psci_ops
                0x000000002fffa5a4       0x54 /home/lodge/STM32MP157/tf-a/tf-a-stm32mp/../build/trusted/bl32/stm32mp1_pm.o
 .rodata.stm32mp1_init_lp_states.str1.1
                0x000000002fffa5f8       0x77 /home/lodge/STM32MP157/tf-a/tf-a-stm32mp/../build/trusted/bl32/stm32mp1_power_config.o
 .rodata.stm32mp1_get_lp_soc_mode.str1.1
                0x000000002fffa66f       0x29 /home/lodge/STM32MP157/tf-a/tf-a-stm32mp/../build/trusted/bl32/stm32mp1_power_config.o
 .rodata.decprot2str.str1.1
                0x000000002fffa698        0xf /home/lodge/STM32MP157/tf-a/tf-a-stm32mp/../build/trusted/bl32/stm32mp1_shared_resources.o
 .rodata.check_decprot.str1.1
                0x000000002fffa6a7       0x57 /home/lodge/STM32MP157/tf-a/tf-a-stm32mp/../build/trusted/bl32/stm32mp1_shared_resources.o
 .rodata.get_gpioz_nbpin.str1.1
                0x000000002fffa6fe       0x2d /home/lodge/STM32MP157/tf-a/tf-a-stm32mp/../build/trusted/bl32/stm32mp1_shared_resources.o
 .rodata.register_periph.str1.1
                0x000000002fffa72b       0x2b /home/lodge/STM32MP157/tf-a/tf-a-stm32mp/../build/trusted/bl32/stm32mp1_shared_resources.o
 .rodata.stm32mp_register_secure_gpio.str1.1
                0x000000002fffa756       0x21 /home/lodge/STM32MP157/tf-a/tf-a-stm32mp/../build/trusted/bl32/stm32mp1_shared_resources.o
 .rodata.stm32mp_lock_periph_registering.str1.1
                0x000000002fffa777       0x57 /home/lodge/STM32MP157/tf-a/tf-a-stm32mp/../build/trusted/bl32/stm32mp1_shared_resources.o
                                         0x62 (size before relaxing)
 .rodata.str1.1
                0x000000002fffa7ce       0x9a /home/lodge/STM32MP157/tf-a/tf-a-stm32mp/../build/trusted/bl32/stm32mp1_shared_resources.o
 .rodata.shres2decprot_tbl
                0x000000002fffa868       0x90 /home/lodge/STM32MP157/tf-a/tf-a-stm32mp/../build/trusted/bl32/stm32mp1_shared_resources.o
 .rodata.shres2str_id_tbl
                0x000000002fffa8f8       0x50 /home/lodge/STM32MP157/tf-a/tf-a-stm32mp/../build/trusted/bl32/stm32mp1_shared_resources.o
 .rodata.stm32mp1_power_domain_tree_desc
                0x000000002fffa948        0x2 /home/lodge/STM32MP157/tf-a/tf-a-stm32mp/../build/trusted/bl32/stm32mp1_topology.o
 .rodata.gicv2_secure_spis_configure_props.str1.1
                0x000000002fffa94a       0x23 /home/lodge/STM32MP157/tf-a/tf-a-stm32mp/../build/trusted/bl32/gicv2_helpers.o
 .rodata.gicv2_cpuif_enable.str1.1
                0x000000002fffa96d       0x20 /home/lodge/STM32MP157/tf-a/tf-a-stm32mp/../build/trusted/bl32/gicv2_main.o
 .rodata.gicv2_driver_init.str1.1
                0x000000002fffa98d       0x1f /home/lodge/STM32MP157/tf-a/tf-a-stm32mp/../build/trusted/bl32/gicv2_main.o
 .rodata.stm32_gic_init.str1.1
                0x000000002fffa9ac       0x23 /home/lodge/STM32MP157/tf-a/tf-a-stm32mp/../build/trusted/bl32/stm32_gic.o
                                         0x27 (size before relaxing)
 .rodata.stm32_gic_enable_spi.str1.1
                0x000000002fffa9cf       0x28 /home/lodge/STM32MP157/tf-a/tf-a-stm32mp/../build/trusted/bl32/stm32_gic.o
                                         0x38 (size before relaxing)
 *fill*         0x000000002fffa9f7        0x1 
 .rodata.stm32_interrupt_props
                0x000000002fffa9f8       0x2c /home/lodge/STM32MP157/tf-a/tf-a-stm32mp/../build/trusted/bl32/stm32_gic.o
 .rodata.plat_get_target_pwr_state.str1.1
                0x000000002fffaa24       0x1f /home/lodge/STM32MP157/tf-a/tf-a-stm32mp/../build/trusted/bl32/plat_psci_common.o
 .rodata.stm32mp1_svc_smc_handler.str1.1
                0x000000002fffaa43       0x2c /home/lodge/STM32MP157/tf-a/tf-a-stm32mp/../build/trusted/bl32/stm32mp1_svc_setup.o
 .rodata.str1.1
                0x000000002fffaa6f       0x11 /home/lodge/STM32MP157/tf-a/tf-a-stm32mp/../build/trusted/bl32/stm32mp1_svc_setup.o
 .rodata.discover_list_protocols.str1.1
                0x000000002fffaa80       0x1b /home/lodge/STM32MP157/tf-a/tf-a-stm32mp/../build/trusted/bl32/base.o
 *fill*         0x000000002fffaa9b        0x1 
 .rodata.scmi_base_handler_table
                0x000000002fffaa9c       0x1c /home/lodge/STM32MP157/tf-a/tf-a-stm32mp/../build/trusted/bl32/base.o
 .rodata.write_rate_desc_array_in_buffer.str1.1
                0x000000002fffaab8       0x1c /home/lodge/STM32MP157/tf-a/tf-a-stm32mp/../build/trusted/bl32/clock.o
 .rodata.scmi_clock_handler_table
                0x000000002fffaad4       0x20 /home/lodge/STM32MP157/tf-a/tf-a-stm32mp/../build/trusted/bl32/clock.o
 .rodata.scmi_status_response.str1.1
                0x000000002fffaaf4       0x1c /home/lodge/STM32MP157/tf-a/tf-a-stm32mp/../build/trusted/bl32/entry.o
 .rodata.scmi_process_message.str1.1
                0x000000002fffab10       0x34 /home/lodge/STM32MP157/tf-a/tf-a-stm32mp/../build/trusted/bl32/entry.o
 .rodata.reset_domain_attributes.str1.1
                0x000000002fffab44       0x23 /home/lodge/STM32MP157/tf-a/tf-a-stm32mp/../build/trusted/bl32/reset_domain.o
 *fill*         0x000000002fffab67        0x1 
 .rodata.scmi_rd_handler_table
                0x000000002fffab68       0x14 /home/lodge/STM32MP157/tf-a/tf-a-stm32mp/../build/trusted/bl32/reset_domain.o
 .rodata.scmi_proccess_smt.str1.1
                0x000000002fffab7c       0x1a /home/lodge/STM32MP157/tf-a/tf-a-stm32mp/../build/trusted/bl32/smt.o
 .rodata.find_resource.part.0.str1.1
                0x000000002fffab96       0x21 /home/lodge/STM32MP157/tf-a/tf-a-stm32mp/../build/trusted/bl32/stm32mp1_scmi.o
 .rodata.stm32mp1_init_scmi_server.str1.1
                0x000000002fffabb7       0x3b /home/lodge/STM32MP157/tf-a/tf-a-stm32mp/../build/trusted/bl32/stm32mp1_scmi.o
 .rodata.str1.1
                0x000000002fffabf2       0xc5 /home/lodge/STM32MP157/tf-a/tf-a-stm32mp/../build/trusted/bl32/stm32mp1_scmi.o
                                         0xce (size before relaxing)
 *fill*         0x000000002fffacb7        0x1 
 .rodata.agent_resources
                0x000000002fffacb8       0x20 /home/lodge/STM32MP157/tf-a/tf-a-stm32mp/../build/trusted/bl32/stm32mp1_scmi.o
 .rodata.plat_protocol_list
                0x000000002fffacd8        0x3 /home/lodge/STM32MP157/tf-a/tf-a-stm32mp/../build/trusted/bl32/stm32mp1_scmi.o
 .rodata.sub_vendor
                0x000000002fffacdb        0x1 /home/lodge/STM32MP157/tf-a/tf-a-stm32mp/../build/trusted/bl32/stm32mp1_scmi.o
 .rodata.vendor
                0x000000002fffacdc        0x3 /home/lodge/STM32MP157/tf-a/tf-a-stm32mp/../build/trusted/bl32/stm32mp1_scmi.o
 .rodata.tf_log.str1.1
                0x000000002fffacdf       0x10 /home/lodge/STM32MP157/tf-a/tf-a-stm32mp/../build/trusted/bl32/tf_log.o
 .rodata.console_unregister.str1.1
                0x000000002fffacef       0x20 /home/lodge/STM32MP157/tf-a/tf-a-stm32mp/../build/trusted/bl32/multi_console.o
 .rodata.str1.1
                0x000000002fffad0f       0x32 /home/lodge/STM32MP157/tf-a/tf-a-stm32mp/../build/trusted/bl32/plat_log_common.o
 *fill*         0x000000002fffad41        0x3 
 .rodata.plat_prefix_str
                0x000000002fffad44       0x14 /home/lodge/STM32MP157/tf-a/tf-a-stm32mp/../build/trusted/bl32/plat_log_common.o
 .rodata.stm32_get_gpio_bank_base.str1.1
                0x000000002fffad58       0x20 /home/lodge/STM32MP157/tf-a/tf-a-stm32mp/../build/trusted/bl32/stm32mp_common.o
 .rodata.stm32_get_gpio_bank_clock.str1.1
                0x000000002fffad78       0x24 /home/lodge/STM32MP157/tf-a/tf-a-stm32mp/../build/trusted/bl32/stm32mp1_private.o
 .rodata.stm32_get_otp_value_from_idx.str1.1
                0x000000002fffad9c       0x1a /home/lodge/STM32MP157/tf-a/tf-a-stm32mp/../build/trusted/bl32/stm32mp1_private.o
 .rodata.stm32_get_otp_value.str1.1
                0x000000002fffadb6       0x16 /home/lodge/STM32MP157/tf-a/tf-a-stm32mp/../build/trusted/bl32/stm32mp1_private.o
 .rodata.get_part_number.str1.1
                0x000000002fffadcc       0x36 /home/lodge/STM32MP157/tf-a/tf-a-stm32mp/../build/trusted/bl32/stm32mp1_private.o
 .rodata.stm32_iwdg_get_otp_config.str1.1
                0x000000002fffae02        0x8 /home/lodge/STM32MP157/tf-a/tf-a-stm32mp/../build/trusted/bl32/stm32mp1_private.o
 *fill*         0x000000002fffae0a        0x6 
 .rodata.stm32mp1_mmap
                0x000000002fffae10       0x78 /home/lodge/STM32MP157/tf-a/tf-a-stm32mp/../build/trusted/bl32/stm32mp1_private.o
 .rodata.tzc_source_ip
                0x000000002fffae88       0x84 /home/lodge/STM32MP157/tf-a/tf-a-stm32mp/../build/trusted/bl32/stm32mp1_private.o
 .rodata.xlat_arch_regime_get_xn_desc.str1.1
                0x000000002fffaf0c       0x2e /home/lodge/STM32MP157/tf-a/tf-a-stm32mp/../build/trusted/bl32/xlat_tables_arch.o
 .rodata.mmap_add_alloc_va.str1.1
                0x000000002fffaf3a       0x29 /home/lodge/STM32MP157/tf-a/tf-a-stm32mp/../build/trusted/bl32/xlat_tables_context.o
 .rodata.xlat_table_get_index.str1.1
                0x000000002fffaf63       0x26 /home/lodge/STM32MP157/tf-a/tf-a-stm32mp/../build/trusted/bl32/xlat_tables_core.o
 .rodata.mmap_add_region_ctx.str1.1
                0x000000002fffaf89       0x2b /home/lodge/STM32MP157/tf-a/tf-a-stm32mp/../build/trusted/bl32/xlat_tables_core.o
 .rodata.init_xlat_tables_ctx.str1.1
                0x000000002fffafb4       0x4f /home/lodge/STM32MP157/tf-a/tf-a-stm32mp/../build/trusted/bl32/xlat_tables_core.o
 .rodata.tzc400_set_action.str1.1
                0x000000002fffb003       0x19 /home/lodge/STM32MP157/tf-a/tf-a-stm32mp/../build/trusted/bl32/tzc400.o
 .rodata.tzc400_init.str1.1
                0x000000002fffb01c       0x24 /home/lodge/STM32MP157/tf-a/tf-a-stm32mp/../build/trusted/bl32/tzc400.o
 .rodata.tzc400_enable_filters.str1.1
                0x000000002fffb040       0x30 /home/lodge/STM32MP157/tf-a/tf-a-stm32mp/../build/trusted/bl32/tzc400.o
 .rodata.tzc400_it_handler.str1.1
                0x000000002fffb070       0x7a /home/lodge/STM32MP157/tf-a/tf-a-stm32mp/../build/trusted/bl32/tzc400.o
 .rodata.udelay.str1.1
                0x000000002fffb0ea       0x22 /home/lodge/STM32MP157/tf-a/tf-a-stm32mp/../build/trusted/bl32/delay_timer.o
 .rodata.generic_delay_timer_init.str1.1
                0x000000002fffb10c       0x2a /home/lodge/STM32MP157/tf-a/tf-a-stm32mp/../build/trusted/bl32/generic_delay_timer.o
 .rodata.otp_bank_offset.str1.1
                0x000000002fffb136       0x18 /home/lodge/STM32MP157/tf-a/tf-a-stm32mp/../build/trusted/bl32/bsec2.o
 .rodata.bsec_find_otp_name_in_dt.str1.1
                0x000000002fffb14e       0x85 /home/lodge/STM32MP157/tf-a/tf-a-stm32mp/../build/trusted/bl32/bsec2.o
                                         0x89 (size before relaxing)
 .rodata.bsec_shadow_register.str1.1
                0x000000002fffb1d3       0x29 /home/lodge/STM32MP157/tf-a/tf-a-stm32mp/../build/trusted/bl32/bsec2.o
 .rodata.bsec_probe.str1.1
                0x000000002fffb1fc       0x62 /home/lodge/STM32MP157/tf-a/tf-a-stm32mp/../build/trusted/bl32/bsec2.o
 .rodata.bsec_write_otp.str1.1
                0x000000002fffb25e       0x2a /home/lodge/STM32MP157/tf-a/tf-a-stm32mp/../build/trusted/bl32/bsec2.o
 .rodata.bsec_program_otp.str1.1
                0x000000002fffb288       0xa8 /home/lodge/STM32MP157/tf-a/tf-a-stm32mp/../build/trusted/bl32/bsec2.o
 .rodata.fdt_osc_read_freq.str1.1
                0x000000002fffb330       0x18 /home/lodge/STM32MP157/tf-a/tf-a-stm32mp/../build/trusted/bl32/stm32mp_clkfunc.o
 .rodata.fdt_get_rcc_node.str1.1
                0x000000002fffb348       0x10 /home/lodge/STM32MP157/tf-a/tf-a-stm32mp/../build/trusted/bl32/stm32mp_clkfunc.o
 .rodata.fdt_get_clock_id.str1.1
                0x000000002fffb358       0x10 /home/lodge/STM32MP157/tf-a/tf-a-stm32mp/../build/trusted/bl32/stm32mp_clkfunc.o
                                          0x7 (size before relaxing)
 .rodata.fdt_get_clock_id_by_name.str1.1
                0x000000002fffb358        0xc /home/lodge/STM32MP157/tf-a/tf-a-stm32mp/../build/trusted/bl32/stm32mp_clkfunc.o
 .rodata.stm32mp1_set_clkdiv.str1.1
                0x000000002fffb364       0x27 /home/lodge/STM32MP157/tf-a/tf-a-stm32mp/../build/trusted/bl32/stm32mp1_clk.o
 .rodata.stm32mp1_clk_get_gated_id.str1.1
                0x000000002fffb38b       0x1a /home/lodge/STM32MP157/tf-a/tf-a-stm32mp/../build/trusted/bl32/stm32mp1_clk.o
 .rodata.__stm32mp1_clk_enable.str1.1
                0x000000002fffb3a5       0x1c /home/lodge/STM32MP157/tf-a/tf-a-stm32mp/../build/trusted/bl32/stm32mp1_clk.o
 .rodata.__stm32mp1_clk_disable.str1.1
                0x000000002fffb3c1       0x1d /home/lodge/STM32MP157/tf-a/tf-a-stm32mp/../build/trusted/bl32/stm32mp1_clk.o
 .rodata.stm32mp1_set_clksrc.str1.1
                0x000000002fffb3de       0x27 /home/lodge/STM32MP157/tf-a/tf-a-stm32mp/../build/trusted/bl32/stm32mp1_clk.o
 .rodata.stm32mp1_pll_output.str1.1
                0x000000002fffb405       0x23 /home/lodge/STM32MP157/tf-a/tf-a-stm32mp/../build/trusted/bl32/stm32mp1_clk.o
 .rodata.stm32mp1_pll_stop.str1.1
                0x000000002fffb428       0x22 /home/lodge/STM32MP157/tf-a/tf-a-stm32mp/../build/trusted/bl32/stm32mp1_clk.o
 .rodata.stm32mp1_set_opp_khz.str1.1
                0x000000002fffb44a       0x24 /home/lodge/STM32MP157/tf-a/tf-a-stm32mp/../build/trusted/bl32/stm32mp1_clk.o
 .rodata.stm32mp1_clk_compute_all_pll1_settings.str1.1
                0x000000002fffb46e       0x32 /home/lodge/STM32MP157/tf-a/tf-a-stm32mp/../build/trusted/bl32/stm32mp1_clk.o
 .rodata.stm32mp1_register_clock_parents_secure.str1.1
                0x000000002fffb4a0       0x33 /home/lodge/STM32MP157/tf-a/tf-a-stm32mp/../build/trusted/bl32/stm32mp1_clk.o
 .rodata.str1.1
                0x000000002fffb4d3       0x31 /home/lodge/STM32MP157/tf-a/tf-a-stm32mp/../build/trusted/bl32/stm32mp1_clk.o
 .rodata.__func__.0
                0x000000002fffb504       0x1a /home/lodge/STM32MP157/tf-a/tf-a-stm32mp/../build/trusted/bl32/stm32mp1_clk.o
 .rodata.axiss_parents
                0x000000002fffb51e        0x3 /home/lodge/STM32MP157/tf-a/tf-a-stm32mp/../build/trusted/bl32/stm32mp1_clk.o
 .rodata.fmc_parents
                0x000000002fffb521        0x4 /home/lodge/STM32MP157/tf-a/tf-a-stm32mp/../build/trusted/bl32/stm32mp1_clk.o
 .rodata.i2c12_parents
                0x000000002fffb525        0x4 /home/lodge/STM32MP157/tf-a/tf-a-stm32mp/../build/trusted/bl32/stm32mp1_clk.o
 .rodata.i2c35_parents
                0x000000002fffb529        0x4 /home/lodge/STM32MP157/tf-a/tf-a-stm32mp/../build/trusted/bl32/stm32mp1_clk.o
 .rodata.i2c46_parents
                0x000000002fffb52d        0x4 /home/lodge/STM32MP157/tf-a/tf-a-stm32mp/../build/trusted/bl32/stm32mp1_clk.o
 .rodata.mcuss_parents
                0x000000002fffb531        0x4 /home/lodge/STM32MP157/tf-a/tf-a-stm32mp/../build/trusted/bl32/stm32mp1_clk.o
 .rodata.mpu_parents
                0x000000002fffb535        0x4 /home/lodge/STM32MP157/tf-a/tf-a-stm32mp/../build/trusted/bl32/stm32mp1_clk.o
 .rodata.parent_id_clock_id
                0x000000002fffb539       0x22 /home/lodge/STM32MP157/tf-a/tf-a-stm32mp/../build/trusted/bl32/stm32mp1_clk.o
 .rodata.per_parents
                0x000000002fffb55b        0x3 /home/lodge/STM32MP157/tf-a/tf-a-stm32mp/../build/trusted/bl32/stm32mp1_clk.o
 .rodata.pllncfgr2
                0x000000002fffb55e        0x3 /home/lodge/STM32MP157/tf-a/tf-a-stm32mp/../build/trusted/bl32/stm32mp1_clk.o
 .rodata.qspi_parents
                0x000000002fffb561        0x4 /home/lodge/STM32MP157/tf-a/tf-a-stm32mp/../build/trusted/bl32/stm32mp1_clk.o
 .rodata.rng1_parents
                0x000000002fffb565        0x4 /home/lodge/STM32MP157/tf-a/tf-a-stm32mp/../build/trusted/bl32/stm32mp1_clk.o
 .rodata.rtc_parents
                0x000000002fffb569        0x4 /home/lodge/STM32MP157/tf-a/tf-a-stm32mp/../build/trusted/bl32/stm32mp1_clk.o
 .rodata.sdmmc12_parents
                0x000000002fffb56d        0x4 /home/lodge/STM32MP157/tf-a/tf-a-stm32mp/../build/trusted/bl32/stm32mp1_clk.o
 .rodata.sdmmc3_parents
                0x000000002fffb571        0x4 /home/lodge/STM32MP157/tf-a/tf-a-stm32mp/../build/trusted/bl32/stm32mp1_clk.o
 .rodata.spi6_parents
                0x000000002fffb575        0x6 /home/lodge/STM32MP157/tf-a/tf-a-stm32mp/../build/trusted/bl32/stm32mp1_clk.o
 .rodata.stgen_parents
                0x000000002fffb57b        0x2 /home/lodge/STM32MP157/tf-a/tf-a-stm32mp/../build/trusted/bl32/stm32mp1_clk.o
 .rodata.stm32mp1_axi_div
                0x000000002fffb57d        0x8 /home/lodge/STM32MP157/tf-a/tf-a-stm32mp/../build/trusted/bl32/stm32mp1_clk.o
 *fill*         0x000000002fffb585        0x1 
 .rodata.stm32mp1_clk_gate
                0x000000002fffb586      0x170 /home/lodge/STM32MP157/tf-a/tf-a-stm32mp/../build/trusted/bl32/stm32mp1_clk.o
 *fill*         0x000000002fffb6f6        0x2 
 .rodata.stm32mp1_clk_pll
                0x000000002fffb6f8       0x80 /home/lodge/STM32MP157/tf-a/tf-a-stm32mp/../build/trusted/bl32/stm32mp1_clk.o
 .rodata.stm32mp1_clk_sel
                0x000000002fffb778      0x108 /home/lodge/STM32MP157/tf-a/tf-a-stm32mp/../build/trusted/bl32/stm32mp1_clk.o
 .rodata.stm32mp1_mcu_div
                0x000000002fffb880       0x10 /home/lodge/STM32MP157/tf-a/tf-a-stm32mp/../build/trusted/bl32/stm32mp1_clk.o
 .rodata.stm32mp1_mpu_apbx_div
                0x000000002fffb890        0x8 /home/lodge/STM32MP157/tf-a/tf-a-stm32mp/../build/trusted/bl32/stm32mp1_clk.o
 .rodata.stm32mp1_pll
                0x000000002fffb898        0x6 /home/lodge/STM32MP157/tf-a/tf-a-stm32mp/../build/trusted/bl32/stm32mp1_clk.o
 .rodata.uart234578_parents
                0x000000002fffb89e        0x5 /home/lodge/STM32MP157/tf-a/tf-a-stm32mp/../build/trusted/bl32/stm32mp1_clk.o
 .rodata.uart6_parents
                0x000000002fffb8a3        0x5 /home/lodge/STM32MP157/tf-a/tf-a-stm32mp/../build/trusted/bl32/stm32mp1_clk.o
 .rodata.usart1_parents
                0x000000002fffb8a8        0x6 /home/lodge/STM32MP157/tf-a/tf-a-stm32mp/../build/trusted/bl32/stm32mp1_clk.o
 .rodata.usbo_parents
                0x000000002fffb8ae        0x2 /home/lodge/STM32MP157/tf-a/tf-a-stm32mp/../build/trusted/bl32/stm32mp1_clk.o
 .rodata.usbphy_parents
                0x000000002fffb8b0        0x3 /home/lodge/STM32MP157/tf-a/tf-a-stm32mp/../build/trusted/bl32/stm32mp1_clk.o
 .rodata.ddr_set_sr_mode.str1.1
                0x000000002fffb8b3       0x1c /home/lodge/STM32MP157/tf-a/tf-a-stm32mp/../build/trusted/bl32/stm32mp1_ddr_helpers.o
 .rodata.CSWTCH.26
                0x000000002fffb8cf        0xa /home/lodge/STM32MP157/tf-a/tf-a-stm32mp/../build/trusted/bl32/stm32mp1_ddr_helpers.o
 .rodata.set_gpio.str1.1
                0x000000002fffb8d9       0x1d /home/lodge/STM32MP157/tf-a/tf-a-stm32mp/../build/trusted/bl32/stm32_gpio.o
 .rodata.dt_set_pinctrl_config.str1.1
                0x000000002fffb8f6       0x75 /home/lodge/STM32MP157/tf-a/tf-a-stm32mp/../build/trusted/bl32/stm32_gpio.o
                                         0x79 (size before relaxing)
 .rodata.stm32_i2c_get_setup_from_fdt.str1.1
                0x000000002fffb96b       0x4d /home/lodge/STM32MP157/tf-a/tf-a-stm32mp/../build/trusted/bl32/stm32_i2c.o
                                         0x5d (size before relaxing)
 .rodata.stm32_i2c_init.str1.1
                0x000000002fffb9b8      0x146 /home/lodge/STM32MP157/tf-a/tf-a-stm32mp/../build/trusted/bl32/stm32_i2c.o
 *fill*         0x000000002fffbafe        0x2 
 .rodata.i2c_specs
                0x000000002fffbb00       0x60 /home/lodge/STM32MP157/tf-a/tf-a-stm32mp/../build/trusted/bl32/stm32_i2c.o
 .rodata.stm32_iwdg_init.str1.1
                0x000000002fffbb60       0xa0 /home/lodge/STM32MP157/tf-a/tf-a-stm32mp/../build/trusted/bl32/stm32_iwdg.o
                                         0xa4 (size before relaxing)
 .rodata.dt_get_pmic_node.str1.1
                0x000000002fffbc00        0xb /home/lodge/STM32MP157/tf-a/tf-a-stm32mp/../build/trusted/bl32/stm32mp_pmic.o
 .rodata.dt_pmic_get_regulator_voltage.str1.1
                0x000000002fffbc0b       0x30 /home/lodge/STM32MP157/tf-a/tf-a-stm32mp/../build/trusted/bl32/stm32mp_pmic.o
 .rodata.pmic_operate.str1.1
                0x000000002fffbc3b       0xce /home/lodge/STM32MP157/tf-a/tf-a-stm32mp/../build/trusted/bl32/stm32mp_pmic.o
 .rodata.dt_pmic_find_supply.str1.1
                0x000000002fffbd09        0xf /home/lodge/STM32MP157/tf-a/tf-a-stm32mp/../build/trusted/bl32/stm32mp_pmic.o
 .rodata.initialize_pmic_i2c.str1.1
                0x000000002fffbd18       0x55 /home/lodge/STM32MP157/tf-a/tf-a-stm32mp/../build/trusted/bl32/stm32mp_pmic.o
                                         0x59 (size before relaxing)
 .rodata.stpmic1_regulator_voltage_get.str1.1
                0x000000002fffbd6d        0xe /home/lodge/STM32MP157/tf-a/tf-a-stm32mp/../build/trusted/bl32/stpmic1.o
 .rodata.str1.1
                0x000000002fffbd7b       0x50 /home/lodge/STM32MP157/tf-a/tf-a-stm32mp/../build/trusted/bl32/stpmic1.o
 *fill*         0x000000002fffbdcb        0x1 
 .rodata.buck1_voltage_table
                0x000000002fffbdcc       0x80 /home/lodge/STM32MP157/tf-a/tf-a-stm32mp/../build/trusted/bl32/stpmic1.o
 .rodata.buck2_voltage_table
                0x000000002fffbe4c       0x4a /home/lodge/STM32MP157/tf-a/tf-a-stm32mp/../build/trusted/bl32/stpmic1.o
 .rodata.buck3_voltage_table
                0x000000002fffbe96       0x70 /home/lodge/STM32MP157/tf-a/tf-a-stm32mp/../build/trusted/bl32/stpmic1.o
 .rodata.buck4_voltage_table
                0x000000002fffbf06       0x7a /home/lodge/STM32MP157/tf-a/tf-a-stm32mp/../build/trusted/bl32/stpmic1.o
 .rodata.fixed_5v_voltage_table
                0x000000002fffbf80        0x2 /home/lodge/STM32MP157/tf-a/tf-a-stm32mp/../build/trusted/bl32/stpmic1.o
 .rodata.ldo1_voltage_table
                0x000000002fffbf82       0x32 /home/lodge/STM32MP157/tf-a/tf-a-stm32mp/../build/trusted/bl32/stpmic1.o
 .rodata.ldo2_voltage_table
                0x000000002fffbfb4       0x32 /home/lodge/STM32MP157/tf-a/tf-a-stm32mp/../build/trusted/bl32/stpmic1.o
 .rodata.ldo3_voltage_table
                0x000000002fffbfe6       0x42 /home/lodge/STM32MP157/tf-a/tf-a-stm32mp/../build/trusted/bl32/stpmic1.o
 .rodata.ldo4_voltage_table
                0x000000002fffc028        0x2 /home/lodge/STM32MP157/tf-a/tf-a-stm32mp/../build/trusted/bl32/stpmic1.o
 .rodata.ldo5_voltage_table
                0x000000002fffc02a       0x3e /home/lodge/STM32MP157/tf-a/tf-a-stm32mp/../build/trusted/bl32/stpmic1.o
 .rodata.ldo6_voltage_table
                0x000000002fffc068       0x32 /home/lodge/STM32MP157/tf-a/tf-a-stm32mp/../build/trusted/bl32/stpmic1.o
 *fill*         0x000000002fffc09a        0x2 
 .rodata.regulators_table
                0x000000002fffc09c       0xe0 /home/lodge/STM32MP157/tf-a/tf-a-stm32mp/../build/trusted/bl32/stpmic1.o
 .rodata.vref_ddr_voltage_table
                0x000000002fffc17c        0x2 /home/lodge/STM32MP157/tf-a/tf-a-stm32mp/../build/trusted/bl32/stpmic1.o
 .rodata.dt_get_stdout_node_offset.str1.1
                0x000000002fffc17e       0x25 /home/lodge/STM32MP157/tf-a/tf-a-stm32mp/../build/trusted/bl32/stm32mp_dt.o
 .rodata.dt_get_opp_freqvolt_from_subnode.str1.1
                0x000000002fffc1a3       0x26 /home/lodge/STM32MP157/tf-a/tf-a-stm32mp/../build/trusted/bl32/stm32mp_dt.o
 .rodata.fdt_get_status.str1.1
                0x000000002fffc1c9       0x13 /home/lodge/STM32MP157/tf-a/tf-a-stm32mp/../build/trusted/bl32/stm32mp_dt.o
                                         0x1a (size before relaxing)
 .rodata.fdt_get_interrupt.str1.1
                0x000000002fffc1dc       0x26 /home/lodge/STM32MP157/tf-a/tf-a-stm32mp/../build/trusted/bl32/stm32mp_dt.o
                                         0x31 (size before relaxing)
 .rodata.fdt_get_reg_props_by_name.str1.1
                0x000000002fffc202       0x26 /home/lodge/STM32MP157/tf-a/tf-a-stm32mp/../build/trusted/bl32/stm32mp_dt.o
                                         0x2a (size before relaxing)
 .rodata.dt_fill_device_info.str1.1
                0x000000002fffc228        0x7 /home/lodge/STM32MP157/tf-a/tf-a-stm32mp/../build/trusted/bl32/stm32mp_dt.o
                                          0xe (size before relaxing)
 .rodata.dt_get_node_by_compatible.str1.1
                0x000000002fffc22f       0x1c /home/lodge/STM32MP157/tf-a/tf-a-stm32mp/../build/trusted/bl32/stm32mp_dt.o
 .rodata.dt_get_ddr_size.str1.1
                0x000000002fffc24b       0x1c /home/lodge/STM32MP157/tf-a/tf-a-stm32mp/../build/trusted/bl32/stm32mp_dt.o
 .rodata.dt_get_max_opp_freqvolt.str1.1
                0x000000002fffc267       0x14 /home/lodge/STM32MP157/tf-a/tf-a-stm32mp/../build/trusted/bl32/stm32mp_dt.o
 .rodata.dt_get_cpu_regulator_name.str1.1
                0x000000002fffc27b       0x17 /home/lodge/STM32MP157/tf-a/tf-a-stm32mp/../build/trusted/bl32/stm32mp_dt.o
                                         0x26 (size before relaxing)
 .rodata.fdt_get_gpio_bank_pinctrl_node.str1.1
                0x000000002fffc292       0x2a /home/lodge/STM32MP157/tf-a/tf-a-stm32mp/../build/trusted/bl32/stm32mp_dt.o
 .rodata.fdt_get_gpioz_nbpins_from_dt.str1.1
                0x000000002fffc2bc        0x7 /home/lodge/STM32MP157/tf-a/tf-a-stm32mp/../build/trusted/bl32/stm32mp_dt.o
                                         0x17 (size before relaxing)
 .rodata.stm32_save_ddr_training_area.str1.1
                0x000000002fffc2c3       0x24 /home/lodge/STM32MP157/tf-a/tf-a-stm32mp/../build/trusted/bl32/stm32mp1_context.o
 .rodata.stm32mp1_dbgmcu_init.str1.1
                0x000000002fffc2e7       0x36 /home/lodge/STM32MP157/tf-a/tf-a-stm32mp/../build/trusted/bl32/stm32mp1_dbgmcu.o
 .rodata.stm32mp1_dbgmcu_get_chip_version.str1.1
                0x000000002fffc31d       0x23 /home/lodge/STM32MP157/tf-a/tf-a-stm32mp/../build/trusted/bl32/stm32mp1_dbgmcu.o
 .rodata.stm32mp1_syscfg_enable_io_compensation.str1.1
                0x000000002fffc340       0x21 /home/lodge/STM32MP157/tf-a/tf-a-stm32mp/../build/trusted/bl32/stm32mp1_syscfg.o
 .rodata.str1.1
                0x000000002fffc361       0x29 /home/lodge/STM32MP157/tf-a/tf-a-stm32mp/../build/trusted/bl32/entrypoint.o
 .rodata.str1.1
                0x000000002fffc38a       0x1f /home/lodge/STM32MP157/tf-a/tf-a-stm32mp/../build/trusted/bl32/cpu_helpers.o
 .rodata.panic_str
                0x000000002fffc3a9       0x14 /home/lodge/STM32MP157/tf-a/tf-a-stm32mp/../build/trusted/bl32/debug.o
 .rodata.assert_str
                0x000000002fffc3bd       0x15 /home/lodge/STM32MP157/tf-a/tf-a-stm32mp/../build/trusted/bl32/debug.o
 .rodata.str1.1
                0x000000002fffc3d2       0x28 /home/lodge/STM32MP157/tf-a/tf-a-stm32mp/../build/trusted/bl32/stm32_console.o
 .rodata.str1.1
                0x000000002fffc3fa       0x28 /home/lodge/STM32MP157/tf-a/tf-a-stm32mp/../build/trusted/bl32/enable_mmu.o
 .rodata.str1.1
                0x000000002fffc422       0x1d /home/lodge/STM32MP157/tf-a/tf-a-stm32mp/../build/trusted/bl32/cortex_a7.o
 .rodata.rev_err_str
                0x000000002fffc43f       0xa0 /home/lodge/STM32MP157/tf-a/tf-a-stm32mp/../build/trusted/bl32/stm32mp1_helper.o
 .rodata.fdt_address_cells.str1.1
                0x000000002fffc4df        0xf /home/lodge/STM32MP157/tf-a/tf-a-stm32mp/../build/trusted/lib/libfdt.a(fdt_addresses.o)
 .rodata.fdt_get_phandle.str1.1
                0x000000002fffc4ee        0xe /home/lodge/STM32MP157/tf-a/tf-a-stm32mp/../build/trusted/lib/libfdt.a(fdt_ro.o)
                                         0x16 (size before relaxing)
 .rodata.fdt_get_alias_namelen.str1.1
                0x000000002fffc4fc        0x9 /home/lodge/STM32MP157/tf-a/tf-a-stm32mp/../build/trusted/lib/libfdt.a(fdt_ro.o)
 .rodata.fdt_node_check_compatible.str1.1
                0x000000002fffc505        0xb /home/lodge/STM32MP157/tf-a/tf-a-stm32mp/../build/trusted/lib/libfdt.a(fdt_ro.o)
 .rodata.__assert.str1.1
                0x000000002fffc510        0xf /home/lodge/STM32MP157/tf-a/tf-a-stm32mp/../build/trusted/lib/libc.a(assert.o)
 .rodata.vprintf.str1.1
                0x000000002fffc51f       0x15 /home/lodge/STM32MP157/tf-a/tf-a-stm32mp/../build/trusted/lib/libc.a(printf.o)
                0x000000002fffc534                . = ALIGN (0x4)
                0x000000002fffc534                __RT_SVC_DESCS_START__ = .
 *(rt_svc_descs)
 rt_svc_descs   0x000000002fffc534       0x10 /home/lodge/STM32MP157/tf-a/tf-a-stm32mp/../build/trusted/bl32/std_svc_setup.o
 rt_svc_descs   0x000000002fffc544       0x10 /home/lodge/STM32MP157/tf-a/tf-a-stm32mp/../build/trusted/bl32/stm32mp1_svc_setup.o
                0x000000002fffc554                __RT_SVC_DESCS_END__ = .
                0x000000002fffc554                . = ALIGN (0x4)
                0x000000002fffc554                __CPU_OPS_START__ = .
 *(cpu_ops)
 cpu_ops        0x000000002fffc554       0x1c /home/lodge/STM32MP157/tf-a/tf-a-stm32mp/../build/trusted/bl32/cortex_a7.o
                0x000000002fffc570                __CPU_OPS_END__ = .
                0x000000002fffc570                . = ALIGN (0x8)
                0x000000002fffc570                __pubsub_psci_cpu_on_finish_start = .
 *(__pubsub_psci_cpu_on_finish)
                0x000000002fffc570                __pubsub_psci_cpu_on_finish_end = .
                0x000000002fffc570                __pubsub_psci_suspend_pwrdown_start_start = .
 *(__pubsub_psci_suspend_pwrdown_start)
                0x000000002fffc570                __pubsub_psci_suspend_pwrdown_start_end = .
                0x000000002fffc570                __pubsub_psci_suspend_pwrdown_finish_start = .
 *(__pubsub_psci_suspend_pwrdown_finish)
                0x000000002fffc570                __pubsub_psci_suspend_pwrdown_finish_end = .
 *(.vectors)
 *fill*         0x000000002fffc570       0x10 
 .vectors       0x000000002fffc580       0x20 /home/lodge/STM32MP157/tf-a/tf-a-stm32mp/../build/trusted/bl32/entrypoint.o
                0x000000002fffc580                sp_min_vector_table
 .vectors.__stub
                0x000000002fffc5a0       0x40 linker stubs
                0x000000002fffc5e0                __RO_END_UNALIGNED__ = .
                0x000000002fffd000                . = ALIGN (0x1000)
 *fill*         0x000000002fffc5e0      0xa20 
                0x000000002fffd000                __RO_END__ = .
                0x0000000000000001                ASSERT ((__CPU_OPS_END__ > __CPU_OPS_START__), cpu_ops not defined for this platform.)
                0x000000002fffd000                __RW_START__ = .

.glue_7         0x000000002fffd000        0x0
 .glue_7        0x000000002fffd000        0x0 linker stubs

.glue_7t        0x000000002fffd000        0x0
 .glue_7t       0x000000002fffd000        0x0 linker stubs

.vfp11_veneer   0x000000002fffd000        0x0
 .vfp11_veneer  0x000000002fffd000        0x0 linker stubs

.v4_bx          0x000000002fffd000        0x0
 .v4_bx         0x000000002fffd000        0x0 linker stubs

.iplt           0x000000002fffd000        0x0
 .iplt          0x000000002fffd000        0x0 /home/lodge/STM32MP157/tf-a/tf-a-stm32mp/../build/trusted/bl32/sp_min_main.o

.rel.dyn        0x000000002fffd000        0x0
 .rel.iplt      0x000000002fffd000        0x0 /home/lodge/STM32MP157/tf-a/tf-a-stm32mp/../build/trusted/bl32/sp_min_main.o

.data           0x000000002fffd000      0x540
                0x000000002fffd000                __DATA_START__ = .
 *(.data*)
 .data.fbv_csi  0x000000002fffd000       0x22 /home/lodge/STM32MP157/tf-a/tf-a-stm32mp/../build/trusted/bl32/stm32mp1_calib.o
 .data.fbv_hsi  0x000000002fffd022       0x22 /home/lodge/STM32MP157/tf-a/tf-a-stm32mp/../build/trusted/bl32/stm32mp1_calib.o
 .data.stm32mp1_clk_cal_csi
                0x000000002fffd044       0xa8 /home/lodge/STM32MP157/tf-a/tf-a-stm32mp/../build/trusted/bl32/stm32mp1_calib.o
 .data.stm32mp1_clk_cal_hsi
                0x000000002fffd0ec       0xa8 /home/lodge/STM32MP157/tf-a/tf-a-stm32mp/../build/trusted/bl32/stm32mp1_calib.o
 .data.ext_tamp
                0x000000002fffd194       0x24 /home/lodge/STM32MP157/tf-a/tf-a-stm32mp/../build/trusted/bl32/sp_min_setup.o
 .data.int_tamp
                0x000000002fffd1b8       0x30 /home/lodge/STM32MP157/tf-a/tf-a-stm32mp/../build/trusted/bl32/sp_min_setup.o
 .data.gpioz_nbpin
                0x000000002fffd1e8        0x1 /home/lodge/STM32MP157/tf-a/tf-a-stm32mp/../build/trusted/bl32/stm32mp1_shared_resources.o
 *fill*         0x000000002fffd1e9        0x3 
 .data.platform_gic_data
                0x000000002fffd1ec       0x18 /home/lodge/STM32MP157/tf-a/tf-a-stm32mp/../build/trusted/bl32/stm32_gic.o
 .data.target_mask_array
                0x000000002fffd204        0x8 /home/lodge/STM32MP157/tf-a/tf-a-stm32mp/../build/trusted/bl32/stm32_gic.o
 .data.scmi_channel
                0x000000002fffd20c       0x20 /home/lodge/STM32MP157/tf-a/tf-a-stm32mp/../build/trusted/bl32/stm32mp1_scmi.o
 .data.stm32_scmi0_clock
                0x000000002fffd22c       0xfc /home/lodge/STM32MP157/tf-a/tf-a-stm32mp/../build/trusted/bl32/stm32mp1_scmi.o
 .data.stm32_scmi0_reset_domain
                0x000000002fffd328       0x58 /home/lodge/STM32MP157/tf-a/tf-a-stm32mp/../build/trusted/bl32/stm32mp1_scmi.o
 .data.stm32_scmi1_clock
                0x000000002fffd380       0x24 /home/lodge/STM32MP157/tf-a/tf-a-stm32mp/../build/trusted/bl32/stm32mp1_scmi.o
 .data.max_log_level
                0x000000002fffd3a4        0x4 /home/lodge/STM32MP157/tf-a/tf-a-stm32mp/../build/trusted/bl32/tf_log.o
 .data.console_state
                0x000000002fffd3a8        0x1 /home/lodge/STM32MP157/tf-a/tf-a-stm32mp/../build/trusted/bl32/multi_console.o
                0x000000002fffd3a8                console_state
 *fill*         0x000000002fffd3a9        0x7 
 .data.tf_xlat_ctx
                0x000000002fffd3b0       0x48 /home/lodge/STM32MP157/tf-a/tf-a-stm32mp/../build/trusted/bl32/xlat_tables_context.o
 .data.backup_clock_cfg
                0x000000002fffd3f8       0x38 /home/lodge/STM32MP157/tf-a/tf-a-stm32mp/../build/trusted/bl32/stm32mp1_clk.o
 .data.backup_clock_sc_cfg
                0x000000002fffd430       0x58 /home/lodge/STM32MP157/tf-a/tf-a-stm32mp/../build/trusted/bl32/stm32mp1_clk.o
 .data.backup_mux0_cfg
                0x000000002fffd488       0x88 /home/lodge/STM32MP157/tf-a/tf-a-stm32mp/../build/trusted/bl32/stm32mp1_clk.o
 .data.backup_mux4_cfg
                0x000000002fffd510        0x4 /home/lodge/STM32MP157/tf-a/tf-a-stm32mp/../build/trusted/bl32/stm32mp1_clk.o
 .data.stm32mp_osc_node_label
                0x000000002fffd514       0x18 /home/lodge/STM32MP157/tf-a/tf-a-stm32mp/../build/trusted/bl32/stm32mp1_clk.o
                0x000000002fffd514                stm32mp_osc_node_label
 .data.i2c_node.0
                0x000000002fffd52c        0x4 /home/lodge/STM32MP157/tf-a/tf-a-stm32mp/../build/trusted/bl32/stm32mp_pmic.o
 .data.node.1   0x000000002fffd530        0x4 /home/lodge/STM32MP157/tf-a/tf-a-stm32mp/../build/trusted/bl32/stm32mp_pmic.o
 .data.status.2
                0x000000002fffd534        0x4 /home/lodge/STM32MP157/tf-a/tf-a-stm32mp/../build/trusted/bl32/stm32mp_pmic.o
 .data          0x000000002fffd538        0x8 /home/lodge/STM32MP157/tf-a/tf-a-stm32mp/../build/trusted/bl32/cortex_a7.o
                0x000000002fffd540                __DATA_END__ = .

.igot.plt       0x000000002fffd540        0x0
 .igot.plt      0x000000002fffd540        0x0 /home/lodge/STM32MP157/tf-a/tf-a-stm32mp/../build/trusted/bl32/sp_min_main.o

stacks          0x000000002fffd540      0xc00
                0x000000002fffd540                __STACKS_START__ = .
 *(tzfw_normal_stacks)
 tzfw_normal_stacks
                0x000000002fffd540      0xc00 /home/lodge/STM32MP157/tf-a/tf-a-stm32mp/../build/trusted/bl32/platform_mp_stack.o
                0x000000002fffe140                __STACKS_END__ = .

.bss            0x000000002fffe140      0xc00
                0x000000002fffe140                __BSS_START__ = .
 *(.bss*)
 .bss.sp_min_cpu_ctx_ptr
                0x000000002fffe140        0x8 /home/lodge/STM32MP157/tf-a/tf-a-stm32mp/../build/trusted/bl32/sp_min_main.o
 .bss.sp_min_smc_context
                0x000000002fffe148      0x120 /home/lodge/STM32MP157/tf-a/tf-a-stm32mp/../build/trusted/bl32/sp_min_main.o
 .bss.rt_svc_descs_indices
                0x000000002fffe268       0x80 /home/lodge/STM32MP157/tf-a/tf-a-stm32mp/../build/trusted/bl32/runtime_svc.o
                0x000000002fffe268                rt_svc_descs_indices
 *fill*         0x000000002fffe2e8       0x18 
 .bss.percpu_data
                0x000000002fffe300       0x80 /home/lodge/STM32MP157/tf-a/tf-a-stm32mp/../build/trusted/bl32/cpu_data_array.o
                0x000000002fffe300                percpu_data
 .bss.psci_cpu_pd_nodes
                0x000000002fffe380       0x18 /home/lodge/STM32MP157/tf-a/tf-a-stm32mp/../build/trusted/bl32/psci_common.o
                0x000000002fffe380                psci_cpu_pd_nodes
 .bss.psci_non_cpu_pd_nodes
                0x000000002fffe398       0x20 /home/lodge/STM32MP157/tf-a/tf-a-stm32mp/../build/trusted/bl32/psci_common.o
                0x000000002fffe398                psci_non_cpu_pd_nodes
 .bss.psci_plat_pm_ops
                0x000000002fffe3b8        0x4 /home/lodge/STM32MP157/tf-a/tf-a-stm32mp/../build/trusted/bl32/psci_common.o
                0x000000002fffe3b8                psci_plat_pm_ops
 .bss.psci_req_local_pwr_states
                0x000000002fffe3bc        0x2 /home/lodge/STM32MP157/tf-a/tf-a-stm32mp/../build/trusted/bl32/psci_common.o
 *fill*         0x000000002fffe3be        0x2 
 .bss.psci_spd_pm
                0x000000002fffe3c0        0x4 /home/lodge/STM32MP157/tf-a/tf-a-stm32mp/../build/trusted/bl32/psci_common.o
                0x000000002fffe3c0                psci_spd_pm
 .bss.psci_caps
                0x000000002fffe3c4        0x4 /home/lodge/STM32MP157/tf-a/tf-a-stm32mp/../build/trusted/bl32/psci_setup.o
                0x000000002fffe3c4                psci_caps
 .bss.psci_ns_context
                0x000000002fffe3c8       0x40 /home/lodge/STM32MP157/tf-a/tf-a-stm32mp/../build/trusted/bl32/psci_setup.o
 .bss.rcc_wakeup
                0x000000002fffe408        0x1 /home/lodge/STM32MP157/tf-a/tf-a-stm32mp/../build/trusted/bl32/stm32mp1_calib.o
 *fill*         0x000000002fffe409        0x3 
 .bss.timer_val
                0x000000002fffe40c        0x4 /home/lodge/STM32MP157/tf-a/tf-a-stm32mp/../build/trusted/bl32/stm32mp1_calib.o
 .bss.etzpc_dev
                0x000000002fffe410        0xc /home/lodge/STM32MP157/tf-a/tf-a-stm32mp/../build/trusted/bl32/etzpc.o
 .bss.stm32_rng
                0x000000002fffe41c        0x8 /home/lodge/STM32MP157/tf-a/tf-a-stm32mp/../build/trusted/bl32/stm32_rng.o
 .bss.lock      0x000000002fffe424        0x4 /home/lodge/STM32MP157/tf-a/tf-a-stm32mp/../build/trusted/bl32/stm32_rtc.o
 .bss.rtc_dev   0x000000002fffe428       0x10 /home/lodge/STM32MP157/tf-a/tf-a-stm32mp/../build/trusted/bl32/stm32_rtc.o
 .bss.stm32_tamp
                0x000000002fffe438       0x1c /home/lodge/STM32MP157/tf-a/tf-a-stm32mp/../build/trusted/bl32/stm32_tamp.o
 .bss.stm32_timer
                0x000000002fffe454       0x20 /home/lodge/STM32MP157/tf-a/tf-a-stm32mp/../build/trusted/bl32/stm32_timer.o
 .bss.bl33_image_ep_info
                0x000000002fffe474       0x24 /home/lodge/STM32MP157/tf-a/tf-a-stm32mp/../build/trusted/bl32/sp_min_setup.o
 .bss.console   0x000000002fffe498       0x18 /home/lodge/STM32MP157/tf-a/tf-a-stm32mp/../build/trusted/bl32/sp_min_setup.o
 .bss.enter_cstop_done
                0x000000002fffe4b0        0x1 /home/lodge/STM32MP157/tf-a/tf-a-stm32mp/../build/trusted/bl32/stm32mp1_low_power.o
 *fill*         0x000000002fffe4b1        0x3 
 .bss.gicc_pmr  0x000000002fffe4b4        0x4 /home/lodge/STM32MP157/tf-a/tf-a-stm32mp/../build/trusted/bl32/stm32mp1_low_power.o
 .bss.int_stack
                0x000000002fffe4b8      0x400 /home/lodge/STM32MP157/tf-a/tf-a-stm32mp/../build/trusted/bl32/stm32mp1_low_power.o
 .bss.sleep_time
                0x000000002fffe8b8        0xc /home/lodge/STM32MP157/tf-a/tf-a-stm32mp/../build/trusted/bl32/stm32mp1_low_power.o
 .bss.cntfrq_core0
                0x000000002fffe8c4        0x4 /home/lodge/STM32MP157/tf-a/tf-a-stm32mp/../build/trusted/bl32/stm32mp1_pm.o
 .bss.saved_entrypoint
                0x000000002fffe8c8        0x4 /home/lodge/STM32MP157/tf-a/tf-a-stm32mp/../build/trusted/bl32/stm32mp1_pm.o
 .bss.stm32_sec_entrypoint
                0x000000002fffe8cc        0x4 /home/lodge/STM32MP157/tf-a/tf-a-stm32mp/../build/trusted/bl32/stm32mp1_pm.o
 .bss.deepest_system_suspend_mode
                0x000000002fffe8d0        0x4 /home/lodge/STM32MP157/tf-a/tf-a-stm32mp/../build/trusted/bl32/stm32mp1_power_config.o
 .bss.pm_dom    0x000000002fffe8d4        0x3 /home/lodge/STM32MP157/tf-a/tf-a-stm32mp/../build/trusted/bl32/stm32mp1_power_config.o
 .bss.stm32mp1_supported_soc_modes
                0x000000002fffe8d7        0x7 /home/lodge/STM32MP157/tf-a/tf-a-stm32mp/../build/trusted/bl32/stm32mp1_power_config.o
 *fill*         0x000000002fffe8de        0x2 
 .bss.system_off_mode
                0x000000002fffe8e0        0x4 /home/lodge/STM32MP157/tf-a/tf-a-stm32mp/../build/trusted/bl32/stm32mp1_power_config.o
 .bss.registering_locked
                0x000000002fffe8e4        0x1 /home/lodge/STM32MP157/tf-a/tf-a-stm32mp/../build/trusted/bl32/stm32mp1_shared_resources.o
 .bss.shres_state
                0x000000002fffe8e5       0x14 /home/lodge/STM32MP157/tf-a/tf-a-stm32mp/../build/trusted/bl32/stm32mp1_shared_resources.o
 *fill*         0x000000002fffe8f9        0x3 
 .bss.driver_data
                0x000000002fffe8fc        0x4 /home/lodge/STM32MP157/tf-a/tf-a-stm32mp/../build/trusted/bl32/gicv2_main.o
 .bss.gic_lock  0x000000002fffe900        0x4 /home/lodge/STM32MP157/tf-a/tf-a-stm32mp/../build/trusted/bl32/gicv2_main.o
 .bss.stm32_gic
                0x000000002fffe904        0x8 /home/lodge/STM32MP157/tf-a/tf-a-stm32mp/../build/trusted/bl32/stm32_gic.o
 .bss.fast_smc_payload
                0x000000002fffe90c       0xb8 /home/lodge/STM32MP157/tf-a/tf-a-stm32mp/../build/trusted/bl32/smt.o
 .bss.smt_channels_lock
                0x000000002fffe9c4        0x4 /home/lodge/STM32MP157/tf-a/tf-a-stm32mp/../build/trusted/bl32/smt.o
 .bss.console_list
                0x000000002fffe9c8        0x4 /home/lodge/STM32MP157/tf-a/tf-a-stm32mp/../build/trusted/bl32/multi_console.o
                0x000000002fffe9c8                console_list
 .bss.lock      0x000000002fffe9cc        0x4 /home/lodge/STM32MP157/tf-a/tf-a-stm32mp/../build/trusted/bl32/stm32mp_common.o
 .bss.part_number.0
                0x000000002fffe9d0        0x4 /home/lodge/STM32MP157/tf-a/tf-a-stm32mp/../build/trusted/bl32/stm32mp1_private.o
 *fill*         0x000000002fffe9d4        0x4 
 .bss.mmu_cfg_params
                0x000000002fffe9d8       0x18 /home/lodge/STM32MP157/tf-a/tf-a-stm32mp/../build/trusted/bl32/xlat_tables_context.o
                0x000000002fffe9d8                mmu_cfg_params
 *fill*         0x000000002fffe9f0       0x10 
 .bss.tf_base_xlat_table
                0x000000002fffea00       0x20 /home/lodge/STM32MP157/tf-a/tf-a-stm32mp/../build/trusted/bl32/xlat_tables_context.o
 .bss.tf_mapped_regions
                0x000000002fffea20       0x10 /home/lodge/STM32MP157/tf-a/tf-a-stm32mp/../build/trusted/bl32/xlat_tables_context.o
 .bss.tf_mmap   0x000000002fffea30       0xa8 /home/lodge/STM32MP157/tf-a/tf-a-stm32mp/../build/trusted/bl32/xlat_tables_context.o
 .bss.tzc400    0x000000002fffead8        0x8 /home/lodge/STM32MP157/tf-a/tf-a-stm32mp/../build/trusted/bl32/tzc400.o
 .bss.timer_ops
                0x000000002fffeae0        0x4 /home/lodge/STM32MP157/tf-a/tf-a-stm32mp/../build/trusted/bl32/delay_timer.o
 .bss.ops       0x000000002fffeae4        0xc /home/lodge/STM32MP157/tf-a/tf-a-stm32mp/../build/trusted/bl32/generic_delay_timer.o
 .bss.bsec_base
                0x000000002fffeaf0        0x4 /home/lodge/STM32MP157/tf-a/tf-a-stm32mp/../build/trusted/bl32/bsec2.o
 .bss.bsec_spinlock
                0x000000002fffeaf4        0x4 /home/lodge/STM32MP157/tf-a/tf-a-stm32mp/../build/trusted/bl32/bsec2.o
 .bss.otp_nsec_access
                0x000000002fffeaf8        0xc /home/lodge/STM32MP157/tf-a/tf-a-stm32mp/../build/trusted/bl32/bsec2.o
 .bss.current_opp_khz
                0x000000002fffeb04        0x4 /home/lodge/STM32MP157/tf-a/tf-a-stm32mp/../build/trusted/bl32/stm32mp1_clk.o
 .bss.gate_refcounts
                0x000000002fffeb08       0xb8 /home/lodge/STM32MP157/tf-a/tf-a-stm32mp/../build/trusted/bl32/stm32mp1_clk.o
 .bss.mcudivr   0x000000002fffebc0        0x4 /home/lodge/STM32MP157/tf-a/tf-a-stm32mp/../build/trusted/bl32/stm32mp1_clk.o
 .bss.mssckselr
                0x000000002fffebc4        0x4 /home/lodge/STM32MP157/tf-a/tf-a-stm32mp/../build/trusted/bl32/stm32mp1_clk.o
 .bss.pll1_settings
                0x000000002fffebc8       0x4c /home/lodge/STM32MP157/tf-a/tf-a-stm32mp/../build/trusted/bl32/stm32mp1_clk.o
 .bss.pll3cr    0x000000002fffec14        0x4 /home/lodge/STM32MP157/tf-a/tf-a-stm32mp/../build/trusted/bl32/stm32mp1_clk.o
 .bss.pll4cr    0x000000002fffec18        0x4 /home/lodge/STM32MP157/tf-a/tf-a-stm32mp/../build/trusted/bl32/stm32mp1_clk.o
 .bss.refcount_lock
                0x000000002fffec1c        0x4 /home/lodge/STM32MP157/tf-a/tf-a-stm32mp/../build/trusted/bl32/stm32mp1_clk.o
 .bss.reg_lock  0x000000002fffec20        0x4 /home/lodge/STM32MP157/tf-a/tf-a-stm32mp/../build/trusted/bl32/stm32mp1_clk.o
 .bss.stm32mp1_osc
                0x000000002fffec24       0x18 /home/lodge/STM32MP157/tf-a/tf-a-stm32mp/../build/trusted/bl32/stm32mp1_clk.o
 .bss.saved_ddr_sr_mode
                0x000000002fffec3c        0x4 /home/lodge/STM32MP157/tf-a/tf-a-stm32mp/../build/trusted/bl32/stm32mp1_ddr_helpers.o
 .bss.stm32_iwdg
                0x000000002fffec40       0x20 /home/lodge/STM32MP157/tf-a/tf-a-stm32mp/../build/trusted/bl32/stm32_iwdg.o
 .bss.i2c_handle
                0x000000002fffec60       0x24 /home/lodge/STM32MP157/tf-a/tf-a-stm32mp/../build/trusted/bl32/stm32mp_pmic.o
 .bss.pmic_i2c_addr
                0x000000002fffec84        0x4 /home/lodge/STM32MP157/tf-a/tf-a-stm32mp/../build/trusted/bl32/stm32mp_pmic.o
 .bss.pmic_i2c_addr
                0x000000002fffec88        0x2 /home/lodge/STM32MP157/tf-a/tf-a-stm32mp/../build/trusted/bl32/stpmic1.o
 *fill*         0x000000002fffec8a        0x2 
 .bss.pmic_i2c_handle
                0x000000002fffec8c        0x4 /home/lodge/STM32MP157/tf-a/tf-a-stm32mp/../build/trusted/bl32/stpmic1.o
 .bss.fdt_checked
                0x000000002fffec90        0x4 /home/lodge/STM32MP157/tf-a/tf-a-stm32mp/../build/trusted/bl32/stm32mp_dt.o
 .bss.shregs_lock
                0x000000002fffec94        0x4 /home/lodge/STM32MP157/tf-a/tf-a-stm32mp/../build/trusted/bl32/stm32mp_shres_helpers.o
 *(COMMON)
                0x000000002fffecc0                . = ALIGN (0x40)
 *fill*         0x000000002fffec98       0x28 
                0x000000002fffecc0                __BAKERY_LOCK_START__ = .
                0x000000002fffecc0                __PERCPU_BAKERY_LOCK_START__ = .
 *(bakery_lock)
 bakery_lock    0x000000002fffecc0        0x4 /home/lodge/STM32MP157/tf-a/tf-a-stm32mp/../build/trusted/bl32/psci_common.o
                0x000000002fffecc0                psci_locks
                0x000000002fffed00                . = ALIGN (0x40)
 *fill*         0x000000002fffecc4       0x3c 
                0x000000002fffed00                __PERCPU_BAKERY_LOCK_END__ = .
                0x0000000000000040                __PERCPU_BAKERY_LOCK_SIZE__ = ABSOLUTE ((__PERCPU_BAKERY_LOCK_END__ - __PERCPU_BAKERY_LOCK_START__))
                0x000000002fffed40                . = (. + (__PERCPU_BAKERY_LOCK_SIZE__ * 0x1))
 *fill*         0x000000002fffed00       0x40 
                0x000000002fffed40                __BAKERY_LOCK_END__ = .
                0x000000002fffed40                __BSS_END__ = .

xlat_table
 *(xlat_table)
                0x0000000000000c00                __BSS_SIZE__ = SIZEOF (.bss)
                0x000000002fffed40                __RW_END__ = .
                0x000000002fffed40                __BL32_END__ = .
LOAD /home/lodge/STM32MP157/tf-a/tf-a-stm32mp/../build/trusted/bl32/build_message.o
LOAD /home/lodge/STM32MP157/tf-a/tf-a-stm32mp/../build/trusted/bl32/sp_min_main.o
LOAD /home/lodge/STM32MP157/tf-a/tf-a-stm32mp/../build/trusted/bl32/runtime_svc.o
LOAD /home/lodge/STM32MP157/tf-a/tf-a-stm32mp/../build/trusted/bl32/plat_sp_min_common.o
LOAD /home/lodge/STM32MP157/tf-a/tf-a-stm32mp/../build/trusted/bl32/std_svc_setup.o
LOAD /home/lodge/STM32MP157/tf-a/tf-a-stm32mp/../build/trusted/bl32/cpu_data_array.o
LOAD /home/lodge/STM32MP157/tf-a/tf-a-stm32mp/../build/trusted/bl32/context_mgmt.o
LOAD /home/lodge/STM32MP157/tf-a/tf-a-stm32mp/../build/trusted/bl32/errata_report.o
LOAD /home/lodge/STM32MP157/tf-a/tf-a-stm32mp/../build/trusted/bl32/psci_off.o
LOAD /home/lodge/STM32MP157/tf-a/tf-a-stm32mp/../build/trusted/bl32/psci_on.o
LOAD /home/lodge/STM32MP157/tf-a/tf-a-stm32mp/../build/trusted/bl32/psci_suspend.o
LOAD /home/lodge/STM32MP157/tf-a/tf-a-stm32mp/../build/trusted/bl32/psci_common.o
LOAD /home/lodge/STM32MP157/tf-a/tf-a-stm32mp/../build/trusted/bl32/psci_main.o
LOAD /home/lodge/STM32MP157/tf-a/tf-a-stm32mp/../build/trusted/bl32/psci_setup.o
LOAD /home/lodge/STM32MP157/tf-a/tf-a-stm32mp/../build/trusted/bl32/psci_system_off.o
LOAD /home/lodge/STM32MP157/tf-a/tf-a-stm32mp/../build/trusted/bl32/psci_mem_protect.o
LOAD /home/lodge/STM32MP157/tf-a/tf-a-stm32mp/../build/trusted/bl32/bakery_lock_normal.o
LOAD /home/lodge/STM32MP157/tf-a/tf-a-stm32mp/../build/trusted/bl32/stm32mp1_calib.o
LOAD /home/lodge/STM32MP157/tf-a/tf-a-stm32mp/../build/trusted/bl32/etzpc.o
LOAD /home/lodge/STM32MP157/tf-a/tf-a-stm32mp/../build/trusted/bl32/stm32_rng.o
LOAD /home/lodge/STM32MP157/tf-a/tf-a-stm32mp/../build/trusted/bl32/stm32_rtc.o
LOAD /home/lodge/STM32MP157/tf-a/tf-a-stm32mp/../build/trusted/bl32/stm32_tamp.o
LOAD /home/lodge/STM32MP157/tf-a/tf-a-stm32mp/../build/trusted/bl32/stm32_timer.o
LOAD /home/lodge/STM32MP157/tf-a/tf-a-stm32mp/../build/trusted/bl32/sp_min_setup.o
LOAD /home/lodge/STM32MP157/tf-a/tf-a-stm32mp/../build/trusted/bl32/stm32mp1_low_power.o
LOAD /home/lodge/STM32MP157/tf-a/tf-a-stm32mp/../build/trusted/bl32/stm32mp1_pm.o
LOAD /home/lodge/STM32MP157/tf-a/tf-a-stm32mp/../build/trusted/bl32/stm32mp1_power_config.o
LOAD /home/lodge/STM32MP157/tf-a/tf-a-stm32mp/../build/trusted/bl32/stm32mp1_shared_resources.o
LOAD /home/lodge/STM32MP157/tf-a/tf-a-stm32mp/../build/trusted/bl32/stm32mp1_topology.o
LOAD /home/lodge/STM32MP157/tf-a/tf-a-stm32mp/../build/trusted/bl32/gic_common.o
LOAD /home/lodge/STM32MP157/tf-a/tf-a-stm32mp/../build/trusted/bl32/gicv2_helpers.o
LOAD /home/lodge/STM32MP157/tf-a/tf-a-stm32mp/../build/trusted/bl32/gicv2_main.o
LOAD /home/lodge/STM32MP157/tf-a/tf-a-stm32mp/../build/trusted/bl32/plat_gicv2.o
LOAD /home/lodge/STM32MP157/tf-a/tf-a-stm32mp/../build/trusted/bl32/stm32_gic.o
LOAD /home/lodge/STM32MP157/tf-a/tf-a-stm32mp/../build/trusted/bl32/plat_psci_common.o
LOAD /home/lodge/STM32MP157/tf-a/tf-a-stm32mp/../build/trusted/bl32/bsec_svc.o
LOAD /home/lodge/STM32MP157/tf-a/tf-a-stm32mp/../build/trusted/bl32/low_power_svc.o
LOAD /home/lodge/STM32MP157/tf-a/tf-a-stm32mp/../build/trusted/bl32/pwr_svc.o
LOAD /home/lodge/STM32MP157/tf-a/tf-a-stm32mp/../build/trusted/bl32/rcc_svc.o
LOAD /home/lodge/STM32MP157/tf-a/tf-a-stm32mp/../build/trusted/bl32/stm32mp1_svc_setup.o
LOAD /home/lodge/STM32MP157/tf-a/tf-a-stm32mp/../build/trusted/bl32/base.o
LOAD /home/lodge/STM32MP157/tf-a/tf-a-stm32mp/../build/trusted/bl32/clock.o
LOAD /home/lodge/STM32MP157/tf-a/tf-a-stm32mp/../build/trusted/bl32/entry.o
LOAD /home/lodge/STM32MP157/tf-a/tf-a-stm32mp/../build/trusted/bl32/reset_domain.o
LOAD /home/lodge/STM32MP157/tf-a/tf-a-stm32mp/../build/trusted/bl32/smt.o
LOAD /home/lodge/STM32MP157/tf-a/tf-a-stm32mp/../build/trusted/bl32/stm32mp1_scmi.o
LOAD /home/lodge/STM32MP157/tf-a/tf-a-stm32mp/../build/trusted/bl32/bl_common.o
LOAD /home/lodge/STM32MP157/tf-a/tf-a-stm32mp/../build/trusted/bl32/tf_log.o
LOAD /home/lodge/STM32MP157/tf-a/tf-a-stm32mp/../build/trusted/bl32/multi_console.o
LOAD /home/lodge/STM32MP157/tf-a/tf-a-stm32mp/../build/trusted/bl32/plat_bl_common.o
LOAD /home/lodge/STM32MP157/tf-a/tf-a-stm32mp/../build/trusted/bl32/plat_log_common.o
LOAD /home/lodge/STM32MP157/tf-a/tf-a-stm32mp/../build/trusted/bl32/plat_common.o
LOAD /home/lodge/STM32MP157/tf-a/tf-a-stm32mp/../build/trusted/bl32/popcountdi2.o
LOAD /home/lodge/STM32MP157/tf-a/tf-a-stm32mp/../build/trusted/bl32/popcountsi2.o
LOAD /home/lodge/STM32MP157/tf-a/tf-a-stm32mp/../build/trusted/bl32/ctzdi2.o
LOAD /home/lodge/STM32MP157/tf-a/tf-a-stm32mp/../build/trusted/bl32/divdi3.o
LOAD /home/lodge/STM32MP157/tf-a/tf-a-stm32mp/../build/trusted/bl32/divmoddi4.o
LOAD /home/lodge/STM32MP157/tf-a/tf-a-stm32mp/../build/trusted/bl32/lshrdi3.o
LOAD /home/lodge/STM32MP157/tf-a/tf-a-stm32mp/../build/trusted/bl32/udivmoddi4.o
LOAD /home/lodge/STM32MP157/tf-a/tf-a-stm32mp/../build/trusted/bl32/stm32mp_common.o
LOAD /home/lodge/STM32MP157/tf-a/tf-a-stm32mp/../build/trusted/bl32/stm32mp1_private.o
LOAD /home/lodge/STM32MP157/tf-a/tf-a-stm32mp/../build/trusted/bl32/xlat_tables_arch.o
LOAD /home/lodge/STM32MP157/tf-a/tf-a-stm32mp/../build/trusted/bl32/xlat_tables_context.o
LOAD /home/lodge/STM32MP157/tf-a/tf-a-stm32mp/../build/trusted/bl32/xlat_tables_core.o
LOAD /home/lodge/STM32MP157/tf-a/tf-a-stm32mp/../build/trusted/bl32/xlat_tables_utils.o
LOAD /home/lodge/STM32MP157/tf-a/tf-a-stm32mp/../build/trusted/bl32/tzc400.o
LOAD /home/lodge/STM32MP157/tf-a/tf-a-stm32mp/../build/trusted/bl32/delay_timer.o
LOAD /home/lodge/STM32MP157/tf-a/tf-a-stm32mp/../build/trusted/bl32/generic_delay_timer.o
LOAD /home/lodge/STM32MP157/tf-a/tf-a-stm32mp/../build/trusted/bl32/bsec2.o
LOAD /home/lodge/STM32MP157/tf-a/tf-a-stm32mp/../build/trusted/bl32/stm32mp_clkfunc.o
LOAD /home/lodge/STM32MP157/tf-a/tf-a-stm32mp/../build/trusted/bl32/stm32mp1_clk.o
LOAD /home/lodge/STM32MP157/tf-a/tf-a-stm32mp/../build/trusted/bl32/stm32mp1_ddr_helpers.o
LOAD /home/lodge/STM32MP157/tf-a/tf-a-stm32mp/../build/trusted/bl32/stm32_gpio.o
LOAD /home/lodge/STM32MP157/tf-a/tf-a-stm32mp/../build/trusted/bl32/stm32_i2c.o
LOAD /home/lodge/STM32MP157/tf-a/tf-a-stm32mp/../build/trusted/bl32/stm32_iwdg.o
LOAD /home/lodge/STM32MP157/tf-a/tf-a-stm32mp/../build/trusted/bl32/stm32mp_pmic.o
LOAD /home/lodge/STM32MP157/tf-a/tf-a-stm32mp/../build/trusted/bl32/stpmic1.o
LOAD /home/lodge/STM32MP157/tf-a/tf-a-stm32mp/../build/trusted/bl32/stm32mp_dummy_regulator.o
LOAD /home/lodge/STM32MP157/tf-a/tf-a-stm32mp/../build/trusted/bl32/stm32mp_regulator.o
LOAD /home/lodge/STM32MP157/tf-a/tf-a-stm32mp/../build/trusted/bl32/stm32mp1_reset.o
LOAD /home/lodge/STM32MP157/tf-a/tf-a-stm32mp/../build/trusted/bl32/stm32mp_dt.o
LOAD /home/lodge/STM32MP157/tf-a/tf-a-stm32mp/../build/trusted/bl32/stm32mp_shres_helpers.o
LOAD /home/lodge/STM32MP157/tf-a/tf-a-stm32mp/../build/trusted/bl32/stm32mp1_context.o
LOAD /home/lodge/STM32MP157/tf-a/tf-a-stm32mp/../build/trusted/bl32/stm32mp1_dbgmcu.o
LOAD /home/lodge/STM32MP157/tf-a/tf-a-stm32mp/../build/trusted/bl32/stm32mp1_security.o
LOAD /home/lodge/STM32MP157/tf-a/tf-a-stm32mp/../build/trusted/bl32/stm32mp1_syscfg.o
LOAD /home/lodge/STM32MP157/tf-a/tf-a-stm32mp/../build/trusted/bl32/entrypoint.o
LOAD /home/lodge/STM32MP157/tf-a/tf-a-stm32mp/../build/trusted/bl32/cpu_data.o
LOAD /home/lodge/STM32MP157/tf-a/tf-a-stm32mp/../build/trusted/bl32/cpu_helpers.o
LOAD /home/lodge/STM32MP157/tf-a/tf-a-stm32mp/../build/trusted/bl32/spinlock.o
LOAD /home/lodge/STM32MP157/tf-a/tf-a-stm32mp/../build/trusted/bl32/psci_helpers.o
LOAD /home/lodge/STM32MP157/tf-a/tf-a-stm32mp/../build/trusted/bl32/platform_mp_stack.o
LOAD /home/lodge/STM32MP157/tf-a/tf-a-stm32mp/../build/trusted/bl32/debug.o
LOAD /home/lodge/STM32MP157/tf-a/tf-a-stm32mp/../build/trusted/bl32/cache_helpers.o
LOAD /home/lodge/STM32MP157/tf-a/tf-a-stm32mp/../build/trusted/bl32/misc_helpers.o
LOAD /home/lodge/STM32MP157/tf-a/tf-a-stm32mp/../build/trusted/bl32/platform_helpers.o
LOAD /home/lodge/STM32MP157/tf-a/tf-a-stm32mp/../build/trusted/bl32/aeabi_ldivmod.o
LOAD /home/lodge/STM32MP157/tf-a/tf-a-stm32mp/../build/trusted/bl32/aeabi_uldivmod.o
LOAD /home/lodge/STM32MP157/tf-a/tf-a-stm32mp/../build/trusted/bl32/stm32_console.o
LOAD /home/lodge/STM32MP157/tf-a/tf-a-stm32mp/../build/trusted/bl32/enable_mmu.o
LOAD /home/lodge/STM32MP157/tf-a/tf-a-stm32mp/../build/trusted/bl32/cortex_a7.o
LOAD /home/lodge/STM32MP157/tf-a/tf-a-stm32mp/../build/trusted/bl32/stm32mp1_helper.o
LOAD /home/lodge/STM32MP157/tf-a/tf-a-stm32mp/../build/trusted/lib/libfdt.a
LOAD /home/lodge/STM32MP157/tf-a/tf-a-stm32mp/../build/trusted/lib/libc.a
OUTPUT(/home/lodge/STM32MP157/tf-a/tf-a-stm32mp/../build/trusted/bl32/bl32.elf elf32-littlearm)
LOAD linker stubs

.debug_info     0x0000000000000000    0x45134
 .debug_info    0x0000000000000000       0x7b /home/lodge/STM32MP157/tf-a/tf-a-stm32mp/../build/trusted/bl32/build_message.o
 .debug_info    0x000000000000007b      0xe4f /home/lodge/STM32MP157/tf-a/tf-a-stm32mp/../build/trusted/bl32/sp_min_main.o
 .debug_info    0x0000000000000eca      0x7f1 /home/lodge/STM32MP157/tf-a/tf-a-stm32mp/../build/trusted/bl32/runtime_svc.o
 .debug_info    0x00000000000016bb      0x126 /home/lodge/STM32MP157/tf-a/tf-a-stm32mp/../build/trusted/bl32/plat_sp_min_common.o
 .debug_info    0x00000000000017e1      0x7ab /home/lodge/STM32MP157/tf-a/tf-a-stm32mp/../build/trusted/bl32/std_svc_setup.o
 .debug_info    0x0000000000001f8c      0x1e8 /home/lodge/STM32MP157/tf-a/tf-a-stm32mp/../build/trusted/bl32/cpu_data_array.o
 .debug_info    0x0000000000002174      0xac1 /home/lodge/STM32MP157/tf-a/tf-a-stm32mp/../build/trusted/bl32/context_mgmt.o
 .debug_info    0x0000000000002c35      0x2b7 /home/lodge/STM32MP157/tf-a/tf-a-stm32mp/../build/trusted/bl32/errata_report.o
 .debug_info    0x0000000000002eec      0x8ec /home/lodge/STM32MP157/tf-a/tf-a-stm32mp/../build/trusted/bl32/psci_off.o
 .debug_info    0x00000000000037d8      0xe10 /home/lodge/STM32MP157/tf-a/tf-a-stm32mp/../build/trusted/bl32/psci_on.o
 .debug_info    0x00000000000045e8      0xe2b /home/lodge/STM32MP157/tf-a/tf-a-stm32mp/../build/trusted/bl32/psci_suspend.o
 .debug_info    0x0000000000005413     0x1efa /home/lodge/STM32MP157/tf-a/tf-a-stm32mp/../build/trusted/bl32/psci_common.o
 .debug_info    0x000000000000730d     0x137f /home/lodge/STM32MP157/tf-a/tf-a-stm32mp/../build/trusted/bl32/psci_main.o
 .debug_info    0x000000000000868c      0xd9b /home/lodge/STM32MP157/tf-a/tf-a-stm32mp/../build/trusted/bl32/psci_setup.o
 .debug_info    0x0000000000009427      0x689 /home/lodge/STM32MP157/tf-a/tf-a-stm32mp/../build/trusted/bl32/psci_system_off.o
 .debug_info    0x0000000000009ab0      0x50b /home/lodge/STM32MP157/tf-a/tf-a-stm32mp/../build/trusted/bl32/psci_mem_protect.o
 .debug_info    0x0000000000009fbb      0xc65 /home/lodge/STM32MP157/tf-a/tf-a-stm32mp/../build/trusted/bl32/bakery_lock_normal.o
 .debug_info    0x000000000000ac20     0x13eb /home/lodge/STM32MP157/tf-a/tf-a-stm32mp/../build/trusted/bl32/stm32mp1_calib.o
 .debug_info    0x000000000000c00b      0xd45 /home/lodge/STM32MP157/tf-a/tf-a-stm32mp/../build/trusted/bl32/etzpc.o
 .debug_info    0x000000000000cd50      0x77f /home/lodge/STM32MP157/tf-a/tf-a-stm32mp/../build/trusted/bl32/stm32_rng.o
 .debug_info    0x000000000000d4cf     0x109c /home/lodge/STM32MP157/tf-a/tf-a-stm32mp/../build/trusted/bl32/stm32_rtc.o
 .debug_info    0x000000000000e56b     0x1331 /home/lodge/STM32MP157/tf-a/tf-a-stm32mp/../build/trusted/bl32/stm32_tamp.o
 .debug_info    0x000000000000f89c      0xd85 /home/lodge/STM32MP157/tf-a/tf-a-stm32mp/../build/trusted/bl32/stm32_timer.o
 .debug_info    0x0000000000010621     0x11b4 /home/lodge/STM32MP157/tf-a/tf-a-stm32mp/../build/trusted/bl32/sp_min_setup.o
 .debug_info    0x00000000000117d5     0x1187 /home/lodge/STM32MP157/tf-a/tf-a-stm32mp/../build/trusted/bl32/stm32mp1_low_power.o
 .debug_info    0x000000000001295c      0xe5c /home/lodge/STM32MP157/tf-a/tf-a-stm32mp/../build/trusted/bl32/stm32mp1_pm.o
 .debug_info    0x00000000000137b8      0x6b4 /home/lodge/STM32MP157/tf-a/tf-a-stm32mp/../build/trusted/bl32/stm32mp1_power_config.o
 .debug_info    0x0000000000013e6c     0x12b9 /home/lodge/STM32MP157/tf-a/tf-a-stm32mp/../build/trusted/bl32/stm32mp1_shared_resources.o
 .debug_info    0x0000000000015125      0x1b3 /home/lodge/STM32MP157/tf-a/tf-a-stm32mp/../build/trusted/bl32/stm32mp1_topology.o
 .debug_info    0x00000000000152d8     0x11b1 /home/lodge/STM32MP157/tf-a/tf-a-stm32mp/../build/trusted/bl32/gic_common.o
 .debug_info    0x0000000000016489      0xa9a /home/lodge/STM32MP157/tf-a/tf-a-stm32mp/../build/trusted/bl32/gicv2_helpers.o
 .debug_info    0x0000000000016f23     0x14e4 /home/lodge/STM32MP157/tf-a/tf-a-stm32mp/../build/trusted/bl32/gicv2_main.o
 .debug_info    0x0000000000018407      0x7d0 /home/lodge/STM32MP157/tf-a/tf-a-stm32mp/../build/trusted/bl32/plat_gicv2.o
 .debug_info    0x0000000000018bd7      0x8f3 /home/lodge/STM32MP157/tf-a/tf-a-stm32mp/../build/trusted/bl32/stm32_gic.o
 .debug_info    0x00000000000194ca      0x1e0 /home/lodge/STM32MP157/tf-a/tf-a-stm32mp/../build/trusted/bl32/plat_psci_common.o
 .debug_info    0x00000000000196aa      0x8cf /home/lodge/STM32MP157/tf-a/tf-a-stm32mp/../build/trusted/bl32/bsec_svc.o
 .debug_info    0x0000000000019f79      0x11a /home/lodge/STM32MP157/tf-a/tf-a-stm32mp/../build/trusted/bl32/low_power_svc.o
 .debug_info    0x000000000001a093      0x58c /home/lodge/STM32MP157/tf-a/tf-a-stm32mp/../build/trusted/bl32/pwr_svc.o
 .debug_info    0x000000000001a61f      0x4cf /home/lodge/STM32MP157/tf-a/tf-a-stm32mp/../build/trusted/bl32/rcc_svc.o
 .debug_info    0x000000000001aaee      0x6f1 /home/lodge/STM32MP157/tf-a/tf-a-stm32mp/../build/trusted/bl32/stm32mp1_svc_setup.o
 .debug_info    0x000000000001b1df      0xad7 /home/lodge/STM32MP157/tf-a/tf-a-stm32mp/../build/trusted/bl32/base.o
 .debug_info    0x000000000001bcb6     0x1095 /home/lodge/STM32MP157/tf-a/tf-a-stm32mp/../build/trusted/bl32/clock.o
 .debug_info    0x000000000001cd4b      0x3c4 /home/lodge/STM32MP157/tf-a/tf-a-stm32mp/../build/trusted/bl32/entry.o
 .debug_info    0x000000000001d10f      0x9b0 /home/lodge/STM32MP157/tf-a/tf-a-stm32mp/../build/trusted/bl32/reset_domain.o
 .debug_info    0x000000000001dabf      0x6c1 /home/lodge/STM32MP157/tf-a/tf-a-stm32mp/../build/trusted/bl32/smt.o
 .debug_info    0x000000000001e180     0x10c3 /home/lodge/STM32MP157/tf-a/tf-a-stm32mp/../build/trusted/bl32/stm32mp1_scmi.o
 .debug_info    0x000000000001f243      0x239 /home/lodge/STM32MP157/tf-a/tf-a-stm32mp/../build/trusted/bl32/tf_log.o
 .debug_info    0x000000000001f47c      0x5d4 /home/lodge/STM32MP157/tf-a/tf-a-stm32mp/../build/trusted/bl32/multi_console.o
 .debug_info    0x000000000001fa50      0x160 /home/lodge/STM32MP157/tf-a/tf-a-stm32mp/../build/trusted/bl32/plat_log_common.o
 .debug_info    0x000000000001fbb0      0x148 /home/lodge/STM32MP157/tf-a/tf-a-stm32mp/../build/trusted/bl32/plat_common.o
 .debug_info    0x000000000001fcf8      0x154 /home/lodge/STM32MP157/tf-a/tf-a-stm32mp/../build/trusted/bl32/ctzdi2.o
 .debug_info    0x000000000001fe4c      0x1f2 /home/lodge/STM32MP157/tf-a/tf-a-stm32mp/../build/trusted/bl32/udivmoddi4.o
 .debug_info    0x000000000002003e      0x742 /home/lodge/STM32MP157/tf-a/tf-a-stm32mp/../build/trusted/bl32/stm32mp_common.o
 .debug_info    0x0000000000020780     0x1175 /home/lodge/STM32MP157/tf-a/tf-a-stm32mp/../build/trusted/bl32/stm32mp1_private.o
 .debug_info    0x00000000000218f5      0x92f /home/lodge/STM32MP157/tf-a/tf-a-stm32mp/../build/trusted/bl32/xlat_tables_arch.o
 .debug_info    0x0000000000022224      0x944 /home/lodge/STM32MP157/tf-a/tf-a-stm32mp/../build/trusted/bl32/xlat_tables_context.o
 .debug_info    0x0000000000022b68     0x1811 /home/lodge/STM32MP157/tf-a/tf-a-stm32mp/../build/trusted/bl32/xlat_tables_core.o
 .debug_info    0x0000000000024379      0x9f0 /home/lodge/STM32MP157/tf-a/tf-a-stm32mp/../build/trusted/bl32/xlat_tables_utils.o
 .debug_info    0x0000000000024d69     0x12c3 /home/lodge/STM32MP157/tf-a/tf-a-stm32mp/../build/trusted/bl32/tzc400.o
 .debug_info    0x000000000002602c      0x296 /home/lodge/STM32MP157/tf-a/tf-a-stm32mp/../build/trusted/bl32/delay_timer.o
 .debug_info    0x00000000000262c2      0x317 /home/lodge/STM32MP157/tf-a/tf-a-stm32mp/../build/trusted/bl32/generic_delay_timer.o
 .debug_info    0x00000000000265d9     0x1bee /home/lodge/STM32MP157/tf-a/tf-a-stm32mp/../build/trusted/bl32/bsec2.o
 .debug_info    0x00000000000281c7     0x11cf /home/lodge/STM32MP157/tf-a/tf-a-stm32mp/../build/trusted/bl32/stm32mp_clkfunc.o
 .debug_info    0x0000000000029396     0x7e81 /home/lodge/STM32MP157/tf-a/tf-a-stm32mp/../build/trusted/bl32/stm32mp1_clk.o
 .debug_info    0x0000000000031217     0x4544 /home/lodge/STM32MP157/tf-a/tf-a-stm32mp/../build/trusted/bl32/stm32mp1_ddr_helpers.o
 .debug_info    0x000000000003575b     0x12b9 /home/lodge/STM32MP157/tf-a/tf-a-stm32mp/../build/trusted/bl32/stm32_gpio.o
 .debug_info    0x0000000000036a14     0x30ee /home/lodge/STM32MP157/tf-a/tf-a-stm32mp/../build/trusted/bl32/stm32_i2c.o
 .debug_info    0x0000000000039b02      0xafb /home/lodge/STM32MP157/tf-a/tf-a-stm32mp/../build/trusted/bl32/stm32_iwdg.o
 .debug_info    0x000000000003a5fd     0x1848 /home/lodge/STM32MP157/tf-a/tf-a-stm32mp/../build/trusted/bl32/stm32mp_pmic.o
 .debug_info    0x000000000003be45      0xf85 /home/lodge/STM32MP157/tf-a/tf-a-stm32mp/../build/trusted/bl32/stpmic1.o
 .debug_info    0x000000000003cdca      0x6de /home/lodge/STM32MP157/tf-a/tf-a-stm32mp/../build/trusted/bl32/stm32mp1_reset.o
 .debug_info    0x000000000003d4a8     0x17cc /home/lodge/STM32MP157/tf-a/tf-a-stm32mp/../build/trusted/bl32/stm32mp_dt.o
 .debug_info    0x000000000003ec74      0x533 /home/lodge/STM32MP157/tf-a/tf-a-stm32mp/../build/trusted/bl32/stm32mp_shres_helpers.o
 .debug_info    0x000000000003f1a7     0x1050 /home/lodge/STM32MP157/tf-a/tf-a-stm32mp/../build/trusted/bl32/stm32mp1_context.o
 .debug_info    0x00000000000401f7      0x42f /home/lodge/STM32MP157/tf-a/tf-a-stm32mp/../build/trusted/bl32/stm32mp1_dbgmcu.o
 .debug_info    0x0000000000040626      0x326 /home/lodge/STM32MP157/tf-a/tf-a-stm32mp/../build/trusted/bl32/stm32mp1_security.o
 .debug_info    0x000000000004094c      0x928 /home/lodge/STM32MP157/tf-a/tf-a-stm32mp/../build/trusted/bl32/stm32mp1_syscfg.o
 .debug_info    0x0000000000041274       0x22 /home/lodge/STM32MP157/tf-a/tf-a-stm32mp/../build/trusted/bl32/entrypoint.o
 .debug_info    0x0000000000041296       0x22 /home/lodge/STM32MP157/tf-a/tf-a-stm32mp/../build/trusted/bl32/cpu_data.o
 .debug_info    0x00000000000412b8       0x22 /home/lodge/STM32MP157/tf-a/tf-a-stm32mp/../build/trusted/bl32/cpu_helpers.o
 .debug_info    0x00000000000412da       0x22 /home/lodge/STM32MP157/tf-a/tf-a-stm32mp/../build/trusted/bl32/spinlock.o
 .debug_info    0x00000000000412fc       0x22 /home/lodge/STM32MP157/tf-a/tf-a-stm32mp/../build/trusted/bl32/psci_helpers.o
 .debug_info    0x000000000004131e       0x22 /home/lodge/STM32MP157/tf-a/tf-a-stm32mp/../build/trusted/bl32/platform_mp_stack.o
 .debug_info    0x0000000000041340       0x22 /home/lodge/STM32MP157/tf-a/tf-a-stm32mp/../build/trusted/bl32/debug.o
 .debug_info    0x0000000000041362       0x22 /home/lodge/STM32MP157/tf-a/tf-a-stm32mp/../build/trusted/bl32/cache_helpers.o
 .debug_info    0x0000000000041384       0x22 /home/lodge/STM32MP157/tf-a/tf-a-stm32mp/../build/trusted/bl32/misc_helpers.o
 .debug_info    0x00000000000413a6       0x22 /home/lodge/STM32MP157/tf-a/tf-a-stm32mp/../build/trusted/bl32/platform_helpers.o
 .debug_info    0x00000000000413c8       0x26 /home/lodge/STM32MP157/tf-a/tf-a-stm32mp/../build/trusted/bl32/aeabi_uldivmod.o
 .debug_info    0x00000000000413ee       0x22 /home/lodge/STM32MP157/tf-a/tf-a-stm32mp/../build/trusted/bl32/stm32_console.o
 .debug_info    0x0000000000041410       0x22 /home/lodge/STM32MP157/tf-a/tf-a-stm32mp/../build/trusted/bl32/enable_mmu.o
 .debug_info    0x0000000000041432       0x22 /home/lodge/STM32MP157/tf-a/tf-a-stm32mp/../build/trusted/bl32/cortex_a7.o
 .debug_info    0x0000000000041454       0x22 /home/lodge/STM32MP157/tf-a/tf-a-stm32mp/../build/trusted/bl32/stm32mp1_helper.o
 .debug_info    0x0000000000041476      0x7e8 /home/lodge/STM32MP157/tf-a/tf-a-stm32mp/../build/trusted/lib/libfdt.a(fdt.o)
 .debug_info    0x0000000000041c5e      0x260 /home/lodge/STM32MP157/tf-a/tf-a-stm32mp/../build/trusted/lib/libfdt.a(fdt_addresses.o)
 .debug_info    0x0000000000041ebe     0x2261 /home/lodge/STM32MP157/tf-a/tf-a-stm32mp/../build/trusted/lib/libfdt.a(fdt_ro.o)
 .debug_info    0x000000000004411f      0x18d /home/lodge/STM32MP157/tf-a/tf-a-stm32mp/../build/trusted/lib/libc.a(assert.o)
 .debug_info    0x00000000000442ac       0xc9 /home/lodge/STM32MP157/tf-a/tf-a-stm32mp/../build/trusted/lib/libc.a(memchr.o)
 .debug_info    0x0000000000044375       0xff /home/lodge/STM32MP157/tf-a/tf-a-stm32mp/../build/trusted/lib/libc.a(memcmp.o)
 .debug_info    0x0000000000044474       0xd6 /home/lodge/STM32MP157/tf-a/tf-a-stm32mp/../build/trusted/lib/libc.a(memcpy.o)
 .debug_info    0x000000000004454a      0x11e /home/lodge/STM32MP157/tf-a/tf-a-stm32mp/../build/trusted/lib/libc.a(memmove.o)
 .debug_info    0x0000000000044668       0xb5 /home/lodge/STM32MP157/tf-a/tf-a-stm32mp/../build/trusted/lib/libc.a(memset.o)
 .debug_info    0x000000000004471d      0x48d /home/lodge/STM32MP157/tf-a/tf-a-stm32mp/../build/trusted/lib/libc.a(printf.o)
 .debug_info    0x0000000000044baa       0xcb /home/lodge/STM32MP157/tf-a/tf-a-stm32mp/../build/trusted/lib/libc.a(putchar.o)
 .debug_info    0x0000000000044c75       0xa5 /home/lodge/STM32MP157/tf-a/tf-a-stm32mp/../build/trusted/lib/libc.a(strchr.o)
 .debug_info    0x0000000000044d1a       0x87 /home/lodge/STM32MP157/tf-a/tf-a-stm32mp/../build/trusted/lib/libc.a(strcmp.o)
 .debug_info    0x0000000000044da1      0x10f /home/lodge/STM32MP157/tf-a/tf-a-stm32mp/../build/trusted/lib/libc.a(strlcpy.o)
 .debug_info    0x0000000000044eb0       0x8c /home/lodge/STM32MP157/tf-a/tf-a-stm32mp/../build/trusted/lib/libc.a(strlen.o)
 .debug_info    0x0000000000044f3c       0xa5 /home/lodge/STM32MP157/tf-a/tf-a-stm32mp/../build/trusted/lib/libc.a(strncmp.o)
 .debug_info    0x0000000000044fe1       0x9a /home/lodge/STM32MP157/tf-a/tf-a-stm32mp/../build/trusted/lib/libc.a(strnlen.o)
 .debug_info    0x000000000004507b       0xb9 /home/lodge/STM32MP157/tf-a/tf-a-stm32mp/../build/trusted/lib/libc.a(strrchr.o)

.debug_abbrev   0x0000000000000000     0xdb1d
 .debug_abbrev  0x0000000000000000       0x45 /home/lodge/STM32MP157/tf-a/tf-a-stm32mp/../build/trusted/bl32/build_message.o
 .debug_abbrev  0x0000000000000045      0x32a /home/lodge/STM32MP157/tf-a/tf-a-stm32mp/../build/trusted/bl32/sp_min_main.o
 .debug_abbrev  0x000000000000036f      0x257 /home/lodge/STM32MP157/tf-a/tf-a-stm32mp/../build/trusted/bl32/runtime_svc.o
 .debug_abbrev  0x00000000000005c6       0xbb /home/lodge/STM32MP157/tf-a/tf-a-stm32mp/../build/trusted/bl32/plat_sp_min_common.o
 .debug_abbrev  0x0000000000000681      0x20d /home/lodge/STM32MP157/tf-a/tf-a-stm32mp/../build/trusted/bl32/std_svc_setup.o
 .debug_abbrev  0x000000000000088e      0x111 /home/lodge/STM32MP157/tf-a/tf-a-stm32mp/../build/trusted/bl32/cpu_data_array.o
 .debug_abbrev  0x000000000000099f      0x313 /home/lodge/STM32MP157/tf-a/tf-a-stm32mp/../build/trusted/bl32/context_mgmt.o
 .debug_abbrev  0x0000000000000cb2      0x17c /home/lodge/STM32MP157/tf-a/tf-a-stm32mp/../build/trusted/bl32/errata_report.o
 .debug_abbrev  0x0000000000000e2e      0x2d7 /home/lodge/STM32MP157/tf-a/tf-a-stm32mp/../build/trusted/bl32/psci_off.o
 .debug_abbrev  0x0000000000001105      0x348 /home/lodge/STM32MP157/tf-a/tf-a-stm32mp/../build/trusted/bl32/psci_on.o
 .debug_abbrev  0x000000000000144d      0x3f4 /home/lodge/STM32MP157/tf-a/tf-a-stm32mp/../build/trusted/bl32/psci_suspend.o
 .debug_abbrev  0x0000000000001841      0x522 /home/lodge/STM32MP157/tf-a/tf-a-stm32mp/../build/trusted/bl32/psci_common.o
 .debug_abbrev  0x0000000000001d63      0x458 /home/lodge/STM32MP157/tf-a/tf-a-stm32mp/../build/trusted/bl32/psci_main.o
 .debug_abbrev  0x00000000000021bb      0x371 /home/lodge/STM32MP157/tf-a/tf-a-stm32mp/../build/trusted/bl32/psci_setup.o
 .debug_abbrev  0x000000000000252c      0x1e3 /home/lodge/STM32MP157/tf-a/tf-a-stm32mp/../build/trusted/bl32/psci_system_off.o
 .debug_abbrev  0x000000000000270f      0x17f /home/lodge/STM32MP157/tf-a/tf-a-stm32mp/../build/trusted/bl32/psci_mem_protect.o
 .debug_abbrev  0x000000000000288e      0x276 /home/lodge/STM32MP157/tf-a/tf-a-stm32mp/../build/trusted/bl32/bakery_lock_normal.o
 .debug_abbrev  0x0000000000002b04      0x4b5 /home/lodge/STM32MP157/tf-a/tf-a-stm32mp/../build/trusted/bl32/stm32mp1_calib.o
 .debug_abbrev  0x0000000000002fb9      0x334 /home/lodge/STM32MP157/tf-a/tf-a-stm32mp/../build/trusted/bl32/etzpc.o
 .debug_abbrev  0x00000000000032ed      0x25d /home/lodge/STM32MP157/tf-a/tf-a-stm32mp/../build/trusted/bl32/stm32_rng.o
 .debug_abbrev  0x000000000000354a      0x446 /home/lodge/STM32MP157/tf-a/tf-a-stm32mp/../build/trusted/bl32/stm32_rtc.o
 .debug_abbrev  0x0000000000003990      0x383 /home/lodge/STM32MP157/tf-a/tf-a-stm32mp/../build/trusted/bl32/stm32_tamp.o
 .debug_abbrev  0x0000000000003d13      0x330 /home/lodge/STM32MP157/tf-a/tf-a-stm32mp/../build/trusted/bl32/stm32_timer.o
 .debug_abbrev  0x0000000000004043      0x43e /home/lodge/STM32MP157/tf-a/tf-a-stm32mp/../build/trusted/bl32/sp_min_setup.o
 .debug_abbrev  0x0000000000004481      0x352 /home/lodge/STM32MP157/tf-a/tf-a-stm32mp/../build/trusted/bl32/stm32mp1_low_power.o
 .debug_abbrev  0x00000000000047d3      0x3cf /home/lodge/STM32MP157/tf-a/tf-a-stm32mp/../build/trusted/bl32/stm32mp1_pm.o
 .debug_abbrev  0x0000000000004ba2      0x268 /home/lodge/STM32MP157/tf-a/tf-a-stm32mp/../build/trusted/bl32/stm32mp1_power_config.o
 .debug_abbrev  0x0000000000004e0a      0x44c /home/lodge/STM32MP157/tf-a/tf-a-stm32mp/../build/trusted/bl32/stm32mp1_shared_resources.o
 .debug_abbrev  0x0000000000005256       0xee /home/lodge/STM32MP157/tf-a/tf-a-stm32mp/../build/trusted/bl32/stm32mp1_topology.o
 .debug_abbrev  0x0000000000005344      0x25f /home/lodge/STM32MP157/tf-a/tf-a-stm32mp/../build/trusted/bl32/gic_common.o
 .debug_abbrev  0x00000000000055a3      0x26b /home/lodge/STM32MP157/tf-a/tf-a-stm32mp/../build/trusted/bl32/gicv2_helpers.o
 .debug_abbrev  0x000000000000580e      0x35b /home/lodge/STM32MP157/tf-a/tf-a-stm32mp/../build/trusted/bl32/gicv2_main.o
 .debug_abbrev  0x0000000000005b69      0x1e4 /home/lodge/STM32MP157/tf-a/tf-a-stm32mp/../build/trusted/bl32/plat_gicv2.o
 .debug_abbrev  0x0000000000005d4d      0x255 /home/lodge/STM32MP157/tf-a/tf-a-stm32mp/../build/trusted/bl32/stm32_gic.o
 .debug_abbrev  0x0000000000005fa2      0x113 /home/lodge/STM32MP157/tf-a/tf-a-stm32mp/../build/trusted/bl32/plat_psci_common.o
 .debug_abbrev  0x00000000000060b5      0x263 /home/lodge/STM32MP157/tf-a/tf-a-stm32mp/../build/trusted/bl32/bsec_svc.o
 .debug_abbrev  0x0000000000006318       0xb3 /home/lodge/STM32MP157/tf-a/tf-a-stm32mp/../build/trusted/bl32/low_power_svc.o
 .debug_abbrev  0x00000000000063cb      0x193 /home/lodge/STM32MP157/tf-a/tf-a-stm32mp/../build/trusted/bl32/pwr_svc.o
 .debug_abbrev  0x000000000000655e      0x19b /home/lodge/STM32MP157/tf-a/tf-a-stm32mp/../build/trusted/bl32/rcc_svc.o
 .debug_abbrev  0x00000000000066f9      0x1d1 /home/lodge/STM32MP157/tf-a/tf-a-stm32mp/../build/trusted/bl32/stm32mp1_svc_setup.o
 .debug_abbrev  0x00000000000068ca      0x26f /home/lodge/STM32MP157/tf-a/tf-a-stm32mp/../build/trusted/bl32/base.o
 .debug_abbrev  0x0000000000006b39      0x356 /home/lodge/STM32MP157/tf-a/tf-a-stm32mp/../build/trusted/bl32/clock.o
 .debug_abbrev  0x0000000000006e8f      0x1eb /home/lodge/STM32MP157/tf-a/tf-a-stm32mp/../build/trusted/bl32/entry.o
 .debug_abbrev  0x000000000000707a      0x23d /home/lodge/STM32MP157/tf-a/tf-a-stm32mp/../build/trusted/bl32/reset_domain.o
 .debug_abbrev  0x00000000000072b7      0x228 /home/lodge/STM32MP157/tf-a/tf-a-stm32mp/../build/trusted/bl32/smt.o
 .debug_abbrev  0x00000000000074df      0x36f /home/lodge/STM32MP157/tf-a/tf-a-stm32mp/../build/trusted/bl32/stm32mp1_scmi.o
 .debug_abbrev  0x000000000000784e      0x14b /home/lodge/STM32MP157/tf-a/tf-a-stm32mp/../build/trusted/bl32/tf_log.o
 .debug_abbrev  0x0000000000007999      0x284 /home/lodge/STM32MP157/tf-a/tf-a-stm32mp/../build/trusted/bl32/multi_console.o
 .debug_abbrev  0x0000000000007c1d       0xd0 /home/lodge/STM32MP157/tf-a/tf-a-stm32mp/../build/trusted/bl32/plat_log_common.o
 .debug_abbrev  0x0000000000007ced       0xcf /home/lodge/STM32MP157/tf-a/tf-a-stm32mp/../build/trusted/bl32/plat_common.o
 .debug_abbrev  0x0000000000007dbc       0xe2 /home/lodge/STM32MP157/tf-a/tf-a-stm32mp/../build/trusted/bl32/ctzdi2.o
 .debug_abbrev  0x0000000000007e9e      0x11b /home/lodge/STM32MP157/tf-a/tf-a-stm32mp/../build/trusted/bl32/udivmoddi4.o
 .debug_abbrev  0x0000000000007fb9      0x275 /home/lodge/STM32MP157/tf-a/tf-a-stm32mp/../build/trusted/bl32/stm32mp_common.o
 .debug_abbrev  0x000000000000822e      0x447 /home/lodge/STM32MP157/tf-a/tf-a-stm32mp/../build/trusted/bl32/stm32mp1_private.o
 .debug_abbrev  0x0000000000008675      0x2fb /home/lodge/STM32MP157/tf-a/tf-a-stm32mp/../build/trusted/bl32/xlat_tables_arch.o
 .debug_abbrev  0x0000000000008970      0x1eb /home/lodge/STM32MP157/tf-a/tf-a-stm32mp/../build/trusted/bl32/xlat_tables_context.o
 .debug_abbrev  0x0000000000008b5b      0x445 /home/lodge/STM32MP157/tf-a/tf-a-stm32mp/../build/trusted/bl32/xlat_tables_core.o
 .debug_abbrev  0x0000000000008fa0      0x29e /home/lodge/STM32MP157/tf-a/tf-a-stm32mp/../build/trusted/bl32/xlat_tables_utils.o
 .debug_abbrev  0x000000000000923e      0x290 /home/lodge/STM32MP157/tf-a/tf-a-stm32mp/../build/trusted/bl32/tzc400.o
 .debug_abbrev  0x00000000000094ce      0x158 /home/lodge/STM32MP157/tf-a/tf-a-stm32mp/../build/trusted/bl32/delay_timer.o
 .debug_abbrev  0x0000000000009626      0x223 /home/lodge/STM32MP157/tf-a/tf-a-stm32mp/../build/trusted/bl32/generic_delay_timer.o
 .debug_abbrev  0x0000000000009849      0x42d /home/lodge/STM32MP157/tf-a/tf-a-stm32mp/../build/trusted/bl32/bsec2.o
 .debug_abbrev  0x0000000000009c76      0x331 /home/lodge/STM32MP157/tf-a/tf-a-stm32mp/../build/trusted/bl32/stm32mp_clkfunc.o
 .debug_abbrev  0x0000000000009fa7      0x55c /home/lodge/STM32MP157/tf-a/tf-a-stm32mp/../build/trusted/bl32/stm32mp1_clk.o
 .debug_abbrev  0x000000000000a503      0x3ac /home/lodge/STM32MP157/tf-a/tf-a-stm32mp/../build/trusted/bl32/stm32mp1_ddr_helpers.o
 .debug_abbrev  0x000000000000a8af      0x320 /home/lodge/STM32MP157/tf-a/tf-a-stm32mp/../build/trusted/bl32/stm32_gpio.o
 .debug_abbrev  0x000000000000abcf      0x3e7 /home/lodge/STM32MP157/tf-a/tf-a-stm32mp/../build/trusted/bl32/stm32_i2c.o
 .debug_abbrev  0x000000000000afb6      0x2b0 /home/lodge/STM32MP157/tf-a/tf-a-stm32mp/../build/trusted/bl32/stm32_iwdg.o
 .debug_abbrev  0x000000000000b266      0x401 /home/lodge/STM32MP157/tf-a/tf-a-stm32mp/../build/trusted/bl32/stm32mp_pmic.o
 .debug_abbrev  0x000000000000b667      0x210 /home/lodge/STM32MP157/tf-a/tf-a-stm32mp/../build/trusted/bl32/stpmic1.o
 .debug_abbrev  0x000000000000b877      0x1b8 /home/lodge/STM32MP157/tf-a/tf-a-stm32mp/../build/trusted/bl32/stm32mp1_reset.o
 .debug_abbrev  0x000000000000ba2f      0x37f /home/lodge/STM32MP157/tf-a/tf-a-stm32mp/../build/trusted/bl32/stm32mp_dt.o
 .debug_abbrev  0x000000000000bdae      0x1b6 /home/lodge/STM32MP157/tf-a/tf-a-stm32mp/../build/trusted/bl32/stm32mp_shres_helpers.o
 .debug_abbrev  0x000000000000bf64      0x3dc /home/lodge/STM32MP157/tf-a/tf-a-stm32mp/../build/trusted/bl32/stm32mp1_context.o
 .debug_abbrev  0x000000000000c340      0x1d9 /home/lodge/STM32MP157/tf-a/tf-a-stm32mp/../build/trusted/bl32/stm32mp1_dbgmcu.o
 .debug_abbrev  0x000000000000c519      0x127 /home/lodge/STM32MP157/tf-a/tf-a-stm32mp/../build/trusted/bl32/stm32mp1_security.o
 .debug_abbrev  0x000000000000c640      0x1c1 /home/lodge/STM32MP157/tf-a/tf-a-stm32mp/../build/trusted/bl32/stm32mp1_syscfg.o
 .debug_abbrev  0x000000000000c801       0x12 /home/lodge/STM32MP157/tf-a/tf-a-stm32mp/../build/trusted/bl32/entrypoint.o
 .debug_abbrev  0x000000000000c813       0x12 /home/lodge/STM32MP157/tf-a/tf-a-stm32mp/../build/trusted/bl32/cpu_data.o
 .debug_abbrev  0x000000000000c825       0x12 /home/lodge/STM32MP157/tf-a/tf-a-stm32mp/../build/trusted/bl32/cpu_helpers.o
 .debug_abbrev  0x000000000000c837       0x12 /home/lodge/STM32MP157/tf-a/tf-a-stm32mp/../build/trusted/bl32/spinlock.o
 .debug_abbrev  0x000000000000c849       0x12 /home/lodge/STM32MP157/tf-a/tf-a-stm32mp/../build/trusted/bl32/psci_helpers.o
 .debug_abbrev  0x000000000000c85b       0x12 /home/lodge/STM32MP157/tf-a/tf-a-stm32mp/../build/trusted/bl32/platform_mp_stack.o
 .debug_abbrev  0x000000000000c86d       0x12 /home/lodge/STM32MP157/tf-a/tf-a-stm32mp/../build/trusted/bl32/debug.o
 .debug_abbrev  0x000000000000c87f       0x12 /home/lodge/STM32MP157/tf-a/tf-a-stm32mp/../build/trusted/bl32/cache_helpers.o
 .debug_abbrev  0x000000000000c891       0x12 /home/lodge/STM32MP157/tf-a/tf-a-stm32mp/../build/trusted/bl32/misc_helpers.o
 .debug_abbrev  0x000000000000c8a3       0x12 /home/lodge/STM32MP157/tf-a/tf-a-stm32mp/../build/trusted/bl32/platform_helpers.o
 .debug_abbrev  0x000000000000c8b5       0x14 /home/lodge/STM32MP157/tf-a/tf-a-stm32mp/../build/trusted/bl32/aeabi_uldivmod.o
 .debug_abbrev  0x000000000000c8c9       0x12 /home/lodge/STM32MP157/tf-a/tf-a-stm32mp/../build/trusted/bl32/stm32_console.o
 .debug_abbrev  0x000000000000c8db       0x12 /home/lodge/STM32MP157/tf-a/tf-a-stm32mp/../build/trusted/bl32/enable_mmu.o
 .debug_abbrev  0x000000000000c8ed       0x12 /home/lodge/STM32MP157/tf-a/tf-a-stm32mp/../build/trusted/bl32/cortex_a7.o
 .debug_abbrev  0x000000000000c8ff       0x12 /home/lodge/STM32MP157/tf-a/tf-a-stm32mp/../build/trusted/bl32/stm32mp1_helper.o
 .debug_abbrev  0x000000000000c911      0x213 /home/lodge/STM32MP157/tf-a/tf-a-stm32mp/../build/trusted/lib/libfdt.a(fdt.o)
 .debug_abbrev  0x000000000000cb24      0x12b /home/lodge/STM32MP157/tf-a/tf-a-stm32mp/../build/trusted/lib/libfdt.a(fdt_addresses.o)
 .debug_abbrev  0x000000000000cc4f      0x403 /home/lodge/STM32MP157/tf-a/tf-a-stm32mp/../build/trusted/lib/libfdt.a(fdt_ro.o)
 .debug_abbrev  0x000000000000d052       0xe5 /home/lodge/STM32MP157/tf-a/tf-a-stm32mp/../build/trusted/lib/libc.a(assert.o)
 .debug_abbrev  0x000000000000d137       0x9b /home/lodge/STM32MP157/tf-a/tf-a-stm32mp/../build/trusted/lib/libc.a(memchr.o)
 .debug_abbrev  0x000000000000d1d2       0x94 /home/lodge/STM32MP157/tf-a/tf-a-stm32mp/../build/trusted/lib/libc.a(memcmp.o)
 .debug_abbrev  0x000000000000d266       0xa1 /home/lodge/STM32MP157/tf-a/tf-a-stm32mp/../build/trusted/lib/libc.a(memcpy.o)
 .debug_abbrev  0x000000000000d307       0xc6 /home/lodge/STM32MP157/tf-a/tf-a-stm32mp/../build/trusted/lib/libc.a(memmove.o)
 .debug_abbrev  0x000000000000d3cd       0xa0 /home/lodge/STM32MP157/tf-a/tf-a-stm32mp/../build/trusted/lib/libc.a(memset.o)
 .debug_abbrev  0x000000000000d46d      0x264 /home/lodge/STM32MP157/tf-a/tf-a-stm32mp/../build/trusted/lib/libc.a(printf.o)
 .debug_abbrev  0x000000000000d6d1       0x95 /home/lodge/STM32MP157/tf-a/tf-a-stm32mp/../build/trusted/lib/libc.a(putchar.o)
 .debug_abbrev  0x000000000000d766       0x80 /home/lodge/STM32MP157/tf-a/tf-a-stm32mp/../build/trusted/lib/libc.a(strchr.o)
 .debug_abbrev  0x000000000000d7e6       0x6c /home/lodge/STM32MP157/tf-a/tf-a-stm32mp/../build/trusted/lib/libc.a(strcmp.o)
 .debug_abbrev  0x000000000000d852       0xa3 /home/lodge/STM32MP157/tf-a/tf-a-stm32mp/../build/trusted/lib/libc.a(strlcpy.o)
 .debug_abbrev  0x000000000000d8f5       0x84 /home/lodge/STM32MP157/tf-a/tf-a-stm32mp/../build/trusted/lib/libc.a(strlen.o)
 .debug_abbrev  0x000000000000d979       0x7b /home/lodge/STM32MP157/tf-a/tf-a-stm32mp/../build/trusted/lib/libc.a(strncmp.o)
 .debug_abbrev  0x000000000000d9f4       0x95 /home/lodge/STM32MP157/tf-a/tf-a-stm32mp/../build/trusted/lib/libc.a(strnlen.o)
 .debug_abbrev  0x000000000000da89       0x94 /home/lodge/STM32MP157/tf-a/tf-a-stm32mp/../build/trusted/lib/libc.a(strrchr.o)

.debug_aranges  0x0000000000000000     0x2450
 .debug_aranges
                0x0000000000000000       0x18 /home/lodge/STM32MP157/tf-a/tf-a-stm32mp/../build/trusted/bl32/build_message.o
 .debug_aranges
                0x0000000000000018       0x70 /home/lodge/STM32MP157/tf-a/tf-a-stm32mp/../build/trusted/bl32/sp_min_main.o
 .debug_aranges
                0x0000000000000088       0x28 /home/lodge/STM32MP157/tf-a/tf-a-stm32mp/../build/trusted/bl32/runtime_svc.o
 .debug_aranges
                0x00000000000000b0       0x20 /home/lodge/STM32MP157/tf-a/tf-a-stm32mp/../build/trusted/bl32/plat_sp_min_common.o
 .debug_aranges
                0x00000000000000d0       0x28 /home/lodge/STM32MP157/tf-a/tf-a-stm32mp/../build/trusted/bl32/std_svc_setup.o
 .debug_aranges
                0x00000000000000f8       0x18 /home/lodge/STM32MP157/tf-a/tf-a-stm32mp/../build/trusted/bl32/cpu_data_array.o
 .debug_aranges
                0x0000000000000110       0x40 /home/lodge/STM32MP157/tf-a/tf-a-stm32mp/../build/trusted/bl32/context_mgmt.o
 .debug_aranges
                0x0000000000000150       0x28 /home/lodge/STM32MP157/tf-a/tf-a-stm32mp/../build/trusted/bl32/errata_report.o
 .debug_aranges
                0x0000000000000178       0x20 /home/lodge/STM32MP157/tf-a/tf-a-stm32mp/../build/trusted/bl32/psci_off.o
 .debug_aranges
                0x0000000000000198       0x28 /home/lodge/STM32MP157/tf-a/tf-a-stm32mp/../build/trusted/bl32/psci_on.o
 .debug_aranges
                0x00000000000001c0       0x28 /home/lodge/STM32MP157/tf-a/tf-a-stm32mp/../build/trusted/bl32/psci_suspend.o
 .debug_aranges
                0x00000000000001e8       0xc0 /home/lodge/STM32MP157/tf-a/tf-a-stm32mp/../build/trusted/bl32/psci_common.o
 .debug_aranges
                0x00000000000002a8       0x78 /home/lodge/STM32MP157/tf-a/tf-a-stm32mp/../build/trusted/bl32/psci_main.o
 .debug_aranges
                0x0000000000000320       0x30 /home/lodge/STM32MP157/tf-a/tf-a-stm32mp/../build/trusted/bl32/psci_setup.o
 .debug_aranges
                0x0000000000000350       0x30 /home/lodge/STM32MP157/tf-a/tf-a-stm32mp/../build/trusted/bl32/psci_system_off.o
 .debug_aranges
                0x0000000000000380       0x28 /home/lodge/STM32MP157/tf-a/tf-a-stm32mp/../build/trusted/bl32/psci_mem_protect.o
 .debug_aranges
                0x00000000000003a8       0x28 /home/lodge/STM32MP157/tf-a/tf-a-stm32mp/../build/trusted/bl32/bakery_lock_normal.o
 .debug_aranges
                0x00000000000003d0       0x80 /home/lodge/STM32MP157/tf-a/tf-a-stm32mp/../build/trusted/bl32/stm32mp1_calib.o
 .debug_aranges
                0x0000000000000450       0x70 /home/lodge/STM32MP157/tf-a/tf-a-stm32mp/../build/trusted/bl32/etzpc.o
 .debug_aranges
                0x00000000000004c0       0x28 /home/lodge/STM32MP157/tf-a/tf-a-stm32mp/../build/trusted/bl32/stm32_rng.o
 .debug_aranges
                0x00000000000004e8       0x80 /home/lodge/STM32MP157/tf-a/tf-a-stm32mp/../build/trusted/bl32/stm32_rtc.o
 .debug_aranges
                0x0000000000000568       0x40 /home/lodge/STM32MP157/tf-a/tf-a-stm32mp/../build/trusted/bl32/stm32_tamp.o
 .debug_aranges
                0x00000000000005a8       0x48 /home/lodge/STM32MP157/tf-a/tf-a-stm32mp/../build/trusted/bl32/stm32_timer.o
 .debug_aranges
                0x00000000000005f0       0x48 /home/lodge/STM32MP157/tf-a/tf-a-stm32mp/../build/trusted/bl32/sp_min_setup.o
 .debug_aranges
                0x0000000000000638       0x38 /home/lodge/STM32MP157/tf-a/tf-a-stm32mp/../build/trusted/bl32/stm32mp1_low_power.o
 .debug_aranges
                0x0000000000000670       0x80 /home/lodge/STM32MP157/tf-a/tf-a-stm32mp/../build/trusted/bl32/stm32mp1_pm.o
 .debug_aranges
                0x00000000000006f0       0x38 /home/lodge/STM32MP157/tf-a/tf-a-stm32mp/../build/trusted/bl32/stm32mp1_power_config.o
 .debug_aranges
                0x0000000000000728       0xb8 /home/lodge/STM32MP157/tf-a/tf-a-stm32mp/../build/trusted/bl32/stm32mp1_shared_resources.o
 .debug_aranges
                0x00000000000007e0       0x28 /home/lodge/STM32MP157/tf-a/tf-a-stm32mp/../build/trusted/bl32/stm32mp1_topology.o
 .debug_aranges
                0x0000000000000808      0x118 /home/lodge/STM32MP157/tf-a/tf-a-stm32mp/../build/trusted/bl32/gic_common.o
 .debug_aranges
                0x0000000000000920       0x68 /home/lodge/STM32MP157/tf-a/tf-a-stm32mp/../build/trusted/bl32/gicv2_helpers.o
 .debug_aranges
                0x0000000000000988       0xd8 /home/lodge/STM32MP157/tf-a/tf-a-stm32mp/../build/trusted/bl32/gicv2_main.o
 .debug_aranges
                0x0000000000000a60       0xc8 /home/lodge/STM32MP157/tf-a/tf-a-stm32mp/../build/trusted/bl32/plat_gicv2.o
 .debug_aranges
                0x0000000000000b28       0x40 /home/lodge/STM32MP157/tf-a/tf-a-stm32mp/../build/trusted/bl32/stm32_gic.o
 .debug_aranges
                0x0000000000000b68       0x20 /home/lodge/STM32MP157/tf-a/tf-a-stm32mp/../build/trusted/bl32/plat_psci_common.o
 .debug_aranges
                0x0000000000000b88       0x20 /home/lodge/STM32MP157/tf-a/tf-a-stm32mp/../build/trusted/bl32/bsec_svc.o
 .debug_aranges
                0x0000000000000ba8       0x20 /home/lodge/STM32MP157/tf-a/tf-a-stm32mp/../build/trusted/bl32/low_power_svc.o
 .debug_aranges
                0x0000000000000bc8       0x20 /home/lodge/STM32MP157/tf-a/tf-a-stm32mp/../build/trusted/bl32/pwr_svc.o
 .debug_aranges
                0x0000000000000be8       0x30 /home/lodge/STM32MP157/tf-a/tf-a-stm32mp/../build/trusted/bl32/rcc_svc.o
 .debug_aranges
                0x0000000000000c18       0x28 /home/lodge/STM32MP157/tf-a/tf-a-stm32mp/../build/trusted/bl32/stm32mp1_svc_setup.o
 .debug_aranges
                0x0000000000000c40       0x58 /home/lodge/STM32MP157/tf-a/tf-a-stm32mp/../build/trusted/bl32/base.o
 .debug_aranges
                0x0000000000000c98       0xb0 /home/lodge/STM32MP157/tf-a/tf-a-stm32mp/../build/trusted/bl32/clock.o
 .debug_aranges
                0x0000000000000d48       0x30 /home/lodge/STM32MP157/tf-a/tf-a-stm32mp/../build/trusted/bl32/entry.o
 .debug_aranges
                0x0000000000000d78       0x68 /home/lodge/STM32MP157/tf-a/tf-a-stm32mp/../build/trusted/bl32/reset_domain.o
 .debug_aranges
                0x0000000000000de0       0x38 /home/lodge/STM32MP157/tf-a/tf-a-stm32mp/../build/trusted/bl32/smt.o
 .debug_aranges
                0x0000000000000e18       0xd0 /home/lodge/STM32MP157/tf-a/tf-a-stm32mp/../build/trusted/bl32/stm32mp1_scmi.o
 .debug_aranges
                0x0000000000000ee8       0x28 /home/lodge/STM32MP157/tf-a/tf-a-stm32mp/../build/trusted/bl32/tf_log.o
 .debug_aranges
                0x0000000000000f10       0x58 /home/lodge/STM32MP157/tf-a/tf-a-stm32mp/../build/trusted/bl32/multi_console.o
 .debug_aranges
                0x0000000000000f68       0x20 /home/lodge/STM32MP157/tf-a/tf-a-stm32mp/../build/trusted/bl32/plat_log_common.o
 .debug_aranges
                0x0000000000000f88       0x20 /home/lodge/STM32MP157/tf-a/tf-a-stm32mp/../build/trusted/bl32/plat_common.o
 .debug_aranges
                0x0000000000000fa8       0x20 /home/lodge/STM32MP157/tf-a/tf-a-stm32mp/../build/trusted/bl32/ctzdi2.o
 .debug_aranges
                0x0000000000000fc8       0x20 /home/lodge/STM32MP157/tf-a/tf-a-stm32mp/../build/trusted/bl32/udivmoddi4.o
 .debug_aranges
                0x0000000000000fe8       0xb0 /home/lodge/STM32MP157/tf-a/tf-a-stm32mp/../build/trusted/bl32/stm32mp_common.o
 .debug_aranges
                0x0000000000001098       0xb0 /home/lodge/STM32MP157/tf-a/tf-a-stm32mp/../build/trusted/bl32/stm32mp1_private.o
 .debug_aranges
                0x0000000000001148       0x70 /home/lodge/STM32MP157/tf-a/tf-a-stm32mp/../build/trusted/bl32/xlat_tables_arch.o
 .debug_aranges
                0x00000000000011b8       0x78 /home/lodge/STM32MP157/tf-a/tf-a-stm32mp/../build/trusted/bl32/xlat_tables_context.o
 .debug_aranges
                0x0000000000001230       0x90 /home/lodge/STM32MP157/tf-a/tf-a-stm32mp/../build/trusted/bl32/xlat_tables_core.o
 .debug_aranges
                0x00000000000012c0       0x40 /home/lodge/STM32MP157/tf-a/tf-a-stm32mp/../build/trusted/bl32/xlat_tables_utils.o
 .debug_aranges
                0x0000000000001300       0x60 /home/lodge/STM32MP157/tf-a/tf-a-stm32mp/../build/trusted/bl32/tzc400.o
 .debug_aranges
                0x0000000000001360       0x30 /home/lodge/STM32MP157/tf-a/tf-a-stm32mp/../build/trusted/bl32/delay_timer.o
 .debug_aranges
                0x0000000000001390       0x30 /home/lodge/STM32MP157/tf-a/tf-a-stm32mp/../build/trusted/bl32/generic_delay_timer.o
 .debug_aranges
                0x00000000000013c0      0x120 /home/lodge/STM32MP157/tf-a/tf-a-stm32mp/../build/trusted/bl32/bsec2.o
 .debug_aranges
                0x00000000000014e0       0xa8 /home/lodge/STM32MP157/tf-a/tf-a-stm32mp/../build/trusted/bl32/stm32mp_clkfunc.o
 .debug_aranges
                0x0000000000001588      0x1c0 /home/lodge/STM32MP157/tf-a/tf-a-stm32mp/../build/trusted/bl32/stm32mp1_clk.o
 .debug_aranges
                0x0000000000001748       0x68 /home/lodge/STM32MP157/tf-a/tf-a-stm32mp/../build/trusted/bl32/stm32mp1_ddr_helpers.o
 .debug_aranges
                0x00000000000017b0       0x38 /home/lodge/STM32MP157/tf-a/tf-a-stm32mp/../build/trusted/bl32/stm32_gpio.o
 .debug_aranges
                0x00000000000017e8       0x88 /home/lodge/STM32MP157/tf-a/tf-a-stm32mp/../build/trusted/bl32/stm32_i2c.o
 .debug_aranges
                0x0000000000001870       0x30 /home/lodge/STM32MP157/tf-a/tf-a-stm32mp/../build/trusted/bl32/stm32_iwdg.o
 .debug_aranges
                0x00000000000018a0       0xa8 /home/lodge/STM32MP157/tf-a/tf-a-stm32mp/../build/trusted/bl32/stm32mp_pmic.o
 .debug_aranges
                0x0000000000001948       0xc0 /home/lodge/STM32MP157/tf-a/tf-a-stm32mp/../build/trusted/bl32/stpmic1.o
 .debug_aranges
                0x0000000000001a08       0x28 /home/lodge/STM32MP157/tf-a/tf-a-stm32mp/../build/trusted/bl32/stm32mp1_reset.o
 .debug_aranges
                0x0000000000001a30       0xe8 /home/lodge/STM32MP157/tf-a/tf-a-stm32mp/../build/trusted/bl32/stm32mp_dt.o
 .debug_aranges
                0x0000000000001b18       0x40 /home/lodge/STM32MP157/tf-a/tf-a-stm32mp/../build/trusted/bl32/stm32mp_shres_helpers.o
 .debug_aranges
                0x0000000000001b58       0x80 /home/lodge/STM32MP157/tf-a/tf-a-stm32mp/../build/trusted/bl32/stm32mp1_context.o
 .debug_aranges
                0x0000000000001bd8       0x38 /home/lodge/STM32MP157/tf-a/tf-a-stm32mp/../build/trusted/bl32/stm32mp1_dbgmcu.o
 .debug_aranges
                0x0000000000001c10       0x28 /home/lodge/STM32MP157/tf-a/tf-a-stm32mp/../build/trusted/bl32/stm32mp1_security.o
 .debug_aranges
                0x0000000000001c38       0x30 /home/lodge/STM32MP157/tf-a/tf-a-stm32mp/../build/trusted/bl32/stm32mp1_syscfg.o
 .debug_aranges
                0x0000000000001c68       0x48 /home/lodge/STM32MP157/tf-a/tf-a-stm32mp/../build/trusted/bl32/entrypoint.o
 .debug_aranges
                0x0000000000001cb0       0x28 /home/lodge/STM32MP157/tf-a/tf-a-stm32mp/../build/trusted/bl32/cpu_data.o
 .debug_aranges
                0x0000000000001cd8       0x58 /home/lodge/STM32MP157/tf-a/tf-a-stm32mp/../build/trusted/bl32/cpu_helpers.o
 .debug_aranges
                0x0000000000001d30       0x28 /home/lodge/STM32MP157/tf-a/tf-a-stm32mp/../build/trusted/bl32/spinlock.o
 .debug_aranges
                0x0000000000001d58       0x38 /home/lodge/STM32MP157/tf-a/tf-a-stm32mp/../build/trusted/bl32/psci_helpers.o
 .debug_aranges
                0x0000000000001d90       0x28 /home/lodge/STM32MP157/tf-a/tf-a-stm32mp/../build/trusted/bl32/platform_mp_stack.o
 .debug_aranges
                0x0000000000001db8       0x58 /home/lodge/STM32MP157/tf-a/tf-a-stm32mp/../build/trusted/bl32/debug.o
 .debug_aranges
                0x0000000000001e10       0x60 /home/lodge/STM32MP157/tf-a/tf-a-stm32mp/../build/trusted/bl32/cache_helpers.o
 .debug_aranges
                0x0000000000001e70       0x40 /home/lodge/STM32MP157/tf-a/tf-a-stm32mp/../build/trusted/bl32/misc_helpers.o
 .debug_aranges
                0x0000000000001eb0       0x60 /home/lodge/STM32MP157/tf-a/tf-a-stm32mp/../build/trusted/bl32/platform_helpers.o
 .debug_aranges
                0x0000000000001f10       0x20 /home/lodge/STM32MP157/tf-a/tf-a-stm32mp/../build/trusted/bl32/aeabi_uldivmod.o
 .debug_aranges
                0x0000000000001f30       0x50 /home/lodge/STM32MP157/tf-a/tf-a-stm32mp/../build/trusted/bl32/stm32_console.o
 .debug_aranges
                0x0000000000001f80       0x28 /home/lodge/STM32MP157/tf-a/tf-a-stm32mp/../build/trusted/bl32/enable_mmu.o
 .debug_aranges
                0x0000000000001fa8       0x48 /home/lodge/STM32MP157/tf-a/tf-a-stm32mp/../build/trusted/bl32/cortex_a7.o
 .debug_aranges
                0x0000000000001ff0       0x98 /home/lodge/STM32MP157/tf-a/tf-a-stm32mp/../build/trusted/bl32/stm32mp1_helper.o
 .debug_aranges
                0x0000000000002088       0x70 /home/lodge/STM32MP157/tf-a/tf-a-stm32mp/../build/trusted/lib/libfdt.a(fdt.o)
 .debug_aranges
                0x00000000000020f8       0x28 /home/lodge/STM32MP157/tf-a/tf-a-stm32mp/../build/trusted/lib/libfdt.a(fdt_addresses.o)
 .debug_aranges
                0x0000000000002120      0x140 /home/lodge/STM32MP157/tf-a/tf-a-stm32mp/../build/trusted/lib/libfdt.a(fdt_ro.o)
 .debug_aranges
                0x0000000000002260       0x20 /home/lodge/STM32MP157/tf-a/tf-a-stm32mp/../build/trusted/lib/libc.a(assert.o)
 .debug_aranges
                0x0000000000002280       0x20 /home/lodge/STM32MP157/tf-a/tf-a-stm32mp/../build/trusted/lib/libc.a(memchr.o)
 .debug_aranges
                0x00000000000022a0       0x20 /home/lodge/STM32MP157/tf-a/tf-a-stm32mp/../build/trusted/lib/libc.a(memcmp.o)
 .debug_aranges
                0x00000000000022c0       0x20 /home/lodge/STM32MP157/tf-a/tf-a-stm32mp/../build/trusted/lib/libc.a(memcpy.o)
 .debug_aranges
                0x00000000000022e0       0x20 /home/lodge/STM32MP157/tf-a/tf-a-stm32mp/../build/trusted/lib/libc.a(memmove.o)
 .debug_aranges
                0x0000000000002300       0x20 /home/lodge/STM32MP157/tf-a/tf-a-stm32mp/../build/trusted/lib/libc.a(memset.o)
 .debug_aranges
                0x0000000000002320       0x30 /home/lodge/STM32MP157/tf-a/tf-a-stm32mp/../build/trusted/lib/libc.a(printf.o)
 .debug_aranges
                0x0000000000002350       0x20 /home/lodge/STM32MP157/tf-a/tf-a-stm32mp/../build/trusted/lib/libc.a(putchar.o)
 .debug_aranges
                0x0000000000002370       0x20 /home/lodge/STM32MP157/tf-a/tf-a-stm32mp/../build/trusted/lib/libc.a(strchr.o)
 .debug_aranges
                0x0000000000002390       0x20 /home/lodge/STM32MP157/tf-a/tf-a-stm32mp/../build/trusted/lib/libc.a(strcmp.o)
 .debug_aranges
                0x00000000000023b0       0x20 /home/lodge/STM32MP157/tf-a/tf-a-stm32mp/../build/trusted/lib/libc.a(strlcpy.o)
 .debug_aranges
                0x00000000000023d0       0x20 /home/lodge/STM32MP157/tf-a/tf-a-stm32mp/../build/trusted/lib/libc.a(strlen.o)
 .debug_aranges
                0x00000000000023f0       0x20 /home/lodge/STM32MP157/tf-a/tf-a-stm32mp/../build/trusted/lib/libc.a(strncmp.o)
 .debug_aranges
                0x0000000000002410       0x20 /home/lodge/STM32MP157/tf-a/tf-a-stm32mp/../build/trusted/lib/libc.a(strnlen.o)
 .debug_aranges
                0x0000000000002430       0x20 /home/lodge/STM32MP157/tf-a/tf-a-stm32mp/../build/trusted/lib/libc.a(strrchr.o)

.debug_line     0x0000000000000000    0x23133
 .debug_line    0x0000000000000000       0x28 /home/lodge/STM32MP157/tf-a/tf-a-stm32mp/../build/trusted/bl32/build_message.o
 .debug_line    0x0000000000000028      0x61d /home/lodge/STM32MP157/tf-a/tf-a-stm32mp/../build/trusted/bl32/sp_min_main.o
 .debug_line    0x0000000000000645      0x357 /home/lodge/STM32MP157/tf-a/tf-a-stm32mp/../build/trusted/bl32/runtime_svc.o
 .debug_line    0x000000000000099c       0xea /home/lodge/STM32MP157/tf-a/tf-a-stm32mp/../build/trusted/bl32/plat_sp_min_common.o
 .debug_line    0x0000000000000a86      0x29a /home/lodge/STM32MP157/tf-a/tf-a-stm32mp/../build/trusted/bl32/std_svc_setup.o
 .debug_line    0x0000000000000d20       0xf2 /home/lodge/STM32MP157/tf-a/tf-a-stm32mp/../build/trusted/bl32/cpu_data_array.o
 .debug_line    0x0000000000000e12      0x505 /home/lodge/STM32MP157/tf-a/tf-a-stm32mp/../build/trusted/bl32/context_mgmt.o
 .debug_line    0x0000000000001317      0x1a5 /home/lodge/STM32MP157/tf-a/tf-a-stm32mp/../build/trusted/bl32/errata_report.o
 .debug_line    0x00000000000014bc      0x28c /home/lodge/STM32MP157/tf-a/tf-a-stm32mp/../build/trusted/bl32/psci_off.o
 .debug_line    0x0000000000001748      0x46a /home/lodge/STM32MP157/tf-a/tf-a-stm32mp/../build/trusted/bl32/psci_on.o
 .debug_line    0x0000000000001bb2      0x44f /home/lodge/STM32MP157/tf-a/tf-a-stm32mp/../build/trusted/bl32/psci_suspend.o
 .debug_line    0x0000000000002001      0xed2 /home/lodge/STM32MP157/tf-a/tf-a-stm32mp/../build/trusted/bl32/psci_common.o
 .debug_line    0x0000000000002ed3      0x7ba /home/lodge/STM32MP157/tf-a/tf-a-stm32mp/../build/trusted/bl32/psci_main.o
 .debug_line    0x000000000000368d      0x669 /home/lodge/STM32MP157/tf-a/tf-a-stm32mp/../build/trusted/bl32/psci_setup.o
 .debug_line    0x0000000000003cf6      0x25d /home/lodge/STM32MP157/tf-a/tf-a-stm32mp/../build/trusted/bl32/psci_system_off.o
 .debug_line    0x0000000000003f53      0x1a8 /home/lodge/STM32MP157/tf-a/tf-a-stm32mp/../build/trusted/bl32/psci_mem_protect.o
 .debug_line    0x00000000000040fb      0x67e /home/lodge/STM32MP157/tf-a/tf-a-stm32mp/../build/trusted/bl32/bakery_lock_normal.o
 .debug_line    0x0000000000004779      0xa14 /home/lodge/STM32MP157/tf-a/tf-a-stm32mp/../build/trusted/bl32/stm32mp1_calib.o
 .debug_line    0x000000000000518d      0x6c3 /home/lodge/STM32MP157/tf-a/tf-a-stm32mp/../build/trusted/bl32/etzpc.o
 .debug_line    0x0000000000005850      0x4b0 /home/lodge/STM32MP157/tf-a/tf-a-stm32mp/../build/trusted/bl32/stm32_rng.o
 .debug_line    0x0000000000005d00      0x9cc /home/lodge/STM32MP157/tf-a/tf-a-stm32mp/../build/trusted/bl32/stm32_rtc.o
 .debug_line    0x00000000000066cc      0xa30 /home/lodge/STM32MP157/tf-a/tf-a-stm32mp/../build/trusted/bl32/stm32_tamp.o
 .debug_line    0x00000000000070fc      0x71d /home/lodge/STM32MP157/tf-a/tf-a-stm32mp/../build/trusted/bl32/stm32_timer.o
 .debug_line    0x0000000000007819      0x8ad /home/lodge/STM32MP157/tf-a/tf-a-stm32mp/../build/trusted/bl32/sp_min_setup.o
 .debug_line    0x00000000000080c6      0x860 /home/lodge/STM32MP157/tf-a/tf-a-stm32mp/../build/trusted/bl32/stm32mp1_low_power.o
 .debug_line    0x0000000000008926      0x693 /home/lodge/STM32MP157/tf-a/tf-a-stm32mp/../build/trusted/bl32/stm32mp1_pm.o
 .debug_line    0x0000000000008fb9      0x3f7 /home/lodge/STM32MP157/tf-a/tf-a-stm32mp/../build/trusted/bl32/stm32mp1_power_config.o
 .debug_line    0x00000000000093b0      0xb00 /home/lodge/STM32MP157/tf-a/tf-a-stm32mp/../build/trusted/bl32/stm32mp1_shared_resources.o
 .debug_line    0x0000000000009eb0      0x10a /home/lodge/STM32MP157/tf-a/tf-a-stm32mp/../build/trusted/bl32/stm32mp1_topology.o
 .debug_line    0x0000000000009fba      0x762 /home/lodge/STM32MP157/tf-a/tf-a-stm32mp/../build/trusted/bl32/gic_common.o
 .debug_line    0x000000000000a71c      0x5db /home/lodge/STM32MP157/tf-a/tf-a-stm32mp/../build/trusted/bl32/gicv2_helpers.o
 .debug_line    0x000000000000acf7      0xc12 /home/lodge/STM32MP157/tf-a/tf-a-stm32mp/../build/trusted/bl32/gicv2_main.o
 .debug_line    0x000000000000b909      0x406 /home/lodge/STM32MP157/tf-a/tf-a-stm32mp/../build/trusted/bl32/plat_gicv2.o
 .debug_line    0x000000000000bd0f      0x4c1 /home/lodge/STM32MP157/tf-a/tf-a-stm32mp/../build/trusted/bl32/stm32_gic.o
 .debug_line    0x000000000000c1d0      0x13c /home/lodge/STM32MP157/tf-a/tf-a-stm32mp/../build/trusted/bl32/plat_psci_common.o
 .debug_line    0x000000000000c30c      0x30d /home/lodge/STM32MP157/tf-a/tf-a-stm32mp/../build/trusted/bl32/bsec_svc.o
 .debug_line    0x000000000000c619       0xc9 /home/lodge/STM32MP157/tf-a/tf-a-stm32mp/../build/trusted/bl32/low_power_svc.o
 .debug_line    0x000000000000c6e2      0x224 /home/lodge/STM32MP157/tf-a/tf-a-stm32mp/../build/trusted/bl32/pwr_svc.o
 .debug_line    0x000000000000c906      0x2e9 /home/lodge/STM32MP157/tf-a/tf-a-stm32mp/../build/trusted/bl32/rcc_svc.o
 .debug_line    0x000000000000cbef      0x2ad /home/lodge/STM32MP157/tf-a/tf-a-stm32mp/../build/trusted/bl32/stm32mp1_svc_setup.o
 .debug_line    0x000000000000ce9c      0x3ff /home/lodge/STM32MP157/tf-a/tf-a-stm32mp/../build/trusted/bl32/base.o
 .debug_line    0x000000000000d29b      0x72c /home/lodge/STM32MP157/tf-a/tf-a-stm32mp/../build/trusted/bl32/clock.o
 .debug_line    0x000000000000d9c7      0x1e6 /home/lodge/STM32MP157/tf-a/tf-a-stm32mp/../build/trusted/bl32/entry.o
 .debug_line    0x000000000000dbad      0x450 /home/lodge/STM32MP157/tf-a/tf-a-stm32mp/../build/trusted/bl32/reset_domain.o
 .debug_line    0x000000000000dffd      0x34b /home/lodge/STM32MP157/tf-a/tf-a-stm32mp/../build/trusted/bl32/smt.o
 .debug_line    0x000000000000e348      0xaf6 /home/lodge/STM32MP157/tf-a/tf-a-stm32mp/../build/trusted/bl32/stm32mp1_scmi.o
 .debug_line    0x000000000000ee3e      0x1c4 /home/lodge/STM32MP157/tf-a/tf-a-stm32mp/../build/trusted/bl32/tf_log.o
 .debug_line    0x000000000000f002      0x419 /home/lodge/STM32MP157/tf-a/tf-a-stm32mp/../build/trusted/bl32/multi_console.o
 .debug_line    0x000000000000f41b       0xd2 /home/lodge/STM32MP157/tf-a/tf-a-stm32mp/../build/trusted/bl32/plat_log_common.o
 .debug_line    0x000000000000f4ed       0xf4 /home/lodge/STM32MP157/tf-a/tf-a-stm32mp/../build/trusted/bl32/plat_common.o
 .debug_line    0x000000000000f5e1       0x88 /home/lodge/STM32MP157/tf-a/tf-a-stm32mp/../build/trusted/bl32/ctzdi2.o
 .debug_line    0x000000000000f669      0x38a /home/lodge/STM32MP157/tf-a/tf-a-stm32mp/../build/trusted/bl32/udivmoddi4.o
 .debug_line    0x000000000000f9f3      0x51d /home/lodge/STM32MP157/tf-a/tf-a-stm32mp/../build/trusted/bl32/stm32mp_common.o
 .debug_line    0x000000000000ff10      0x9d0 /home/lodge/STM32MP157/tf-a/tf-a-stm32mp/../build/trusted/bl32/stm32mp1_private.o
 .debug_line    0x00000000000108e0      0x52d /home/lodge/STM32MP157/tf-a/tf-a-stm32mp/../build/trusted/bl32/xlat_tables_arch.o
 .debug_line    0x0000000000010e0d      0x39d /home/lodge/STM32MP157/tf-a/tf-a-stm32mp/../build/trusted/bl32/xlat_tables_context.o
 .debug_line    0x00000000000111aa     0x100e /home/lodge/STM32MP157/tf-a/tf-a-stm32mp/../build/trusted/bl32/xlat_tables_core.o
 .debug_line    0x00000000000121b8      0x694 /home/lodge/STM32MP157/tf-a/tf-a-stm32mp/../build/trusted/bl32/xlat_tables_utils.o
 .debug_line    0x000000000001284c      0x96e /home/lodge/STM32MP157/tf-a/tf-a-stm32mp/../build/trusted/bl32/tzc400.o
 .debug_line    0x00000000000131ba      0x1d9 /home/lodge/STM32MP157/tf-a/tf-a-stm32mp/../build/trusted/bl32/delay_timer.o
 .debug_line    0x0000000000013393      0x22f /home/lodge/STM32MP157/tf-a/tf-a-stm32mp/../build/trusted/bl32/generic_delay_timer.o
 .debug_line    0x00000000000135c2     0x11eb /home/lodge/STM32MP157/tf-a/tf-a-stm32mp/../build/trusted/bl32/bsec2.o
 .debug_line    0x00000000000147ad      0x94e /home/lodge/STM32MP157/tf-a/tf-a-stm32mp/../build/trusted/bl32/stm32mp_clkfunc.o
 .debug_line    0x00000000000150fb     0x3aa4 /home/lodge/STM32MP157/tf-a/tf-a-stm32mp/../build/trusted/bl32/stm32mp1_clk.o
 .debug_line    0x0000000000018b9f     0x1b1a /home/lodge/STM32MP157/tf-a/tf-a-stm32mp/../build/trusted/bl32/stm32mp1_ddr_helpers.o
 .debug_line    0x000000000001a6b9      0x8db /home/lodge/STM32MP157/tf-a/tf-a-stm32mp/../build/trusted/bl32/stm32_gpio.o
 .debug_line    0x000000000001af94     0x191a /home/lodge/STM32MP157/tf-a/tf-a-stm32mp/../build/trusted/bl32/stm32_i2c.o
 .debug_line    0x000000000001c8ae      0x627 /home/lodge/STM32MP157/tf-a/tf-a-stm32mp/../build/trusted/bl32/stm32_iwdg.o
 .debug_line    0x000000000001ced5      0xb99 /home/lodge/STM32MP157/tf-a/tf-a-stm32mp/../build/trusted/bl32/stm32mp_pmic.o
 .debug_line    0x000000000001da6e      0x619 /home/lodge/STM32MP157/tf-a/tf-a-stm32mp/../build/trusted/bl32/stpmic1.o
 .debug_line    0x000000000001e087      0x374 /home/lodge/STM32MP157/tf-a/tf-a-stm32mp/../build/trusted/bl32/stm32mp1_reset.o
 .debug_line    0x000000000001e3fb      0xc89 /home/lodge/STM32MP157/tf-a/tf-a-stm32mp/../build/trusted/bl32/stm32mp_dt.o
 .debug_line    0x000000000001f084      0x269 /home/lodge/STM32MP157/tf-a/tf-a-stm32mp/../build/trusted/bl32/stm32mp_shres_helpers.o
 .debug_line    0x000000000001f2ed      0x688 /home/lodge/STM32MP157/tf-a/tf-a-stm32mp/../build/trusted/bl32/stm32mp1_context.o
 .debug_line    0x000000000001f975      0x281 /home/lodge/STM32MP157/tf-a/tf-a-stm32mp/../build/trusted/bl32/stm32mp1_dbgmcu.o
 .debug_line    0x000000000001fbf6      0x1ac /home/lodge/STM32MP157/tf-a/tf-a-stm32mp/../build/trusted/bl32/stm32mp1_security.o
 .debug_line    0x000000000001fda2      0x4c9 /home/lodge/STM32MP157/tf-a/tf-a-stm32mp/../build/trusted/bl32/stm32mp1_syscfg.o
 .debug_line    0x000000000002026b       0xff /home/lodge/STM32MP157/tf-a/tf-a-stm32mp/../build/trusted/bl32/entrypoint.o
 .debug_line    0x000000000002036a       0x69 /home/lodge/STM32MP157/tf-a/tf-a-stm32mp/../build/trusted/bl32/cpu_data.o
 .debug_line    0x00000000000203d3      0x10e /home/lodge/STM32MP157/tf-a/tf-a-stm32mp/../build/trusted/bl32/cpu_helpers.o
 .debug_line    0x00000000000204e1       0x70 /home/lodge/STM32MP157/tf-a/tf-a-stm32mp/../build/trusted/bl32/spinlock.o
 .debug_line    0x0000000000020551       0xa0 /home/lodge/STM32MP157/tf-a/tf-a-stm32mp/../build/trusted/bl32/psci_helpers.o
 .debug_line    0x00000000000205f1       0x6d /home/lodge/STM32MP157/tf-a/tf-a-stm32mp/../build/trusted/bl32/platform_mp_stack.o
 .debug_line    0x000000000002065e      0x104 /home/lodge/STM32MP157/tf-a/tf-a-stm32mp/../build/trusted/bl32/debug.o
 .debug_line    0x0000000000020762       0xef /home/lodge/STM32MP157/tf-a/tf-a-stm32mp/../build/trusted/bl32/cache_helpers.o
 .debug_line    0x0000000000020851       0xbe /home/lodge/STM32MP157/tf-a/tf-a-stm32mp/../build/trusted/bl32/misc_helpers.o
 .debug_line    0x000000000002090f       0xd3 /home/lodge/STM32MP157/tf-a/tf-a-stm32mp/../build/trusted/bl32/platform_helpers.o
 .debug_line    0x00000000000209e2       0x67 /home/lodge/STM32MP157/tf-a/tf-a-stm32mp/../build/trusted/bl32/aeabi_uldivmod.o
 .debug_line    0x0000000000020a49       0xf0 /home/lodge/STM32MP157/tf-a/tf-a-stm32mp/../build/trusted/bl32/stm32_console.o
 .debug_line    0x0000000000020b39       0xa4 /home/lodge/STM32MP157/tf-a/tf-a-stm32mp/../build/trusted/bl32/enable_mmu.o
 .debug_line    0x0000000000020bdd       0xb2 /home/lodge/STM32MP157/tf-a/tf-a-stm32mp/../build/trusted/bl32/cortex_a7.o
 .debug_line    0x0000000000020c8f      0x1ec /home/lodge/STM32MP157/tf-a/tf-a-stm32mp/../build/trusted/bl32/stm32mp1_helper.o
 .debug_line    0x0000000000020e7b      0x512 /home/lodge/STM32MP157/tf-a/tf-a-stm32mp/../build/trusted/lib/libfdt.a(fdt.o)
 .debug_line    0x000000000002138d      0x15e /home/lodge/STM32MP157/tf-a/tf-a-stm32mp/../build/trusted/lib/libfdt.a(fdt_addresses.o)
 .debug_line    0x00000000000214eb      0xfb3 /home/lodge/STM32MP157/tf-a/tf-a-stm32mp/../build/trusted/lib/libfdt.a(fdt_ro.o)
 .debug_line    0x000000000002249e      0x12e /home/lodge/STM32MP157/tf-a/tf-a-stm32mp/../build/trusted/lib/libc.a(assert.o)
 .debug_line    0x00000000000225cc       0x8b /home/lodge/STM32MP157/tf-a/tf-a-stm32mp/../build/trusted/lib/libc.a(memchr.o)
 .debug_line    0x0000000000022657       0xa5 /home/lodge/STM32MP157/tf-a/tf-a-stm32mp/../build/trusted/lib/libc.a(memcmp.o)
 .debug_line    0x00000000000226fc       0x8c /home/lodge/STM32MP157/tf-a/tf-a-stm32mp/../build/trusted/lib/libc.a(memcpy.o)
 .debug_line    0x0000000000022788       0xe2 /home/lodge/STM32MP157/tf-a/tf-a-stm32mp/../build/trusted/lib/libc.a(memmove.o)
 .debug_line    0x000000000002286a       0x83 /home/lodge/STM32MP157/tf-a/tf-a-stm32mp/../build/trusted/lib/libc.a(memset.o)
 .debug_line    0x00000000000228ed      0x3e6 /home/lodge/STM32MP157/tf-a/tf-a-stm32mp/../build/trusted/lib/libc.a(printf.o)
 .debug_line    0x0000000000022cd3       0x78 /home/lodge/STM32MP157/tf-a/tf-a-stm32mp/../build/trusted/lib/libc.a(putchar.o)
 .debug_line    0x0000000000022d4b       0x78 /home/lodge/STM32MP157/tf-a/tf-a-stm32mp/../build/trusted/lib/libc.a(strchr.o)
 .debug_line    0x0000000000022dc3       0x66 /home/lodge/STM32MP157/tf-a/tf-a-stm32mp/../build/trusted/lib/libc.a(strcmp.o)
 .debug_line    0x0000000000022e29       0xcc /home/lodge/STM32MP157/tf-a/tf-a-stm32mp/../build/trusted/lib/libc.a(strlcpy.o)
 .debug_line    0x0000000000022ef5       0x7b /home/lodge/STM32MP157/tf-a/tf-a-stm32mp/../build/trusted/lib/libc.a(strlen.o)
 .debug_line    0x0000000000022f70       0xab /home/lodge/STM32MP157/tf-a/tf-a-stm32mp/../build/trusted/lib/libc.a(strncmp.o)
 .debug_line    0x000000000002301b       0xa5 /home/lodge/STM32MP157/tf-a/tf-a-stm32mp/../build/trusted/lib/libc.a(strnlen.o)
 .debug_line    0x00000000000230c0       0x73 /home/lodge/STM32MP157/tf-a/tf-a-stm32mp/../build/trusted/lib/libc.a(strrchr.o)

.debug_str      0x0000000000000000     0xa5f2
 .debug_str     0x0000000000000000      0x11b /home/lodge/STM32MP157/tf-a/tf-a-stm32mp/../build/trusted/bl32/build_message.o
                                        0x12d (size before relaxing)
 .debug_str     0x000000000000011b      0x51a /home/lodge/STM32MP157/tf-a/tf-a-stm32mp/../build/trusted/bl32/sp_min_main.o
                                        0x6b0 (size before relaxing)
 .debug_str     0x0000000000000635      0x11e /home/lodge/STM32MP157/tf-a/tf-a-stm32mp/../build/trusted/bl32/runtime_svc.o
                                        0x455 (size before relaxing)
 .debug_str     0x0000000000000753       0x3e /home/lodge/STM32MP157/tf-a/tf-a-stm32mp/../build/trusted/bl32/plat_sp_min_common.o
                                        0x220 (size before relaxing)
 .debug_str     0x0000000000000791       0xf7 /home/lodge/STM32MP157/tf-a/tf-a-stm32mp/../build/trusted/bl32/std_svc_setup.o
                                        0x4cd (size before relaxing)
 .debug_str     0x0000000000000888       0xbf /home/lodge/STM32MP157/tf-a/tf-a-stm32mp/../build/trusted/bl32/cpu_data_array.o
                                        0x2cc (size before relaxing)
 .debug_str     0x0000000000000947      0x167 /home/lodge/STM32MP157/tf-a/tf-a-stm32mp/../build/trusted/bl32/context_mgmt.o
                                        0x4a5 (size before relaxing)
 .debug_str     0x0000000000000aae       0x8f /home/lodge/STM32MP157/tf-a/tf-a-stm32mp/../build/trusted/bl32/errata_report.o
                                        0x28b (size before relaxing)
 .debug_str     0x0000000000000b3d      0x2fb /home/lodge/STM32MP157/tf-a/tf-a-stm32mp/../build/trusted/bl32/psci_off.o
                                        0x6f8 (size before relaxing)
 .debug_str     0x0000000000000e38      0x1cd /home/lodge/STM32MP157/tf-a/tf-a-stm32mp/../build/trusted/bl32/psci_on.o
                                        0x8a4 (size before relaxing)
 .debug_str     0x0000000000001005      0x206 /home/lodge/STM32MP157/tf-a/tf-a-stm32mp/../build/trusted/bl32/psci_suspend.o
                                        0x9aa (size before relaxing)
 .debug_str     0x000000000000120b      0x540 /home/lodge/STM32MP157/tf-a/tf-a-stm32mp/../build/trusted/bl32/psci_common.o
                                        0xec9 (size before relaxing)
 .debug_str     0x000000000000174b      0x1ac /home/lodge/STM32MP157/tf-a/tf-a-stm32mp/../build/trusted/bl32/psci_main.o
                                        0xa65 (size before relaxing)
 .debug_str     0x00000000000018f7      0x183 /home/lodge/STM32MP157/tf-a/tf-a-stm32mp/../build/trusted/bl32/psci_setup.o
                                        0x992 (size before relaxing)
 .debug_str     0x0000000000001a7a       0x30 /home/lodge/STM32MP157/tf-a/tf-a-stm32mp/../build/trusted/bl32/psci_system_off.o
                                        0x547 (size before relaxing)
 .debug_str     0x0000000000001aaa       0x1c /home/lodge/STM32MP157/tf-a/tf-a-stm32mp/../build/trusted/bl32/psci_mem_protect.o
                                        0x456 (size before relaxing)
 .debug_str     0x0000000000001ac6      0x1a7 /home/lodge/STM32MP157/tf-a/tf-a-stm32mp/../build/trusted/bl32/bakery_lock_normal.o
                                        0x423 (size before relaxing)
 .debug_str     0x0000000000001c6d      0x3fa /home/lodge/STM32MP157/tf-a/tf-a-stm32mp/../build/trusted/bl32/stm32mp1_calib.o
                                        0x65c (size before relaxing)
 .debug_str     0x0000000000002067      0x2d0 /home/lodge/STM32MP157/tf-a/tf-a-stm32mp/../build/trusted/bl32/etzpc.o
                                        0x57a (size before relaxing)
 .debug_str     0x0000000000002337      0x130 /home/lodge/STM32MP157/tf-a/tf-a-stm32mp/../build/trusted/bl32/stm32_rng.o
                                        0x3c9 (size before relaxing)
 .debug_str     0x0000000000002467      0x31c /home/lodge/STM32MP157/tf-a/tf-a-stm32mp/../build/trusted/bl32/stm32_rtc.o
                                        0x64d (size before relaxing)
 .debug_str     0x0000000000002783      0x1f0 /home/lodge/STM32MP157/tf-a/tf-a-stm32mp/../build/trusted/bl32/stm32_tamp.o
                                        0x5bc (size before relaxing)
 .debug_str     0x0000000000002973      0x120 /home/lodge/STM32MP157/tf-a/tf-a-stm32mp/../build/trusted/bl32/stm32_timer.o
                                        0x487 (size before relaxing)
 .debug_str     0x0000000000002a93      0x60f /home/lodge/STM32MP157/tf-a/tf-a-stm32mp/../build/trusted/bl32/sp_min_setup.o
                                        0xb80 (size before relaxing)
 .debug_str     0x00000000000030a2      0x3c0 /home/lodge/STM32MP157/tf-a/tf-a-stm32mp/../build/trusted/bl32/stm32mp1_low_power.o
                                        0x768 (size before relaxing)
 .debug_str     0x0000000000003462      0x25e /home/lodge/STM32MP157/tf-a/tf-a-stm32mp/../build/trusted/bl32/stm32mp1_pm.o
                                        0x83c (size before relaxing)
 .debug_str     0x00000000000036c0      0x1c6 /home/lodge/STM32MP157/tf-a/tf-a-stm32mp/../build/trusted/bl32/stm32mp1_power_config.o
                                        0x477 (size before relaxing)
 .debug_str     0x0000000000003886      0x57e /home/lodge/STM32MP157/tf-a/tf-a-stm32mp/../build/trusted/bl32/stm32mp1_shared_resources.o
                                        0x907 (size before relaxing)
 .debug_str     0x0000000000003e04       0x62 /home/lodge/STM32MP157/tf-a/tf-a-stm32mp/../build/trusted/bl32/stm32mp1_topology.o
                                        0x274 (size before relaxing)
 .debug_str     0x0000000000003e66      0x2a2 /home/lodge/STM32MP157/tf-a/tf-a-stm32mp/../build/trusted/bl32/gic_common.o
                                        0x4a6 (size before relaxing)
 .debug_str     0x0000000000004108      0x1c2 /home/lodge/STM32MP157/tf-a/tf-a-stm32mp/../build/trusted/bl32/gicv2_helpers.o
                                        0x49d (size before relaxing)
 .debug_str     0x00000000000042ca      0x396 /home/lodge/STM32MP157/tf-a/tf-a-stm32mp/../build/trusted/bl32/gicv2_main.o
                                        0x811 (size before relaxing)
 .debug_str     0x0000000000004660      0x1c6 /home/lodge/STM32MP157/tf-a/tf-a-stm32mp/../build/trusted/bl32/plat_gicv2.o
                                        0x65d (size before relaxing)
 .debug_str     0x0000000000004826      0x122 /home/lodge/STM32MP157/tf-a/tf-a-stm32mp/../build/trusted/bl32/stm32_gic.o
                                        0x58f (size before relaxing)
 .debug_str     0x0000000000004948       0x29 /home/lodge/STM32MP157/tf-a/tf-a-stm32mp/../build/trusted/bl32/plat_psci_common.o
                                        0x23d (size before relaxing)
 .debug_str     0x0000000000004971      0x4a8 /home/lodge/STM32MP157/tf-a/tf-a-stm32mp/../build/trusted/bl32/bsec_svc.o
                                        0x791 (size before relaxing)
 .debug_str     0x0000000000004e19       0x40 /home/lodge/STM32MP157/tf-a/tf-a-stm32mp/../build/trusted/bl32/low_power_svc.o
                                        0x250 (size before relaxing)
 .debug_str     0x0000000000004e59       0x9e /home/lodge/STM32MP157/tf-a/tf-a-stm32mp/../build/trusted/bl32/pwr_svc.o
                                        0x2fb (size before relaxing)
 .debug_str     0x0000000000004ef7      0x101 /home/lodge/STM32MP157/tf-a/tf-a-stm32mp/../build/trusted/bl32/rcc_svc.o
                                        0x3ab (size before relaxing)
 .debug_str     0x0000000000004ff8       0xc4 /home/lodge/STM32MP157/tf-a/tf-a-stm32mp/../build/trusted/bl32/stm32mp1_svc_setup.o
                                        0x4e1 (size before relaxing)
 .debug_str     0x00000000000050bc      0x4b9 /home/lodge/STM32MP157/tf-a/tf-a-stm32mp/../build/trusted/bl32/base.o
                                        0x737 (size before relaxing)
 .debug_str     0x0000000000005575      0x3b0 /home/lodge/STM32MP157/tf-a/tf-a-stm32mp/../build/trusted/bl32/clock.o
                                        0x81c (size before relaxing)
 .debug_str     0x0000000000005925       0x49 /home/lodge/STM32MP157/tf-a/tf-a-stm32mp/../build/trusted/bl32/entry.o
                                        0x311 (size before relaxing)
 .debug_str     0x000000000000596e      0x1dd /home/lodge/STM32MP157/tf-a/tf-a-stm32mp/../build/trusted/bl32/reset_domain.o
                                        0x634 (size before relaxing)
 .debug_str     0x0000000000005b4b      0x173 /home/lodge/STM32MP157/tf-a/tf-a-stm32mp/../build/trusted/bl32/smt.o
                                        0x476 (size before relaxing)
 .debug_str     0x0000000000005cbe      0x156 /home/lodge/STM32MP157/tf-a/tf-a-stm32mp/../build/trusted/bl32/stm32mp1_scmi.o
                                        0x701 (size before relaxing)
 .debug_str     0x0000000000005e14       0x66 /home/lodge/STM32MP157/tf-a/tf-a-stm32mp/../build/trusted/bl32/tf_log.o
                                        0x258 (size before relaxing)
 .debug_str     0x0000000000005e7a       0xef /home/lodge/STM32MP157/tf-a/tf-a-stm32mp/../build/trusted/bl32/multi_console.o
                                        0x33d (size before relaxing)
 .debug_str     0x0000000000005f69       0x2e /home/lodge/STM32MP157/tf-a/tf-a-stm32mp/../build/trusted/bl32/plat_log_common.o
                                        0x21a (size before relaxing)
 .debug_str     0x0000000000005f97       0x4a /home/lodge/STM32MP157/tf-a/tf-a-stm32mp/../build/trusted/bl32/plat_common.o
                                        0x221 (size before relaxing)
 .debug_str     0x0000000000005fe1       0x71 /home/lodge/STM32MP157/tf-a/tf-a-stm32mp/../build/trusted/bl32/ctzdi2.o
                                        0x218 (size before relaxing)
 .debug_str     0x0000000000006052       0x63 /home/lodge/STM32MP157/tf-a/tf-a-stm32mp/../build/trusted/bl32/udivmoddi4.o
                                        0x242 (size before relaxing)
 .debug_str     0x00000000000060b5      0x247 /home/lodge/STM32MP157/tf-a/tf-a-stm32mp/../build/trusted/bl32/stm32mp_common.o
                                        0x5af (size before relaxing)
 .debug_str     0x00000000000062fc      0x32d /home/lodge/STM32MP157/tf-a/tf-a-stm32mp/../build/trusted/bl32/stm32mp1_private.o
                                        0x85f (size before relaxing)
 .debug_str     0x0000000000006629      0x275 /home/lodge/STM32MP157/tf-a/tf-a-stm32mp/../build/trusted/bl32/xlat_tables_arch.o
                                        0x4f6 (size before relaxing)
 .debug_str     0x000000000000689e      0x250 /home/lodge/STM32MP157/tf-a/tf-a-stm32mp/../build/trusted/bl32/xlat_tables_context.o
                                        0x5b3 (size before relaxing)
 .debug_str     0x0000000000006aee      0x3b0 /home/lodge/STM32MP157/tf-a/tf-a-stm32mp/../build/trusted/bl32/xlat_tables_core.o
                                        0x8b7 (size before relaxing)
 .debug_str     0x0000000000006e9e      0x10e /home/lodge/STM32MP157/tf-a/tf-a-stm32mp/../build/trusted/bl32/xlat_tables_utils.o
                                        0x535 (size before relaxing)
 .debug_str     0x0000000000006fac      0x2e6 /home/lodge/STM32MP157/tf-a/tf-a-stm32mp/../build/trusted/bl32/tzc400.o
                                        0x5cf (size before relaxing)
 .debug_str     0x0000000000007292       0x76 /home/lodge/STM32MP157/tf-a/tf-a-stm32mp/../build/trusted/bl32/delay_timer.o
                                        0x27b (size before relaxing)
 .debug_str     0x0000000000007308       0x62 /home/lodge/STM32MP157/tf-a/tf-a-stm32mp/../build/trusted/bl32/generic_delay_timer.o
                                        0x2e9 (size before relaxing)
 .debug_str     0x000000000000736a      0x2fa /home/lodge/STM32MP157/tf-a/tf-a-stm32mp/../build/trusted/bl32/bsec2.o
                                        0x747 (size before relaxing)
 .debug_str     0x0000000000007664      0x260 /home/lodge/STM32MP157/tf-a/tf-a-stm32mp/../build/trusted/bl32/stm32mp_clkfunc.o
                                        0x653 (size before relaxing)
 .debug_str     0x00000000000078c4     0x1164 /home/lodge/STM32MP157/tf-a/tf-a-stm32mp/../build/trusted/bl32/stm32mp1_clk.o
                                       0x1b3f (size before relaxing)
 .debug_str     0x0000000000008a28      0x14e /home/lodge/STM32MP157/tf-a/tf-a-stm32mp/../build/trusted/bl32/stm32mp1_ddr_helpers.o
                                        0x5ea (size before relaxing)
 .debug_str     0x0000000000008b76       0xc1 /home/lodge/STM32MP157/tf-a/tf-a-stm32mp/../build/trusted/bl32/stm32_gpio.o
                                        0x4d5 (size before relaxing)
 .debug_str     0x0000000000008c37      0x54c /home/lodge/STM32MP157/tf-a/tf-a-stm32mp/../build/trusted/bl32/stm32_i2c.o
                                        0x91a (size before relaxing)
 .debug_str     0x0000000000009183       0xcc /home/lodge/STM32MP157/tf-a/tf-a-stm32mp/../build/trusted/bl32/stm32_iwdg.o
                                        0x512 (size before relaxing)
 .debug_str     0x000000000000924f      0x3e8 /home/lodge/STM32MP157/tf-a/tf-a-stm32mp/../build/trusted/bl32/stm32mp_pmic.o
                                        0xae7 (size before relaxing)
 .debug_str     0x0000000000009637      0x218 /home/lodge/STM32MP157/tf-a/tf-a-stm32mp/../build/trusted/bl32/stpmic1.o
                                        0x72b (size before relaxing)
 .debug_str     0x000000000000984f       0x4c /home/lodge/STM32MP157/tf-a/tf-a-stm32mp/../build/trusted/bl32/stm32mp1_reset.o
                                        0x338 (size before relaxing)
 .debug_str     0x000000000000989b      0x237 /home/lodge/STM32MP157/tf-a/tf-a-stm32mp/../build/trusted/bl32/stm32mp_dt.o
                                        0x7a9 (size before relaxing)
 .debug_str     0x0000000000009ad2       0x5d /home/lodge/STM32MP157/tf-a/tf-a-stm32mp/../build/trusted/bl32/stm32mp_shres_helpers.o
                                        0x328 (size before relaxing)
 .debug_str     0x0000000000009b2f      0x166 /home/lodge/STM32MP157/tf-a/tf-a-stm32mp/../build/trusted/bl32/stm32mp1_context.o
                                        0x7e5 (size before relaxing)
 .debug_str     0x0000000000009c95       0x6b /home/lodge/STM32MP157/tf-a/tf-a-stm32mp/../build/trusted/bl32/stm32mp1_dbgmcu.o
                                        0x2fa (size before relaxing)
 .debug_str     0x0000000000009d00       0x65 /home/lodge/STM32MP157/tf-a/tf-a-stm32mp/../build/trusted/bl32/stm32mp1_security.o
                                        0x2f7 (size before relaxing)
 .debug_str     0x0000000000009d65       0x50 /home/lodge/STM32MP157/tf-a/tf-a-stm32mp/../build/trusted/bl32/stm32mp1_syscfg.o
                                        0x3ee (size before relaxing)
 .debug_str     0x0000000000009db5       0x2f /home/lodge/STM32MP157/tf-a/tf-a-stm32mp/../build/trusted/bl32/entrypoint.o
                                         0x58 (size before relaxing)
 .debug_str     0x0000000000009de4       0x23 /home/lodge/STM32MP157/tf-a/tf-a-stm32mp/../build/trusted/bl32/cpu_data.o
                                         0x5a (size before relaxing)
 .debug_str     0x0000000000009e07       0x1f /home/lodge/STM32MP157/tf-a/tf-a-stm32mp/../build/trusted/bl32/cpu_helpers.o
                                         0x56 (size before relaxing)
 .debug_str     0x0000000000009e26       0x27 /home/lodge/STM32MP157/tf-a/tf-a-stm32mp/../build/trusted/bl32/spinlock.o
                                         0x5e (size before relaxing)
 .debug_str     0x0000000000009e4d       0x20 /home/lodge/STM32MP157/tf-a/tf-a-stm32mp/../build/trusted/bl32/psci_helpers.o
                                         0x57 (size before relaxing)
 .debug_str     0x0000000000009e6d       0x28 /home/lodge/STM32MP157/tf-a/tf-a-stm32mp/../build/trusted/bl32/platform_mp_stack.o
                                         0x5f (size before relaxing)
 .debug_str     0x0000000000009e95       0x17 /home/lodge/STM32MP157/tf-a/tf-a-stm32mp/../build/trusted/bl32/debug.o
                                         0x4e (size before relaxing)
 .debug_str     0x0000000000009eac       0x1c /home/lodge/STM32MP157/tf-a/tf-a-stm32mp/../build/trusted/bl32/cache_helpers.o
                                         0x53 (size before relaxing)
 .debug_str     0x0000000000009ec8       0x1b /home/lodge/STM32MP157/tf-a/tf-a-stm32mp/../build/trusted/bl32/misc_helpers.o
                                         0x52 (size before relaxing)
 .debug_str     0x0000000000009ee3       0x27 /home/lodge/STM32MP157/tf-a/tf-a-stm32mp/../build/trusted/bl32/platform_helpers.o
                                         0x5e (size before relaxing)
 .debug_str     0x0000000000009f0a       0x2e /home/lodge/STM32MP157/tf-a/tf-a-stm32mp/../build/trusted/bl32/aeabi_uldivmod.o
                                         0x65 (size before relaxing)
 .debug_str     0x0000000000009f38       0x28 /home/lodge/STM32MP157/tf-a/tf-a-stm32mp/../build/trusted/bl32/stm32_console.o
                                         0x5f (size before relaxing)
 .debug_str     0x0000000000009f60       0x28 /home/lodge/STM32MP157/tf-a/tf-a-stm32mp/../build/trusted/bl32/enable_mmu.o
                                         0x5f (size before relaxing)
 .debug_str     0x0000000000009f88       0x1d /home/lodge/STM32MP157/tf-a/tf-a-stm32mp/../build/trusted/bl32/cortex_a7.o
                                         0x54 (size before relaxing)
 .debug_str     0x0000000000009fa5       0x23 /home/lodge/STM32MP157/tf-a/tf-a-stm32mp/../build/trusted/bl32/stm32mp1_helper.o
                                         0x5a (size before relaxing)
 .debug_str     0x0000000000009fc8      0x15e /home/lodge/STM32MP157/tf-a/tf-a-stm32mp/../build/trusted/lib/libfdt.a(fdt.o)
                                        0x373 (size before relaxing)
 .debug_str     0x000000000000a126       0x1b /home/lodge/STM32MP157/tf-a/tf-a-stm32mp/../build/trusted/lib/libfdt.a(fdt_addresses.o)
                                        0x200 (size before relaxing)
 .debug_str     0x000000000000a141      0x32b /home/lodge/STM32MP157/tf-a/tf-a-stm32mp/../build/trusted/lib/libfdt.a(fdt_ro.o)
                                        0x794 (size before relaxing)
 .debug_str     0x000000000000a46c       0x2a /home/lodge/STM32MP157/tf-a/tf-a-stm32mp/../build/trusted/lib/libc.a(assert.o)
                                        0x20c (size before relaxing)
 .debug_str     0x000000000000a496       0x12 /home/lodge/STM32MP157/tf-a/tf-a-stm32mp/../build/trusted/lib/libc.a(memchr.o)
                                        0x142 (size before relaxing)
 .debug_str     0x000000000000a4a8       0x12 /home/lodge/STM32MP157/tf-a/tf-a-stm32mp/../build/trusted/lib/libc.a(memcmp.o)
                                        0x142 (size before relaxing)
 .debug_str     0x000000000000a4ba       0x12 /home/lodge/STM32MP157/tf-a/tf-a-stm32mp/../build/trusted/lib/libc.a(memcpy.o)
                                        0x139 (size before relaxing)
 .debug_str     0x000000000000a4cc       0x13 /home/lodge/STM32MP157/tf-a/tf-a-stm32mp/../build/trusted/lib/libc.a(memmove.o)
                                        0x139 (size before relaxing)
 .debug_str     0x000000000000a4df       0x12 /home/lodge/STM32MP157/tf-a/tf-a-stm32mp/../build/trusted/lib/libc.a(memset.o)
                                        0x13f (size before relaxing)
 .debug_str     0x000000000000a4f1       0x54 /home/lodge/STM32MP157/tf-a/tf-a-stm32mp/../build/trusted/lib/libc.a(printf.o)
                                        0x266 (size before relaxing)
 .debug_str     0x000000000000a545       0x13 /home/lodge/STM32MP157/tf-a/tf-a-stm32mp/../build/trusted/lib/libc.a(putchar.o)
                                        0x1af (size before relaxing)
 .debug_str     0x000000000000a558       0x12 /home/lodge/STM32MP157/tf-a/tf-a-stm32mp/../build/trusted/lib/libc.a(strchr.o)
                                        0x132 (size before relaxing)
 .debug_str     0x000000000000a56a       0x12 /home/lodge/STM32MP157/tf-a/tf-a-stm32mp/../build/trusted/lib/libc.a(strcmp.o)
                                        0x129 (size before relaxing)
 .debug_str     0x000000000000a57c       0x24 /home/lodge/STM32MP157/tf-a/tf-a-stm32mp/../build/trusted/lib/libc.a(strlcpy.o)
                                        0x1ba (size before relaxing)
 .debug_str     0x000000000000a5a0       0x12 /home/lodge/STM32MP157/tf-a/tf-a-stm32mp/../build/trusted/lib/libc.a(strlen.o)
                                        0x137 (size before relaxing)
 .debug_str     0x000000000000a5b2       0x13 /home/lodge/STM32MP157/tf-a/tf-a-stm32mp/../build/trusted/lib/libc.a(strncmp.o)
                                        0x132 (size before relaxing)
 .debug_str     0x000000000000a5c5       0x1a /home/lodge/STM32MP157/tf-a/tf-a-stm32mp/../build/trusted/lib/libc.a(strnlen.o)
                                        0x139 (size before relaxing)
 .debug_str     0x000000000000a5df       0x13 /home/lodge/STM32MP157/tf-a/tf-a-stm32mp/../build/trusted/lib/libc.a(strrchr.o)
                                        0x139 (size before relaxing)

.comment        0x0000000000000000       0x5d
 .comment       0x0000000000000000       0x5d /home/lodge/STM32MP157/tf-a/tf-a-stm32mp/../build/trusted/bl32/build_message.o
                                         0x5e (size before relaxing)
 .comment       0x000000000000005d       0x5e /home/lodge/STM32MP157/tf-a/tf-a-stm32mp/../build/trusted/bl32/sp_min_main.o
 .comment       0x000000000000005d       0x5e /home/lodge/STM32MP157/tf-a/tf-a-stm32mp/../build/trusted/bl32/runtime_svc.o
 .comment       0x000000000000005d       0x5e /home/lodge/STM32MP157/tf-a/tf-a-stm32mp/../build/trusted/bl32/plat_sp_min_common.o
 .comment       0x000000000000005d       0x5e /home/lodge/STM32MP157/tf-a/tf-a-stm32mp/../build/trusted/bl32/std_svc_setup.o
 .comment       0x000000000000005d       0x5e /home/lodge/STM32MP157/tf-a/tf-a-stm32mp/../build/trusted/bl32/cpu_data_array.o
 .comment       0x000000000000005d       0x5e /home/lodge/STM32MP157/tf-a/tf-a-stm32mp/../build/trusted/bl32/context_mgmt.o
 .comment       0x000000000000005d       0x5e /home/lodge/STM32MP157/tf-a/tf-a-stm32mp/../build/trusted/bl32/errata_report.o
 .comment       0x000000000000005d       0x5e /home/lodge/STM32MP157/tf-a/tf-a-stm32mp/../build/trusted/bl32/psci_off.o
 .comment       0x000000000000005d       0x5e /home/lodge/STM32MP157/tf-a/tf-a-stm32mp/../build/trusted/bl32/psci_on.o
 .comment       0x000000000000005d       0x5e /home/lodge/STM32MP157/tf-a/tf-a-stm32mp/../build/trusted/bl32/psci_suspend.o
 .comment       0x000000000000005d       0x5e /home/lodge/STM32MP157/tf-a/tf-a-stm32mp/../build/trusted/bl32/psci_common.o
 .comment       0x000000000000005d       0x5e /home/lodge/STM32MP157/tf-a/tf-a-stm32mp/../build/trusted/bl32/psci_main.o
 .comment       0x000000000000005d       0x5e /home/lodge/STM32MP157/tf-a/tf-a-stm32mp/../build/trusted/bl32/psci_setup.o
 .comment       0x000000000000005d       0x5e /home/lodge/STM32MP157/tf-a/tf-a-stm32mp/../build/trusted/bl32/psci_system_off.o
 .comment       0x000000000000005d       0x5e /home/lodge/STM32MP157/tf-a/tf-a-stm32mp/../build/trusted/bl32/psci_mem_protect.o
 .comment       0x000000000000005d       0x5e /home/lodge/STM32MP157/tf-a/tf-a-stm32mp/../build/trusted/bl32/bakery_lock_normal.o
 .comment       0x000000000000005d       0x5e /home/lodge/STM32MP157/tf-a/tf-a-stm32mp/../build/trusted/bl32/stm32mp1_calib.o
 .comment       0x000000000000005d       0x5e /home/lodge/STM32MP157/tf-a/tf-a-stm32mp/../build/trusted/bl32/etzpc.o
 .comment       0x000000000000005d       0x5e /home/lodge/STM32MP157/tf-a/tf-a-stm32mp/../build/trusted/bl32/stm32_rng.o
 .comment       0x000000000000005d       0x5e /home/lodge/STM32MP157/tf-a/tf-a-stm32mp/../build/trusted/bl32/stm32_rtc.o
 .comment       0x000000000000005d       0x5e /home/lodge/STM32MP157/tf-a/tf-a-stm32mp/../build/trusted/bl32/stm32_tamp.o
 .comment       0x000000000000005d       0x5e /home/lodge/STM32MP157/tf-a/tf-a-stm32mp/../build/trusted/bl32/stm32_timer.o
 .comment       0x000000000000005d       0x5e /home/lodge/STM32MP157/tf-a/tf-a-stm32mp/../build/trusted/bl32/sp_min_setup.o
 .comment       0x000000000000005d       0x5e /home/lodge/STM32MP157/tf-a/tf-a-stm32mp/../build/trusted/bl32/stm32mp1_low_power.o
 .comment       0x000000000000005d       0x5e /home/lodge/STM32MP157/tf-a/tf-a-stm32mp/../build/trusted/bl32/stm32mp1_pm.o
 .comment       0x000000000000005d       0x5e /home/lodge/STM32MP157/tf-a/tf-a-stm32mp/../build/trusted/bl32/stm32mp1_power_config.o
 .comment       0x000000000000005d       0x5e /home/lodge/STM32MP157/tf-a/tf-a-stm32mp/../build/trusted/bl32/stm32mp1_shared_resources.o
 .comment       0x000000000000005d       0x5e /home/lodge/STM32MP157/tf-a/tf-a-stm32mp/../build/trusted/bl32/stm32mp1_topology.o
 .comment       0x000000000000005d       0x5e /home/lodge/STM32MP157/tf-a/tf-a-stm32mp/../build/trusted/bl32/gic_common.o
 .comment       0x000000000000005d       0x5e /home/lodge/STM32MP157/tf-a/tf-a-stm32mp/../build/trusted/bl32/gicv2_helpers.o
 .comment       0x000000000000005d       0x5e /home/lodge/STM32MP157/tf-a/tf-a-stm32mp/../build/trusted/bl32/gicv2_main.o
 .comment       0x000000000000005d       0x5e /home/lodge/STM32MP157/tf-a/tf-a-stm32mp/../build/trusted/bl32/plat_gicv2.o
 .comment       0x000000000000005d       0x5e /home/lodge/STM32MP157/tf-a/tf-a-stm32mp/../build/trusted/bl32/stm32_gic.o
 .comment       0x000000000000005d       0x5e /home/lodge/STM32MP157/tf-a/tf-a-stm32mp/../build/trusted/bl32/plat_psci_common.o
 .comment       0x000000000000005d       0x5e /home/lodge/STM32MP157/tf-a/tf-a-stm32mp/../build/trusted/bl32/bsec_svc.o
 .comment       0x000000000000005d       0x5e /home/lodge/STM32MP157/tf-a/tf-a-stm32mp/../build/trusted/bl32/low_power_svc.o
 .comment       0x000000000000005d       0x5e /home/lodge/STM32MP157/tf-a/tf-a-stm32mp/../build/trusted/bl32/pwr_svc.o
 .comment       0x000000000000005d       0x5e /home/lodge/STM32MP157/tf-a/tf-a-stm32mp/../build/trusted/bl32/rcc_svc.o
 .comment       0x000000000000005d       0x5e /home/lodge/STM32MP157/tf-a/tf-a-stm32mp/../build/trusted/bl32/stm32mp1_svc_setup.o
 .comment       0x000000000000005d       0x5e /home/lodge/STM32MP157/tf-a/tf-a-stm32mp/../build/trusted/bl32/base.o
 .comment       0x000000000000005d       0x5e /home/lodge/STM32MP157/tf-a/tf-a-stm32mp/../build/trusted/bl32/clock.o
 .comment       0x000000000000005d       0x5e /home/lodge/STM32MP157/tf-a/tf-a-stm32mp/../build/trusted/bl32/entry.o
 .comment       0x000000000000005d       0x5e /home/lodge/STM32MP157/tf-a/tf-a-stm32mp/../build/trusted/bl32/reset_domain.o
 .comment       0x000000000000005d       0x5e /home/lodge/STM32MP157/tf-a/tf-a-stm32mp/../build/trusted/bl32/smt.o
 .comment       0x000000000000005d       0x5e /home/lodge/STM32MP157/tf-a/tf-a-stm32mp/../build/trusted/bl32/stm32mp1_scmi.o
 .comment       0x000000000000005d       0x5e /home/lodge/STM32MP157/tf-a/tf-a-stm32mp/../build/trusted/bl32/tf_log.o
 .comment       0x000000000000005d       0x5e /home/lodge/STM32MP157/tf-a/tf-a-stm32mp/../build/trusted/bl32/multi_console.o
 .comment       0x000000000000005d       0x5e /home/lodge/STM32MP157/tf-a/tf-a-stm32mp/../build/trusted/bl32/plat_log_common.o
 .comment       0x000000000000005d       0x5e /home/lodge/STM32MP157/tf-a/tf-a-stm32mp/../build/trusted/bl32/plat_common.o
 .comment       0x000000000000005d       0x5e /home/lodge/STM32MP157/tf-a/tf-a-stm32mp/../build/trusted/bl32/ctzdi2.o
 .comment       0x000000000000005d       0x5e /home/lodge/STM32MP157/tf-a/tf-a-stm32mp/../build/trusted/bl32/udivmoddi4.o
 .comment       0x000000000000005d       0x5e /home/lodge/STM32MP157/tf-a/tf-a-stm32mp/../build/trusted/bl32/stm32mp_common.o
 .comment       0x000000000000005d       0x5e /home/lodge/STM32MP157/tf-a/tf-a-stm32mp/../build/trusted/bl32/stm32mp1_private.o
 .comment       0x000000000000005d       0x5e /home/lodge/STM32MP157/tf-a/tf-a-stm32mp/../build/trusted/bl32/xlat_tables_arch.o
 .comment       0x000000000000005d       0x5e /home/lodge/STM32MP157/tf-a/tf-a-stm32mp/../build/trusted/bl32/xlat_tables_context.o
 .comment       0x000000000000005d       0x5e /home/lodge/STM32MP157/tf-a/tf-a-stm32mp/../build/trusted/bl32/xlat_tables_core.o
 .comment       0x000000000000005d       0x5e /home/lodge/STM32MP157/tf-a/tf-a-stm32mp/../build/trusted/bl32/xlat_tables_utils.o
 .comment       0x000000000000005d       0x5e /home/lodge/STM32MP157/tf-a/tf-a-stm32mp/../build/trusted/bl32/tzc400.o
 .comment       0x000000000000005d       0x5e /home/lodge/STM32MP157/tf-a/tf-a-stm32mp/../build/trusted/bl32/delay_timer.o
 .comment       0x000000000000005d       0x5e /home/lodge/STM32MP157/tf-a/tf-a-stm32mp/../build/trusted/bl32/generic_delay_timer.o
 .comment       0x000000000000005d       0x5e /home/lodge/STM32MP157/tf-a/tf-a-stm32mp/../build/trusted/bl32/bsec2.o
 .comment       0x000000000000005d       0x5e /home/lodge/STM32MP157/tf-a/tf-a-stm32mp/../build/trusted/bl32/stm32mp_clkfunc.o
 .comment       0x000000000000005d       0x5e /home/lodge/STM32MP157/tf-a/tf-a-stm32mp/../build/trusted/bl32/stm32mp1_clk.o
 .comment       0x000000000000005d       0x5e /home/lodge/STM32MP157/tf-a/tf-a-stm32mp/../build/trusted/bl32/stm32mp1_ddr_helpers.o
 .comment       0x000000000000005d       0x5e /home/lodge/STM32MP157/tf-a/tf-a-stm32mp/../build/trusted/bl32/stm32_gpio.o
 .comment       0x000000000000005d       0x5e /home/lodge/STM32MP157/tf-a/tf-a-stm32mp/../build/trusted/bl32/stm32_i2c.o
 .comment       0x000000000000005d       0x5e /home/lodge/STM32MP157/tf-a/tf-a-stm32mp/../build/trusted/bl32/stm32_iwdg.o
 .comment       0x000000000000005d       0x5e /home/lodge/STM32MP157/tf-a/tf-a-stm32mp/../build/trusted/bl32/stm32mp_pmic.o
 .comment       0x000000000000005d       0x5e /home/lodge/STM32MP157/tf-a/tf-a-stm32mp/../build/trusted/bl32/stpmic1.o
 .comment       0x000000000000005d       0x5e /home/lodge/STM32MP157/tf-a/tf-a-stm32mp/../build/trusted/bl32/stm32mp1_reset.o
 .comment       0x000000000000005d       0x5e /home/lodge/STM32MP157/tf-a/tf-a-stm32mp/../build/trusted/bl32/stm32mp_dt.o
 .comment       0x000000000000005d       0x5e /home/lodge/STM32MP157/tf-a/tf-a-stm32mp/../build/trusted/bl32/stm32mp_shres_helpers.o
 .comment       0x000000000000005d       0x5e /home/lodge/STM32MP157/tf-a/tf-a-stm32mp/../build/trusted/bl32/stm32mp1_context.o
 .comment       0x000000000000005d       0x5e /home/lodge/STM32MP157/tf-a/tf-a-stm32mp/../build/trusted/bl32/stm32mp1_dbgmcu.o
 .comment       0x000000000000005d       0x5e /home/lodge/STM32MP157/tf-a/tf-a-stm32mp/../build/trusted/bl32/stm32mp1_security.o
 .comment       0x000000000000005d       0x5e /home/lodge/STM32MP157/tf-a/tf-a-stm32mp/../build/trusted/bl32/stm32mp1_syscfg.o
 .comment       0x000000000000005d       0x5e /home/lodge/STM32MP157/tf-a/tf-a-stm32mp/../build/trusted/lib/libfdt.a(fdt.o)
 .comment       0x000000000000005d       0x5e /home/lodge/STM32MP157/tf-a/tf-a-stm32mp/../build/trusted/lib/libfdt.a(fdt_addresses.o)
 .comment       0x000000000000005d       0x5e /home/lodge/STM32MP157/tf-a/tf-a-stm32mp/../build/trusted/lib/libfdt.a(fdt_ro.o)
 .comment       0x000000000000005d       0x5e /home/lodge/STM32MP157/tf-a/tf-a-stm32mp/../build/trusted/lib/libc.a(assert.o)
 .comment       0x000000000000005d       0x5e /home/lodge/STM32MP157/tf-a/tf-a-stm32mp/../build/trusted/lib/libc.a(memchr.o)
 .comment       0x000000000000005d       0x5e /home/lodge/STM32MP157/tf-a/tf-a-stm32mp/../build/trusted/lib/libc.a(memcmp.o)
 .comment       0x000000000000005d       0x5e /home/lodge/STM32MP157/tf-a/tf-a-stm32mp/../build/trusted/lib/libc.a(memcpy.o)
 .comment       0x000000000000005d       0x5e /home/lodge/STM32MP157/tf-a/tf-a-stm32mp/../build/trusted/lib/libc.a(memmove.o)
 .comment       0x000000000000005d       0x5e /home/lodge/STM32MP157/tf-a/tf-a-stm32mp/../build/trusted/lib/libc.a(memset.o)
 .comment       0x000000000000005d       0x5e /home/lodge/STM32MP157/tf-a/tf-a-stm32mp/../build/trusted/lib/libc.a(printf.o)
 .comment       0x000000000000005d       0x5e /home/lodge/STM32MP157/tf-a/tf-a-stm32mp/../build/trusted/lib/libc.a(putchar.o)
 .comment       0x000000000000005d       0x5e /home/lodge/STM32MP157/tf-a/tf-a-stm32mp/../build/trusted/lib/libc.a(strchr.o)
 .comment       0x000000000000005d       0x5e /home/lodge/STM32MP157/tf-a/tf-a-stm32mp/../build/trusted/lib/libc.a(strcmp.o)
 .comment       0x000000000000005d       0x5e /home/lodge/STM32MP157/tf-a/tf-a-stm32mp/../build/trusted/lib/libc.a(strlcpy.o)
 .comment       0x000000000000005d       0x5e /home/lodge/STM32MP157/tf-a/tf-a-stm32mp/../build/trusted/lib/libc.a(strlen.o)
 .comment       0x000000000000005d       0x5e /home/lodge/STM32MP157/tf-a/tf-a-stm32mp/../build/trusted/lib/libc.a(strncmp.o)
 .comment       0x000000000000005d       0x5e /home/lodge/STM32MP157/tf-a/tf-a-stm32mp/../build/trusted/lib/libc.a(strnlen.o)
 .comment       0x000000000000005d       0x5e /home/lodge/STM32MP157/tf-a/tf-a-stm32mp/../build/trusted/lib/libc.a(strrchr.o)

.note.GNU-stack
                0x0000000000000000        0x0
 .note.GNU-stack
                0x0000000000000000        0x0 /home/lodge/STM32MP157/tf-a/tf-a-stm32mp/../build/trusted/bl32/build_message.o
 .note.GNU-stack
                0x0000000000000000        0x0 /home/lodge/STM32MP157/tf-a/tf-a-stm32mp/../build/trusted/bl32/sp_min_main.o
 .note.GNU-stack
                0x0000000000000000        0x0 /home/lodge/STM32MP157/tf-a/tf-a-stm32mp/../build/trusted/bl32/runtime_svc.o
 .note.GNU-stack
                0x0000000000000000        0x0 /home/lodge/STM32MP157/tf-a/tf-a-stm32mp/../build/trusted/bl32/plat_sp_min_common.o
 .note.GNU-stack
                0x0000000000000000        0x0 /home/lodge/STM32MP157/tf-a/tf-a-stm32mp/../build/trusted/bl32/std_svc_setup.o
 .note.GNU-stack
                0x0000000000000000        0x0 /home/lodge/STM32MP157/tf-a/tf-a-stm32mp/../build/trusted/bl32/cpu_data_array.o
 .note.GNU-stack
                0x0000000000000000        0x0 /home/lodge/STM32MP157/tf-a/tf-a-stm32mp/../build/trusted/bl32/context_mgmt.o
 .note.GNU-stack
                0x0000000000000000        0x0 /home/lodge/STM32MP157/tf-a/tf-a-stm32mp/../build/trusted/bl32/errata_report.o
 .note.GNU-stack
                0x0000000000000000        0x0 /home/lodge/STM32MP157/tf-a/tf-a-stm32mp/../build/trusted/bl32/psci_off.o
 .note.GNU-stack
                0x0000000000000000        0x0 /home/lodge/STM32MP157/tf-a/tf-a-stm32mp/../build/trusted/bl32/psci_on.o
 .note.GNU-stack
                0x0000000000000000        0x0 /home/lodge/STM32MP157/tf-a/tf-a-stm32mp/../build/trusted/bl32/psci_suspend.o
 .note.GNU-stack
                0x0000000000000000        0x0 /home/lodge/STM32MP157/tf-a/tf-a-stm32mp/../build/trusted/bl32/psci_common.o
 .note.GNU-stack
                0x0000000000000000        0x0 /home/lodge/STM32MP157/tf-a/tf-a-stm32mp/../build/trusted/bl32/psci_main.o
 .note.GNU-stack
                0x0000000000000000        0x0 /home/lodge/STM32MP157/tf-a/tf-a-stm32mp/../build/trusted/bl32/psci_setup.o
 .note.GNU-stack
                0x0000000000000000        0x0 /home/lodge/STM32MP157/tf-a/tf-a-stm32mp/../build/trusted/bl32/psci_system_off.o
 .note.GNU-stack
                0x0000000000000000        0x0 /home/lodge/STM32MP157/tf-a/tf-a-stm32mp/../build/trusted/bl32/psci_mem_protect.o
 .note.GNU-stack
                0x0000000000000000        0x0 /home/lodge/STM32MP157/tf-a/tf-a-stm32mp/../build/trusted/bl32/bakery_lock_normal.o
 .note.GNU-stack
                0x0000000000000000        0x0 /home/lodge/STM32MP157/tf-a/tf-a-stm32mp/../build/trusted/bl32/stm32mp1_calib.o
 .note.GNU-stack
                0x0000000000000000        0x0 /home/lodge/STM32MP157/tf-a/tf-a-stm32mp/../build/trusted/bl32/etzpc.o
 .note.GNU-stack
                0x0000000000000000        0x0 /home/lodge/STM32MP157/tf-a/tf-a-stm32mp/../build/trusted/bl32/stm32_rng.o
 .note.GNU-stack
                0x0000000000000000        0x0 /home/lodge/STM32MP157/tf-a/tf-a-stm32mp/../build/trusted/bl32/stm32_rtc.o
 .note.GNU-stack
                0x0000000000000000        0x0 /home/lodge/STM32MP157/tf-a/tf-a-stm32mp/../build/trusted/bl32/stm32_tamp.o
 .note.GNU-stack
                0x0000000000000000        0x0 /home/lodge/STM32MP157/tf-a/tf-a-stm32mp/../build/trusted/bl32/stm32_timer.o
 .note.GNU-stack
                0x0000000000000000        0x0 /home/lodge/STM32MP157/tf-a/tf-a-stm32mp/../build/trusted/bl32/sp_min_setup.o
 .note.GNU-stack
                0x0000000000000000        0x0 /home/lodge/STM32MP157/tf-a/tf-a-stm32mp/../build/trusted/bl32/stm32mp1_low_power.o
 .note.GNU-stack
                0x0000000000000000        0x0 /home/lodge/STM32MP157/tf-a/tf-a-stm32mp/../build/trusted/bl32/stm32mp1_pm.o
 .note.GNU-stack
                0x0000000000000000        0x0 /home/lodge/STM32MP157/tf-a/tf-a-stm32mp/../build/trusted/bl32/stm32mp1_power_config.o
 .note.GNU-stack
                0x0000000000000000        0x0 /home/lodge/STM32MP157/tf-a/tf-a-stm32mp/../build/trusted/bl32/stm32mp1_shared_resources.o
 .note.GNU-stack
                0x0000000000000000        0x0 /home/lodge/STM32MP157/tf-a/tf-a-stm32mp/../build/trusted/bl32/stm32mp1_topology.o
 .note.GNU-stack
                0x0000000000000000        0x0 /home/lodge/STM32MP157/tf-a/tf-a-stm32mp/../build/trusted/bl32/gic_common.o
 .note.GNU-stack
                0x0000000000000000        0x0 /home/lodge/STM32MP157/tf-a/tf-a-stm32mp/../build/trusted/bl32/gicv2_helpers.o
 .note.GNU-stack
                0x0000000000000000        0x0 /home/lodge/STM32MP157/tf-a/tf-a-stm32mp/../build/trusted/bl32/gicv2_main.o
 .note.GNU-stack
                0x0000000000000000        0x0 /home/lodge/STM32MP157/tf-a/tf-a-stm32mp/../build/trusted/bl32/plat_gicv2.o
 .note.GNU-stack
                0x0000000000000000        0x0 /home/lodge/STM32MP157/tf-a/tf-a-stm32mp/../build/trusted/bl32/stm32_gic.o
 .note.GNU-stack
                0x0000000000000000        0x0 /home/lodge/STM32MP157/tf-a/tf-a-stm32mp/../build/trusted/bl32/plat_psci_common.o
 .note.GNU-stack
                0x0000000000000000        0x0 /home/lodge/STM32MP157/tf-a/tf-a-stm32mp/../build/trusted/bl32/bsec_svc.o
 .note.GNU-stack
                0x0000000000000000        0x0 /home/lodge/STM32MP157/tf-a/tf-a-stm32mp/../build/trusted/bl32/low_power_svc.o
 .note.GNU-stack
                0x0000000000000000        0x0 /home/lodge/STM32MP157/tf-a/tf-a-stm32mp/../build/trusted/bl32/pwr_svc.o
 .note.GNU-stack
                0x0000000000000000        0x0 /home/lodge/STM32MP157/tf-a/tf-a-stm32mp/../build/trusted/bl32/rcc_svc.o
 .note.GNU-stack
                0x0000000000000000        0x0 /home/lodge/STM32MP157/tf-a/tf-a-stm32mp/../build/trusted/bl32/stm32mp1_svc_setup.o
 .note.GNU-stack
                0x0000000000000000        0x0 /home/lodge/STM32MP157/tf-a/tf-a-stm32mp/../build/trusted/bl32/base.o
 .note.GNU-stack
                0x0000000000000000        0x0 /home/lodge/STM32MP157/tf-a/tf-a-stm32mp/../build/trusted/bl32/clock.o
 .note.GNU-stack
                0x0000000000000000        0x0 /home/lodge/STM32MP157/tf-a/tf-a-stm32mp/../build/trusted/bl32/entry.o
 .note.GNU-stack
                0x0000000000000000        0x0 /home/lodge/STM32MP157/tf-a/tf-a-stm32mp/../build/trusted/bl32/reset_domain.o
 .note.GNU-stack
                0x0000000000000000        0x0 /home/lodge/STM32MP157/tf-a/tf-a-stm32mp/../build/trusted/bl32/smt.o
 .note.GNU-stack
                0x0000000000000000        0x0 /home/lodge/STM32MP157/tf-a/tf-a-stm32mp/../build/trusted/bl32/stm32mp1_scmi.o
 .note.GNU-stack
                0x0000000000000000        0x0 /home/lodge/STM32MP157/tf-a/tf-a-stm32mp/../build/trusted/bl32/tf_log.o
 .note.GNU-stack
                0x0000000000000000        0x0 /home/lodge/STM32MP157/tf-a/tf-a-stm32mp/../build/trusted/bl32/multi_console.o
 .note.GNU-stack
                0x0000000000000000        0x0 /home/lodge/STM32MP157/tf-a/tf-a-stm32mp/../build/trusted/bl32/plat_log_common.o
 .note.GNU-stack
                0x0000000000000000        0x0 /home/lodge/STM32MP157/tf-a/tf-a-stm32mp/../build/trusted/bl32/plat_common.o
 .note.GNU-stack
                0x0000000000000000        0x0 /home/lodge/STM32MP157/tf-a/tf-a-stm32mp/../build/trusted/bl32/ctzdi2.o
 .note.GNU-stack
                0x0000000000000000        0x0 /home/lodge/STM32MP157/tf-a/tf-a-stm32mp/../build/trusted/bl32/udivmoddi4.o
 .note.GNU-stack
                0x0000000000000000        0x0 /home/lodge/STM32MP157/tf-a/tf-a-stm32mp/../build/trusted/bl32/stm32mp_common.o
 .note.GNU-stack
                0x0000000000000000        0x0 /home/lodge/STM32MP157/tf-a/tf-a-stm32mp/../build/trusted/bl32/stm32mp1_private.o
 .note.GNU-stack
                0x0000000000000000        0x0 /home/lodge/STM32MP157/tf-a/tf-a-stm32mp/../build/trusted/bl32/xlat_tables_arch.o
 .note.GNU-stack
                0x0000000000000000        0x0 /home/lodge/STM32MP157/tf-a/tf-a-stm32mp/../build/trusted/bl32/xlat_tables_context.o
 .note.GNU-stack
                0x0000000000000000        0x0 /home/lodge/STM32MP157/tf-a/tf-a-stm32mp/../build/trusted/bl32/xlat_tables_core.o
 .note.GNU-stack
                0x0000000000000000        0x0 /home/lodge/STM32MP157/tf-a/tf-a-stm32mp/../build/trusted/bl32/xlat_tables_utils.o
 .note.GNU-stack
                0x0000000000000000        0x0 /home/lodge/STM32MP157/tf-a/tf-a-stm32mp/../build/trusted/bl32/tzc400.o
 .note.GNU-stack
                0x0000000000000000        0x0 /home/lodge/STM32MP157/tf-a/tf-a-stm32mp/../build/trusted/bl32/delay_timer.o
 .note.GNU-stack
                0x0000000000000000        0x0 /home/lodge/STM32MP157/tf-a/tf-a-stm32mp/../build/trusted/bl32/generic_delay_timer.o
 .note.GNU-stack
                0x0000000000000000        0x0 /home/lodge/STM32MP157/tf-a/tf-a-stm32mp/../build/trusted/bl32/bsec2.o
 .note.GNU-stack
                0x0000000000000000        0x0 /home/lodge/STM32MP157/tf-a/tf-a-stm32mp/../build/trusted/bl32/stm32mp_clkfunc.o
 .note.GNU-stack
                0x0000000000000000        0x0 /home/lodge/STM32MP157/tf-a/tf-a-stm32mp/../build/trusted/bl32/stm32mp1_clk.o
 .note.GNU-stack
                0x0000000000000000        0x0 /home/lodge/STM32MP157/tf-a/tf-a-stm32mp/../build/trusted/bl32/stm32mp1_ddr_helpers.o
 .note.GNU-stack
                0x0000000000000000        0x0 /home/lodge/STM32MP157/tf-a/tf-a-stm32mp/../build/trusted/bl32/stm32_gpio.o
 .note.GNU-stack
                0x0000000000000000        0x0 /home/lodge/STM32MP157/tf-a/tf-a-stm32mp/../build/trusted/bl32/stm32_i2c.o
 .note.GNU-stack
                0x0000000000000000        0x0 /home/lodge/STM32MP157/tf-a/tf-a-stm32mp/../build/trusted/bl32/stm32_iwdg.o
 .note.GNU-stack
                0x0000000000000000        0x0 /home/lodge/STM32MP157/tf-a/tf-a-stm32mp/../build/trusted/bl32/stm32mp_pmic.o
 .note.GNU-stack
                0x0000000000000000        0x0 /home/lodge/STM32MP157/tf-a/tf-a-stm32mp/../build/trusted/bl32/stpmic1.o
 .note.GNU-stack
                0x0000000000000000        0x0 /home/lodge/STM32MP157/tf-a/tf-a-stm32mp/../build/trusted/bl32/stm32mp1_reset.o
 .note.GNU-stack
                0x0000000000000000        0x0 /home/lodge/STM32MP157/tf-a/tf-a-stm32mp/../build/trusted/bl32/stm32mp_dt.o
 .note.GNU-stack
                0x0000000000000000        0x0 /home/lodge/STM32MP157/tf-a/tf-a-stm32mp/../build/trusted/bl32/stm32mp_shres_helpers.o
 .note.GNU-stack
                0x0000000000000000        0x0 /home/lodge/STM32MP157/tf-a/tf-a-stm32mp/../build/trusted/bl32/stm32mp1_context.o
 .note.GNU-stack
                0x0000000000000000        0x0 /home/lodge/STM32MP157/tf-a/tf-a-stm32mp/../build/trusted/bl32/stm32mp1_dbgmcu.o
 .note.GNU-stack
                0x0000000000000000        0x0 /home/lodge/STM32MP157/tf-a/tf-a-stm32mp/../build/trusted/bl32/stm32mp1_security.o
 .note.GNU-stack
                0x0000000000000000        0x0 /home/lodge/STM32MP157/tf-a/tf-a-stm32mp/../build/trusted/bl32/stm32mp1_syscfg.o
 .note.GNU-stack
                0x0000000000000000        0x0 /home/lodge/STM32MP157/tf-a/tf-a-stm32mp/../build/trusted/lib/libfdt.a(fdt.o)
 .note.GNU-stack
                0x0000000000000000        0x0 /home/lodge/STM32MP157/tf-a/tf-a-stm32mp/../build/trusted/lib/libfdt.a(fdt_addresses.o)
 .note.GNU-stack
                0x0000000000000000        0x0 /home/lodge/STM32MP157/tf-a/tf-a-stm32mp/../build/trusted/lib/libfdt.a(fdt_ro.o)
 .note.GNU-stack
                0x0000000000000000        0x0 /home/lodge/STM32MP157/tf-a/tf-a-stm32mp/../build/trusted/lib/libc.a(assert.o)
 .note.GNU-stack
                0x0000000000000000        0x0 /home/lodge/STM32MP157/tf-a/tf-a-stm32mp/../build/trusted/lib/libc.a(memchr.o)
 .note.GNU-stack
                0x0000000000000000        0x0 /home/lodge/STM32MP157/tf-a/tf-a-stm32mp/../build/trusted/lib/libc.a(memcmp.o)
 .note.GNU-stack
                0x0000000000000000        0x0 /home/lodge/STM32MP157/tf-a/tf-a-stm32mp/../build/trusted/lib/libc.a(memcpy.o)
 .note.GNU-stack
                0x0000000000000000        0x0 /home/lodge/STM32MP157/tf-a/tf-a-stm32mp/../build/trusted/lib/libc.a(memmove.o)
 .note.GNU-stack
                0x0000000000000000        0x0 /home/lodge/STM32MP157/tf-a/tf-a-stm32mp/../build/trusted/lib/libc.a(memset.o)
 .note.GNU-stack
                0x0000000000000000        0x0 /home/lodge/STM32MP157/tf-a/tf-a-stm32mp/../build/trusted/lib/libc.a(printf.o)
 .note.GNU-stack
                0x0000000000000000        0x0 /home/lodge/STM32MP157/tf-a/tf-a-stm32mp/../build/trusted/lib/libc.a(putchar.o)
 .note.GNU-stack
                0x0000000000000000        0x0 /home/lodge/STM32MP157/tf-a/tf-a-stm32mp/../build/trusted/lib/libc.a(strchr.o)
 .note.GNU-stack
                0x0000000000000000        0x0 /home/lodge/STM32MP157/tf-a/tf-a-stm32mp/../build/trusted/lib/libc.a(strcmp.o)
 .note.GNU-stack
                0x0000000000000000        0x0 /home/lodge/STM32MP157/tf-a/tf-a-stm32mp/../build/trusted/lib/libc.a(strlcpy.o)
 .note.GNU-stack
                0x0000000000000000        0x0 /home/lodge/STM32MP157/tf-a/tf-a-stm32mp/../build/trusted/lib/libc.a(strlen.o)
 .note.GNU-stack
                0x0000000000000000        0x0 /home/lodge/STM32MP157/tf-a/tf-a-stm32mp/../build/trusted/lib/libc.a(strncmp.o)
 .note.GNU-stack
                0x0000000000000000        0x0 /home/lodge/STM32MP157/tf-a/tf-a-stm32mp/../build/trusted/lib/libc.a(strnlen.o)
 .note.GNU-stack
                0x0000000000000000        0x0 /home/lodge/STM32MP157/tf-a/tf-a-stm32mp/../build/trusted/lib/libc.a(strrchr.o)

.ARM.attributes
                0x0000000000000000       0x3b
 .ARM.attributes
                0x0000000000000000       0x3d /home/lodge/STM32MP157/tf-a/tf-a-stm32mp/../build/trusted/bl32/build_message.o
 .ARM.attributes
                0x000000000000003d       0x33 /home/lodge/STM32MP157/tf-a/tf-a-stm32mp/../build/trusted/bl32/sp_min_main.o
 .ARM.attributes
                0x0000000000000070       0x33 /home/lodge/STM32MP157/tf-a/tf-a-stm32mp/../build/trusted/bl32/runtime_svc.o
 .ARM.attributes
                0x00000000000000a3       0x33 /home/lodge/STM32MP157/tf-a/tf-a-stm32mp/../build/trusted/bl32/plat_sp_min_common.o
 .ARM.attributes
                0x00000000000000d6       0x33 /home/lodge/STM32MP157/tf-a/tf-a-stm32mp/../build/trusted/bl32/std_svc_setup.o
 .ARM.attributes
                0x0000000000000109       0x3d /home/lodge/STM32MP157/tf-a/tf-a-stm32mp/../build/trusted/bl32/cpu_data_array.o
 .ARM.attributes
                0x0000000000000146       0x33 /home/lodge/STM32MP157/tf-a/tf-a-stm32mp/../build/trusted/bl32/context_mgmt.o
 .ARM.attributes
                0x0000000000000179       0x33 /home/lodge/STM32MP157/tf-a/tf-a-stm32mp/../build/trusted/bl32/errata_report.o
 .ARM.attributes
                0x00000000000001ac       0x33 /home/lodge/STM32MP157/tf-a/tf-a-stm32mp/../build/trusted/bl32/psci_off.o
 .ARM.attributes
                0x00000000000001df       0x33 /home/lodge/STM32MP157/tf-a/tf-a-stm32mp/../build/trusted/bl32/psci_on.o
 .ARM.attributes
                0x0000000000000212       0x33 /home/lodge/STM32MP157/tf-a/tf-a-stm32mp/../build/trusted/bl32/psci_suspend.o
 .ARM.attributes
                0x0000000000000245       0x33 /home/lodge/STM32MP157/tf-a/tf-a-stm32mp/../build/trusted/bl32/psci_common.o
 .ARM.attributes
                0x0000000000000278       0x33 /home/lodge/STM32MP157/tf-a/tf-a-stm32mp/../build/trusted/bl32/psci_main.o
 .ARM.attributes
                0x00000000000002ab       0x33 /home/lodge/STM32MP157/tf-a/tf-a-stm32mp/../build/trusted/bl32/psci_setup.o
 .ARM.attributes
                0x00000000000002de       0x33 /home/lodge/STM32MP157/tf-a/tf-a-stm32mp/../build/trusted/bl32/psci_system_off.o
 .ARM.attributes
                0x0000000000000311       0x33 /home/lodge/STM32MP157/tf-a/tf-a-stm32mp/../build/trusted/bl32/psci_mem_protect.o
 .ARM.attributes
                0x0000000000000344       0x33 /home/lodge/STM32MP157/tf-a/tf-a-stm32mp/../build/trusted/bl32/bakery_lock_normal.o
 .ARM.attributes
                0x0000000000000377       0x33 /home/lodge/STM32MP157/tf-a/tf-a-stm32mp/../build/trusted/bl32/stm32mp1_calib.o
 .ARM.attributes
                0x00000000000003aa       0x33 /home/lodge/STM32MP157/tf-a/tf-a-stm32mp/../build/trusted/bl32/etzpc.o
 .ARM.attributes
                0x00000000000003dd       0x33 /home/lodge/STM32MP157/tf-a/tf-a-stm32mp/../build/trusted/bl32/stm32_rng.o
 .ARM.attributes
                0x0000000000000410       0x33 /home/lodge/STM32MP157/tf-a/tf-a-stm32mp/../build/trusted/bl32/stm32_rtc.o
 .ARM.attributes
                0x0000000000000443       0x33 /home/lodge/STM32MP157/tf-a/tf-a-stm32mp/../build/trusted/bl32/stm32_tamp.o
 .ARM.attributes
                0x0000000000000476       0x33 /home/lodge/STM32MP157/tf-a/tf-a-stm32mp/../build/trusted/bl32/stm32_timer.o
 .ARM.attributes
                0x00000000000004a9       0x33 /home/lodge/STM32MP157/tf-a/tf-a-stm32mp/../build/trusted/bl32/sp_min_setup.o
 .ARM.attributes
                0x00000000000004dc       0x33 /home/lodge/STM32MP157/tf-a/tf-a-stm32mp/../build/trusted/bl32/stm32mp1_low_power.o
 .ARM.attributes
                0x000000000000050f       0x33 /home/lodge/STM32MP157/tf-a/tf-a-stm32mp/../build/trusted/bl32/stm32mp1_pm.o
 .ARM.attributes
                0x0000000000000542       0x33 /home/lodge/STM32MP157/tf-a/tf-a-stm32mp/../build/trusted/bl32/stm32mp1_power_config.o
 .ARM.attributes
                0x0000000000000575       0x33 /home/lodge/STM32MP157/tf-a/tf-a-stm32mp/../build/trusted/bl32/stm32mp1_shared_resources.o
 .ARM.attributes
                0x00000000000005a8       0x33 /home/lodge/STM32MP157/tf-a/tf-a-stm32mp/../build/trusted/bl32/stm32mp1_topology.o
 .ARM.attributes
                0x00000000000005db       0x33 /home/lodge/STM32MP157/tf-a/tf-a-stm32mp/../build/trusted/bl32/gic_common.o
 .ARM.attributes
                0x000000000000060e       0x33 /home/lodge/STM32MP157/tf-a/tf-a-stm32mp/../build/trusted/bl32/gicv2_helpers.o
 .ARM.attributes
                0x0000000000000641       0x33 /home/lodge/STM32MP157/tf-a/tf-a-stm32mp/../build/trusted/bl32/gicv2_main.o
 .ARM.attributes
                0x0000000000000674       0x33 /home/lodge/STM32MP157/tf-a/tf-a-stm32mp/../build/trusted/bl32/plat_gicv2.o
 .ARM.attributes
                0x00000000000006a7       0x33 /home/lodge/STM32MP157/tf-a/tf-a-stm32mp/../build/trusted/bl32/stm32_gic.o
 .ARM.attributes
                0x00000000000006da       0x33 /home/lodge/STM32MP157/tf-a/tf-a-stm32mp/../build/trusted/bl32/plat_psci_common.o
 .ARM.attributes
                0x000000000000070d       0x33 /home/lodge/STM32MP157/tf-a/tf-a-stm32mp/../build/trusted/bl32/bsec_svc.o
 .ARM.attributes
                0x0000000000000740       0x33 /home/lodge/STM32MP157/tf-a/tf-a-stm32mp/../build/trusted/bl32/low_power_svc.o
 .ARM.attributes
                0x0000000000000773       0x33 /home/lodge/STM32MP157/tf-a/tf-a-stm32mp/../build/trusted/bl32/pwr_svc.o
 .ARM.attributes
                0x00000000000007a6       0x33 /home/lodge/STM32MP157/tf-a/tf-a-stm32mp/../build/trusted/bl32/rcc_svc.o
 .ARM.attributes
                0x00000000000007d9       0x33 /home/lodge/STM32MP157/tf-a/tf-a-stm32mp/../build/trusted/bl32/stm32mp1_svc_setup.o
 .ARM.attributes
                0x000000000000080c       0x33 /home/lodge/STM32MP157/tf-a/tf-a-stm32mp/../build/trusted/bl32/base.o
 .ARM.attributes
                0x000000000000083f       0x33 /home/lodge/STM32MP157/tf-a/tf-a-stm32mp/../build/trusted/bl32/clock.o
 .ARM.attributes
                0x0000000000000872       0x33 /home/lodge/STM32MP157/tf-a/tf-a-stm32mp/../build/trusted/bl32/entry.o
 .ARM.attributes
                0x00000000000008a5       0x33 /home/lodge/STM32MP157/tf-a/tf-a-stm32mp/../build/trusted/bl32/reset_domain.o
 .ARM.attributes
                0x00000000000008d8       0x33 /home/lodge/STM32MP157/tf-a/tf-a-stm32mp/../build/trusted/bl32/smt.o
 .ARM.attributes
                0x000000000000090b       0x33 /home/lodge/STM32MP157/tf-a/tf-a-stm32mp/../build/trusted/bl32/stm32mp1_scmi.o
 .ARM.attributes
                0x000000000000093e       0x33 /home/lodge/STM32MP157/tf-a/tf-a-stm32mp/../build/trusted/bl32/tf_log.o
 .ARM.attributes
                0x0000000000000971       0x33 /home/lodge/STM32MP157/tf-a/tf-a-stm32mp/../build/trusted/bl32/multi_console.o
 .ARM.attributes
                0x00000000000009a4       0x33 /home/lodge/STM32MP157/tf-a/tf-a-stm32mp/../build/trusted/bl32/plat_log_common.o
 .ARM.attributes
                0x00000000000009d7       0x33 /home/lodge/STM32MP157/tf-a/tf-a-stm32mp/../build/trusted/bl32/plat_common.o
 .ARM.attributes
                0x0000000000000a0a       0x33 /home/lodge/STM32MP157/tf-a/tf-a-stm32mp/../build/trusted/bl32/ctzdi2.o
 .ARM.attributes
                0x0000000000000a3d       0x33 /home/lodge/STM32MP157/tf-a/tf-a-stm32mp/../build/trusted/bl32/udivmoddi4.o
 .ARM.attributes
                0x0000000000000a70       0x33 /home/lodge/STM32MP157/tf-a/tf-a-stm32mp/../build/trusted/bl32/stm32mp_common.o
 .ARM.attributes
                0x0000000000000aa3       0x33 /home/lodge/STM32MP157/tf-a/tf-a-stm32mp/../build/trusted/bl32/stm32mp1_private.o
 .ARM.attributes
                0x0000000000000ad6       0x33 /home/lodge/STM32MP157/tf-a/tf-a-stm32mp/../build/trusted/bl32/xlat_tables_arch.o
 .ARM.attributes
                0x0000000000000b09       0x33 /home/lodge/STM32MP157/tf-a/tf-a-stm32mp/../build/trusted/bl32/xlat_tables_context.o
 .ARM.attributes
                0x0000000000000b3c       0x33 /home/lodge/STM32MP157/tf-a/tf-a-stm32mp/../build/trusted/bl32/xlat_tables_core.o
 .ARM.attributes
                0x0000000000000b6f       0x33 /home/lodge/STM32MP157/tf-a/tf-a-stm32mp/../build/trusted/bl32/xlat_tables_utils.o
 .ARM.attributes
                0x0000000000000ba2       0x33 /home/lodge/STM32MP157/tf-a/tf-a-stm32mp/../build/trusted/bl32/tzc400.o
 .ARM.attributes
                0x0000000000000bd5       0x33 /home/lodge/STM32MP157/tf-a/tf-a-stm32mp/../build/trusted/bl32/delay_timer.o
 .ARM.attributes
                0x0000000000000c08       0x33 /home/lodge/STM32MP157/tf-a/tf-a-stm32mp/../build/trusted/bl32/generic_delay_timer.o
 .ARM.attributes
                0x0000000000000c3b       0x33 /home/lodge/STM32MP157/tf-a/tf-a-stm32mp/../build/trusted/bl32/bsec2.o
 .ARM.attributes
                0x0000000000000c6e       0x33 /home/lodge/STM32MP157/tf-a/tf-a-stm32mp/../build/trusted/bl32/stm32mp_clkfunc.o
 .ARM.attributes
                0x0000000000000ca1       0x33 /home/lodge/STM32MP157/tf-a/tf-a-stm32mp/../build/trusted/bl32/stm32mp1_clk.o
 .ARM.attributes
                0x0000000000000cd4       0x33 /home/lodge/STM32MP157/tf-a/tf-a-stm32mp/../build/trusted/bl32/stm32mp1_ddr_helpers.o
 .ARM.attributes
                0x0000000000000d07       0x33 /home/lodge/STM32MP157/tf-a/tf-a-stm32mp/../build/trusted/bl32/stm32_gpio.o
 .ARM.attributes
                0x0000000000000d3a       0x33 /home/lodge/STM32MP157/tf-a/tf-a-stm32mp/../build/trusted/bl32/stm32_i2c.o
 .ARM.attributes
                0x0000000000000d6d       0x33 /home/lodge/STM32MP157/tf-a/tf-a-stm32mp/../build/trusted/bl32/stm32_iwdg.o
 .ARM.attributes
                0x0000000000000da0       0x33 /home/lodge/STM32MP157/tf-a/tf-a-stm32mp/../build/trusted/bl32/stm32mp_pmic.o
 .ARM.attributes
                0x0000000000000dd3       0x33 /home/lodge/STM32MP157/tf-a/tf-a-stm32mp/../build/trusted/bl32/stpmic1.o
 .ARM.attributes
                0x0000000000000e06       0x33 /home/lodge/STM32MP157/tf-a/tf-a-stm32mp/../build/trusted/bl32/stm32mp1_reset.o
 .ARM.attributes
                0x0000000000000e39       0x33 /home/lodge/STM32MP157/tf-a/tf-a-stm32mp/../build/trusted/bl32/stm32mp_dt.o
 .ARM.attributes
                0x0000000000000e6c       0x33 /home/lodge/STM32MP157/tf-a/tf-a-stm32mp/../build/trusted/bl32/stm32mp_shres_helpers.o
 .ARM.attributes
                0x0000000000000e9f       0x33 /home/lodge/STM32MP157/tf-a/tf-a-stm32mp/../build/trusted/bl32/stm32mp1_context.o
 .ARM.attributes
                0x0000000000000ed2       0x33 /home/lodge/STM32MP157/tf-a/tf-a-stm32mp/../build/trusted/bl32/stm32mp1_dbgmcu.o
 .ARM.attributes
                0x0000000000000f05       0x33 /home/lodge/STM32MP157/tf-a/tf-a-stm32mp/../build/trusted/bl32/stm32mp1_security.o
 .ARM.attributes
                0x0000000000000f38       0x33 /home/lodge/STM32MP157/tf-a/tf-a-stm32mp/../build/trusted/bl32/stm32mp1_syscfg.o
 .ARM.attributes
                0x0000000000000f6b       0x27 /home/lodge/STM32MP157/tf-a/tf-a-stm32mp/../build/trusted/bl32/entrypoint.o
 .ARM.attributes
                0x0000000000000f92       0x27 /home/lodge/STM32MP157/tf-a/tf-a-stm32mp/../build/trusted/bl32/cpu_data.o
 .ARM.attributes
                0x0000000000000fb9       0x27 /home/lodge/STM32MP157/tf-a/tf-a-stm32mp/../build/trusted/bl32/cpu_helpers.o
 .ARM.attributes
                0x0000000000000fe0       0x27 /home/lodge/STM32MP157/tf-a/tf-a-stm32mp/../build/trusted/bl32/spinlock.o
 .ARM.attributes
                0x0000000000001007       0x27 /home/lodge/STM32MP157/tf-a/tf-a-stm32mp/../build/trusted/bl32/psci_helpers.o
 .ARM.attributes
                0x000000000000102e       0x27 /home/lodge/STM32MP157/tf-a/tf-a-stm32mp/../build/trusted/bl32/platform_mp_stack.o
 .ARM.attributes
                0x0000000000001055       0x27 /home/lodge/STM32MP157/tf-a/tf-a-stm32mp/../build/trusted/bl32/debug.o
 .ARM.attributes
                0x000000000000107c       0x27 /home/lodge/STM32MP157/tf-a/tf-a-stm32mp/../build/trusted/bl32/cache_helpers.o
 .ARM.attributes
                0x00000000000010a3       0x27 /home/lodge/STM32MP157/tf-a/tf-a-stm32mp/../build/trusted/bl32/misc_helpers.o
 .ARM.attributes
                0x00000000000010ca       0x27 /home/lodge/STM32MP157/tf-a/tf-a-stm32mp/../build/trusted/bl32/platform_helpers.o
 .ARM.attributes
                0x00000000000010f1       0x27 /home/lodge/STM32MP157/tf-a/tf-a-stm32mp/../build/trusted/bl32/aeabi_uldivmod.o
 .ARM.attributes
                0x0000000000001118       0x27 /home/lodge/STM32MP157/tf-a/tf-a-stm32mp/../build/trusted/bl32/stm32_console.o
 .ARM.attributes
                0x000000000000113f       0x27 /home/lodge/STM32MP157/tf-a/tf-a-stm32mp/../build/trusted/bl32/enable_mmu.o
 .ARM.attributes
                0x0000000000001166       0x27 /home/lodge/STM32MP157/tf-a/tf-a-stm32mp/../build/trusted/bl32/cortex_a7.o
 .ARM.attributes
                0x000000000000118d       0x27 /home/lodge/STM32MP157/tf-a/tf-a-stm32mp/../build/trusted/bl32/stm32mp1_helper.o
 .ARM.attributes
                0x00000000000011b4       0x33 /home/lodge/STM32MP157/tf-a/tf-a-stm32mp/../build/trusted/lib/libfdt.a(fdt.o)
 .ARM.attributes
                0x00000000000011e7       0x33 /home/lodge/STM32MP157/tf-a/tf-a-stm32mp/../build/trusted/lib/libfdt.a(fdt_addresses.o)
 .ARM.attributes
                0x000000000000121a       0x33 /home/lodge/STM32MP157/tf-a/tf-a-stm32mp/../build/trusted/lib/libfdt.a(fdt_ro.o)
 .ARM.attributes
                0x000000000000124d       0x33 /home/lodge/STM32MP157/tf-a/tf-a-stm32mp/../build/trusted/lib/libc.a(assert.o)
 .ARM.attributes
                0x0000000000001280       0x33 /home/lodge/STM32MP157/tf-a/tf-a-stm32mp/../build/trusted/lib/libc.a(memchr.o)
 .ARM.attributes
                0x00000000000012b3       0x33 /home/lodge/STM32MP157/tf-a/tf-a-stm32mp/../build/trusted/lib/libc.a(memcmp.o)
 .ARM.attributes
                0x00000000000012e6       0x33 /home/lodge/STM32MP157/tf-a/tf-a-stm32mp/../build/trusted/lib/libc.a(memcpy.o)
 .ARM.attributes
                0x0000000000001319       0x33 /home/lodge/STM32MP157/tf-a/tf-a-stm32mp/../build/trusted/lib/libc.a(memmove.o)
 .ARM.attributes
                0x000000000000134c       0x33 /home/lodge/STM32MP157/tf-a/tf-a-stm32mp/../build/trusted/lib/libc.a(memset.o)
 .ARM.attributes
                0x000000000000137f       0x33 /home/lodge/STM32MP157/tf-a/tf-a-stm32mp/../build/trusted/lib/libc.a(printf.o)
 .ARM.attributes
                0x00000000000013b2       0x33 /home/lodge/STM32MP157/tf-a/tf-a-stm32mp/../build/trusted/lib/libc.a(putchar.o)
 .ARM.attributes
                0x00000000000013e5       0x33 /home/lodge/STM32MP157/tf-a/tf-a-stm32mp/../build/trusted/lib/libc.a(strchr.o)
 .ARM.attributes
                0x0000000000001418       0x33 /home/lodge/STM32MP157/tf-a/tf-a-stm32mp/../build/trusted/lib/libc.a(strcmp.o)
 .ARM.attributes
                0x000000000000144b       0x33 /home/lodge/STM32MP157/tf-a/tf-a-stm32mp/../build/trusted/lib/libc.a(strlcpy.o)
 .ARM.attributes
                0x000000000000147e       0x33 /home/lodge/STM32MP157/tf-a/tf-a-stm32mp/../build/trusted/lib/libc.a(strlen.o)
 .ARM.attributes
                0x00000000000014b1       0x33 /home/lodge/STM32MP157/tf-a/tf-a-stm32mp/../build/trusted/lib/libc.a(strncmp.o)
 .ARM.attributes
                0x00000000000014e4       0x33 /home/lodge/STM32MP157/tf-a/tf-a-stm32mp/../build/trusted/lib/libc.a(strnlen.o)
 .ARM.attributes
                0x0000000000001517       0x33 /home/lodge/STM32MP157/tf-a/tf-a-stm32mp/../build/trusted/lib/libc.a(strrchr.o)

.debug_loc      0x0000000000000000    0x2ea9d
 .debug_loc     0x0000000000000000      0x53c /home/lodge/STM32MP157/tf-a/tf-a-stm32mp/../build/trusted/bl32/sp_min_main.o
 .debug_loc     0x000000000000053c      0x442 /home/lodge/STM32MP157/tf-a/tf-a-stm32mp/../build/trusted/bl32/runtime_svc.o
 .debug_loc     0x000000000000097e      0x280 /home/lodge/STM32MP157/tf-a/tf-a-stm32mp/../build/trusted/bl32/std_svc_setup.o
 .debug_loc     0x0000000000000bfe      0x549 /home/lodge/STM32MP157/tf-a/tf-a-stm32mp/../build/trusted/bl32/context_mgmt.o
 .debug_loc     0x0000000000001147      0x242 /home/lodge/STM32MP157/tf-a/tf-a-stm32mp/../build/trusted/bl32/errata_report.o
 .debug_loc     0x0000000000001389      0x102 /home/lodge/STM32MP157/tf-a/tf-a-stm32mp/../build/trusted/bl32/psci_off.o
 .debug_loc     0x000000000000148b      0x34d /home/lodge/STM32MP157/tf-a/tf-a-stm32mp/../build/trusted/bl32/psci_on.o
 .debug_loc     0x00000000000017d8      0x339 /home/lodge/STM32MP157/tf-a/tf-a-stm32mp/../build/trusted/bl32/psci_suspend.o
 .debug_loc     0x0000000000001b11     0x12d4 /home/lodge/STM32MP157/tf-a/tf-a-stm32mp/../build/trusted/bl32/psci_common.o
 .debug_loc     0x0000000000002de5     0x1651 /home/lodge/STM32MP157/tf-a/tf-a-stm32mp/../build/trusted/bl32/psci_main.o
 .debug_loc     0x0000000000004436      0x3a6 /home/lodge/STM32MP157/tf-a/tf-a-stm32mp/../build/trusted/bl32/psci_setup.o
 .debug_loc     0x00000000000047dc      0x11c /home/lodge/STM32MP157/tf-a/tf-a-stm32mp/../build/trusted/bl32/psci_system_off.o
 .debug_loc     0x00000000000048f8      0x10f /home/lodge/STM32MP157/tf-a/tf-a-stm32mp/../build/trusted/bl32/psci_mem_protect.o
 .debug_loc     0x0000000000004a07      0x989 /home/lodge/STM32MP157/tf-a/tf-a-stm32mp/../build/trusted/bl32/bakery_lock_normal.o
 .debug_loc     0x0000000000005390      0xc97 /home/lodge/STM32MP157/tf-a/tf-a-stm32mp/../build/trusted/bl32/stm32mp1_calib.o
 .debug_loc     0x0000000000006027      0x91f /home/lodge/STM32MP157/tf-a/tf-a-stm32mp/../build/trusted/bl32/etzpc.o
 .debug_loc     0x0000000000006946      0x3bc /home/lodge/STM32MP157/tf-a/tf-a-stm32mp/../build/trusted/bl32/stm32_rng.o
 .debug_loc     0x0000000000006d02      0x9b5 /home/lodge/STM32MP157/tf-a/tf-a-stm32mp/../build/trusted/bl32/stm32_rtc.o
 .debug_loc     0x00000000000076b7      0xd4e /home/lodge/STM32MP157/tf-a/tf-a-stm32mp/../build/trusted/bl32/stm32_tamp.o
 .debug_loc     0x0000000000008405      0x764 /home/lodge/STM32MP157/tf-a/tf-a-stm32mp/../build/trusted/bl32/stm32_timer.o
 .debug_loc     0x0000000000008b69      0x4ca /home/lodge/STM32MP157/tf-a/tf-a-stm32mp/../build/trusted/bl32/sp_min_setup.o
 .debug_loc     0x0000000000009033      0x967 /home/lodge/STM32MP157/tf-a/tf-a-stm32mp/../build/trusted/bl32/stm32mp1_low_power.o
 .debug_loc     0x000000000000999a      0x4a4 /home/lodge/STM32MP157/tf-a/tf-a-stm32mp/../build/trusted/bl32/stm32mp1_pm.o
 .debug_loc     0x0000000000009e3e      0x327 /home/lodge/STM32MP157/tf-a/tf-a-stm32mp/../build/trusted/bl32/stm32mp1_power_config.o
 .debug_loc     0x000000000000a165     0x1204 /home/lodge/STM32MP157/tf-a/tf-a-stm32mp/../build/trusted/bl32/stm32mp1_shared_resources.o
 .debug_loc     0x000000000000b369       0xf3 /home/lodge/STM32MP157/tf-a/tf-a-stm32mp/../build/trusted/bl32/stm32mp1_topology.o
 .debug_loc     0x000000000000b45c     0x1771 /home/lodge/STM32MP157/tf-a/tf-a-stm32mp/../build/trusted/bl32/gic_common.o
 .debug_loc     0x000000000000cbcd      0xac9 /home/lodge/STM32MP157/tf-a/tf-a-stm32mp/../build/trusted/bl32/gicv2_helpers.o
 .debug_loc     0x000000000000d696      0xf27 /home/lodge/STM32MP157/tf-a/tf-a-stm32mp/../build/trusted/bl32/gicv2_main.o
 .debug_loc     0x000000000000e5bd      0x5b5 /home/lodge/STM32MP157/tf-a/tf-a-stm32mp/../build/trusted/bl32/plat_gicv2.o
 .debug_loc     0x000000000000eb72      0x391 /home/lodge/STM32MP157/tf-a/tf-a-stm32mp/../build/trusted/bl32/stm32_gic.o
 .debug_loc     0x000000000000ef03      0x19c /home/lodge/STM32MP157/tf-a/tf-a-stm32mp/../build/trusted/bl32/plat_psci_common.o
 .debug_loc     0x000000000000f09f      0x223 /home/lodge/STM32MP157/tf-a/tf-a-stm32mp/../build/trusted/bl32/bsec_svc.o
 .debug_loc     0x000000000000f2c2       0x4a /home/lodge/STM32MP157/tf-a/tf-a-stm32mp/../build/trusted/bl32/low_power_svc.o
 .debug_loc     0x000000000000f30c      0x559 /home/lodge/STM32MP157/tf-a/tf-a-stm32mp/../build/trusted/bl32/pwr_svc.o
 .debug_loc     0x000000000000f865      0x4a4 /home/lodge/STM32MP157/tf-a/tf-a-stm32mp/../build/trusted/bl32/rcc_svc.o
 .debug_loc     0x000000000000fd09      0x67c /home/lodge/STM32MP157/tf-a/tf-a-stm32mp/../build/trusted/bl32/stm32mp1_svc_setup.o
 .debug_loc     0x0000000000010385      0x498 /home/lodge/STM32MP157/tf-a/tf-a-stm32mp/../build/trusted/bl32/base.o
 .debug_loc     0x000000000001081d      0xa1f /home/lodge/STM32MP157/tf-a/tf-a-stm32mp/../build/trusted/bl32/clock.o
 .debug_loc     0x000000000001123c      0x214 /home/lodge/STM32MP157/tf-a/tf-a-stm32mp/../build/trusted/bl32/entry.o
 .debug_loc     0x0000000000011450      0x484 /home/lodge/STM32MP157/tf-a/tf-a-stm32mp/../build/trusted/bl32/reset_domain.o
 .debug_loc     0x00000000000118d4      0x23b /home/lodge/STM32MP157/tf-a/tf-a-stm32mp/../build/trusted/bl32/smt.o
 .debug_loc     0x0000000000011b0f      0xcc5 /home/lodge/STM32MP157/tf-a/tf-a-stm32mp/../build/trusted/bl32/stm32mp1_scmi.o
 .debug_loc     0x00000000000127d4       0xb5 /home/lodge/STM32MP157/tf-a/tf-a-stm32mp/../build/trusted/bl32/tf_log.o
 .debug_loc     0x0000000000012889      0x321 /home/lodge/STM32MP157/tf-a/tf-a-stm32mp/../build/trusted/bl32/multi_console.o
 .debug_loc     0x0000000000012baa       0x96 /home/lodge/STM32MP157/tf-a/tf-a-stm32mp/../build/trusted/bl32/plat_log_common.o
 .debug_loc     0x0000000000012c40       0x25 /home/lodge/STM32MP157/tf-a/tf-a-stm32mp/../build/trusted/bl32/plat_common.o
 .debug_loc     0x0000000000012c65       0x41 /home/lodge/STM32MP157/tf-a/tf-a-stm32mp/../build/trusted/bl32/ctzdi2.o
 .debug_loc     0x0000000000012ca6      0x2da /home/lodge/STM32MP157/tf-a/tf-a-stm32mp/../build/trusted/bl32/udivmoddi4.o
 .debug_loc     0x0000000000012f80      0x2d8 /home/lodge/STM32MP157/tf-a/tf-a-stm32mp/../build/trusted/bl32/stm32mp_common.o
 .debug_loc     0x0000000000013258      0x81a /home/lodge/STM32MP157/tf-a/tf-a-stm32mp/../build/trusted/bl32/stm32mp1_private.o
 .debug_loc     0x0000000000013a72      0x4c4 /home/lodge/STM32MP157/tf-a/tf-a-stm32mp/../build/trusted/bl32/xlat_tables_arch.o
 .debug_loc     0x0000000000013f36      0x593 /home/lodge/STM32MP157/tf-a/tf-a-stm32mp/../build/trusted/bl32/xlat_tables_context.o
 .debug_loc     0x00000000000144c9     0x1ad7 /home/lodge/STM32MP157/tf-a/tf-a-stm32mp/../build/trusted/bl32/xlat_tables_core.o
 .debug_loc     0x0000000000015fa0      0x938 /home/lodge/STM32MP157/tf-a/tf-a-stm32mp/../build/trusted/bl32/xlat_tables_utils.o
 .debug_loc     0x00000000000168d8      0xd72 /home/lodge/STM32MP157/tf-a/tf-a-stm32mp/../build/trusted/bl32/tzc400.o
 .debug_loc     0x000000000001764a      0x116 /home/lodge/STM32MP157/tf-a/tf-a-stm32mp/../build/trusted/bl32/delay_timer.o
 .debug_loc     0x0000000000017760       0xc6 /home/lodge/STM32MP157/tf-a/tf-a-stm32mp/../build/trusted/bl32/generic_delay_timer.o
 .debug_loc     0x0000000000017826     0x16e7 /home/lodge/STM32MP157/tf-a/tf-a-stm32mp/../build/trusted/bl32/bsec2.o
 .debug_loc     0x0000000000018f0d      0xc0c /home/lodge/STM32MP157/tf-a/tf-a-stm32mp/../build/trusted/bl32/stm32mp_clkfunc.o
 .debug_loc     0x0000000000019b19     0x69d5 /home/lodge/STM32MP157/tf-a/tf-a-stm32mp/../build/trusted/bl32/stm32mp1_clk.o
 .debug_loc     0x00000000000204ee     0x3498 /home/lodge/STM32MP157/tf-a/tf-a-stm32mp/../build/trusted/bl32/stm32mp1_ddr_helpers.o
 .debug_loc     0x0000000000023986      0xfc1 /home/lodge/STM32MP157/tf-a/tf-a-stm32mp/../build/trusted/bl32/stm32_gpio.o
 .debug_loc     0x0000000000024947     0x2ef9 /home/lodge/STM32MP157/tf-a/tf-a-stm32mp/../build/trusted/bl32/stm32_i2c.o
 .debug_loc     0x0000000000027840      0x5c3 /home/lodge/STM32MP157/tf-a/tf-a-stm32mp/../build/trusted/bl32/stm32_iwdg.o
 .debug_loc     0x0000000000027e03      0xad1 /home/lodge/STM32MP157/tf-a/tf-a-stm32mp/../build/trusted/bl32/stm32mp_pmic.o
 .debug_loc     0x00000000000288d4      0x75a /home/lodge/STM32MP157/tf-a/tf-a-stm32mp/../build/trusted/bl32/stpmic1.o
 .debug_loc     0x000000000002902e      0x3d8 /home/lodge/STM32MP157/tf-a/tf-a-stm32mp/../build/trusted/bl32/stm32mp1_reset.o
 .debug_loc     0x0000000000029406      0xfc2 /home/lodge/STM32MP157/tf-a/tf-a-stm32mp/../build/trusted/bl32/stm32mp_dt.o
 .debug_loc     0x000000000002a3c8      0x2be /home/lodge/STM32MP157/tf-a/tf-a-stm32mp/../build/trusted/bl32/stm32mp_shres_helpers.o
 .debug_loc     0x000000000002a686      0x488 /home/lodge/STM32MP157/tf-a/tf-a-stm32mp/../build/trusted/bl32/stm32mp1_context.o
 .debug_loc     0x000000000002ab0e      0x1b5 /home/lodge/STM32MP157/tf-a/tf-a-stm32mp/../build/trusted/bl32/stm32mp1_dbgmcu.o
 .debug_loc     0x000000000002acc3       0xf8 /home/lodge/STM32MP157/tf-a/tf-a-stm32mp/../build/trusted/bl32/stm32mp1_security.o
 .debug_loc     0x000000000002adbb      0x52c /home/lodge/STM32MP157/tf-a/tf-a-stm32mp/../build/trusted/bl32/stm32mp1_syscfg.o
 .debug_loc     0x000000000002b2e7      0x60f /home/lodge/STM32MP157/tf-a/tf-a-stm32mp/../build/trusted/lib/libfdt.a(fdt.o)
 .debug_loc     0x000000000002b8f6      0x146 /home/lodge/STM32MP157/tf-a/tf-a-stm32mp/../build/trusted/lib/libfdt.a(fdt_addresses.o)
 .debug_loc     0x000000000002ba3c     0x1fcb /home/lodge/STM32MP157/tf-a/tf-a-stm32mp/../build/trusted/lib/libfdt.a(fdt_ro.o)
 .debug_loc     0x000000000002da07       0x64 /home/lodge/STM32MP157/tf-a/tf-a-stm32mp/../build/trusted/lib/libc.a(assert.o)
 .debug_loc     0x000000000002da6b      0x10a /home/lodge/STM32MP157/tf-a/tf-a-stm32mp/../build/trusted/lib/libc.a(memchr.o)
 .debug_loc     0x000000000002db75      0x11a /home/lodge/STM32MP157/tf-a/tf-a-stm32mp/../build/trusted/lib/libc.a(memcmp.o)
 .debug_loc     0x000000000002dc8f       0xa2 /home/lodge/STM32MP157/tf-a/tf-a-stm32mp/../build/trusted/lib/libc.a(memcpy.o)
 .debug_loc     0x000000000002dd31      0x170 /home/lodge/STM32MP157/tf-a/tf-a-stm32mp/../build/trusted/lib/libc.a(memmove.o)
 .debug_loc     0x000000000002dea1       0x63 /home/lodge/STM32MP157/tf-a/tf-a-stm32mp/../build/trusted/lib/libc.a(memset.o)
 .debug_loc     0x000000000002df04      0x6c4 /home/lodge/STM32MP157/tf-a/tf-a-stm32mp/../build/trusted/lib/libc.a(printf.o)
 .debug_loc     0x000000000002e5c8       0x22 /home/lodge/STM32MP157/tf-a/tf-a-stm32mp/../build/trusted/lib/libc.a(putchar.o)
 .debug_loc     0x000000000002e5ea       0x6b /home/lodge/STM32MP157/tf-a/tf-a-stm32mp/../build/trusted/lib/libc.a(strchr.o)
 .debug_loc     0x000000000002e655       0x71 /home/lodge/STM32MP157/tf-a/tf-a-stm32mp/../build/trusted/lib/libc.a(strcmp.o)
 .debug_loc     0x000000000002e6c6      0x1c1 /home/lodge/STM32MP157/tf-a/tf-a-stm32mp/../build/trusted/lib/libc.a(strlcpy.o)
 .debug_loc     0x000000000002e887       0x47 /home/lodge/STM32MP157/tf-a/tf-a-stm32mp/../build/trusted/lib/libc.a(strlen.o)
 .debug_loc     0x000000000002e8ce       0xfe /home/lodge/STM32MP157/tf-a/tf-a-stm32mp/../build/trusted/lib/libc.a(strncmp.o)
 .debug_loc     0x000000000002e9cc       0x38 /home/lodge/STM32MP157/tf-a/tf-a-stm32mp/../build/trusted/lib/libc.a(strnlen.o)
 .debug_loc     0x000000000002ea04       0x99 /home/lodge/STM32MP157/tf-a/tf-a-stm32mp/../build/trusted/lib/libc.a(strrchr.o)

.debug_ranges   0x0000000000000000     0x6518
 .debug_ranges  0x0000000000000000       0xf8 /home/lodge/STM32MP157/tf-a/tf-a-stm32mp/../build/trusted/bl32/sp_min_main.o
 .debug_ranges  0x00000000000000f8       0xc0 /home/lodge/STM32MP157/tf-a/tf-a-stm32mp/../build/trusted/bl32/runtime_svc.o
 .debug_ranges  0x00000000000001b8       0x10 /home/lodge/STM32MP157/tf-a/tf-a-stm32mp/../build/trusted/bl32/plat_sp_min_common.o
 .debug_ranges  0x00000000000001c8       0x30 /home/lodge/STM32MP157/tf-a/tf-a-stm32mp/../build/trusted/bl32/std_svc_setup.o
 .debug_ranges  0x00000000000001f8       0xa8 /home/lodge/STM32MP157/tf-a/tf-a-stm32mp/../build/trusted/bl32/context_mgmt.o
 .debug_ranges  0x00000000000002a0       0x18 /home/lodge/STM32MP157/tf-a/tf-a-stm32mp/../build/trusted/bl32/errata_report.o
 .debug_ranges  0x00000000000002b8       0x48 /home/lodge/STM32MP157/tf-a/tf-a-stm32mp/../build/trusted/bl32/psci_off.o
 .debug_ranges  0x0000000000000300       0x60 /home/lodge/STM32MP157/tf-a/tf-a-stm32mp/../build/trusted/bl32/psci_on.o
 .debug_ranges  0x0000000000000360       0xb0 /home/lodge/STM32MP157/tf-a/tf-a-stm32mp/../build/trusted/bl32/psci_suspend.o
 .debug_ranges  0x0000000000000410      0x298 /home/lodge/STM32MP157/tf-a/tf-a-stm32mp/../build/trusted/bl32/psci_common.o
 .debug_ranges  0x00000000000006a8      0x100 /home/lodge/STM32MP157/tf-a/tf-a-stm32mp/../build/trusted/bl32/psci_main.o
 .debug_ranges  0x00000000000007a8       0xa0 /home/lodge/STM32MP157/tf-a/tf-a-stm32mp/../build/trusted/bl32/psci_setup.o
 .debug_ranges  0x0000000000000848       0x20 /home/lodge/STM32MP157/tf-a/tf-a-stm32mp/../build/trusted/bl32/psci_system_off.o
 .debug_ranges  0x0000000000000868       0x18 /home/lodge/STM32MP157/tf-a/tf-a-stm32mp/../build/trusted/bl32/psci_mem_protect.o
 .debug_ranges  0x0000000000000880      0x130 /home/lodge/STM32MP157/tf-a/tf-a-stm32mp/../build/trusted/bl32/bakery_lock_normal.o
 .debug_ranges  0x00000000000009b0      0x260 /home/lodge/STM32MP157/tf-a/tf-a-stm32mp/../build/trusted/bl32/stm32mp1_calib.o
 .debug_ranges  0x0000000000000c10      0x238 /home/lodge/STM32MP157/tf-a/tf-a-stm32mp/../build/trusted/bl32/etzpc.o
 .debug_ranges  0x0000000000000e48       0xc0 /home/lodge/STM32MP157/tf-a/tf-a-stm32mp/../build/trusted/bl32/stm32_rng.o
 .debug_ranges  0x0000000000000f08      0x1f0 /home/lodge/STM32MP157/tf-a/tf-a-stm32mp/../build/trusted/bl32/stm32_rtc.o
 .debug_ranges  0x00000000000010f8      0x2c0 /home/lodge/STM32MP157/tf-a/tf-a-stm32mp/../build/trusted/bl32/stm32_tamp.o
 .debug_ranges  0x00000000000013b8      0x120 /home/lodge/STM32MP157/tf-a/tf-a-stm32mp/../build/trusted/bl32/stm32_timer.o
 .debug_ranges  0x00000000000014d8       0xc8 /home/lodge/STM32MP157/tf-a/tf-a-stm32mp/../build/trusted/bl32/sp_min_setup.o
 .debug_ranges  0x00000000000015a0      0x120 /home/lodge/STM32MP157/tf-a/tf-a-stm32mp/../build/trusted/bl32/stm32mp1_low_power.o
 .debug_ranges  0x00000000000016c0      0x118 /home/lodge/STM32MP157/tf-a/tf-a-stm32mp/../build/trusted/bl32/stm32mp1_pm.o
 .debug_ranges  0x00000000000017d8      0x100 /home/lodge/STM32MP157/tf-a/tf-a-stm32mp/../build/trusted/bl32/stm32mp1_power_config.o
 .debug_ranges  0x00000000000018d8      0x230 /home/lodge/STM32MP157/tf-a/tf-a-stm32mp/../build/trusted/bl32/stm32mp1_shared_resources.o
 .debug_ranges  0x0000000000001b08       0x18 /home/lodge/STM32MP157/tf-a/tf-a-stm32mp/../build/trusted/bl32/stm32mp1_topology.o
 .debug_ranges  0x0000000000001b20      0x2e8 /home/lodge/STM32MP157/tf-a/tf-a-stm32mp/../build/trusted/bl32/gic_common.o
 .debug_ranges  0x0000000000001e08      0x150 /home/lodge/STM32MP157/tf-a/tf-a-stm32mp/../build/trusted/bl32/gicv2_helpers.o
 .debug_ranges  0x0000000000001f58      0x200 /home/lodge/STM32MP157/tf-a/tf-a-stm32mp/../build/trusted/bl32/gicv2_main.o
 .debug_ranges  0x0000000000002158       0xb8 /home/lodge/STM32MP157/tf-a/tf-a-stm32mp/../build/trusted/bl32/plat_gicv2.o
 .debug_ranges  0x0000000000002210       0x50 /home/lodge/STM32MP157/tf-a/tf-a-stm32mp/../build/trusted/bl32/stm32_gic.o
 .debug_ranges  0x0000000000002260       0x10 /home/lodge/STM32MP157/tf-a/tf-a-stm32mp/../build/trusted/bl32/plat_psci_common.o
 .debug_ranges  0x0000000000002270       0x30 /home/lodge/STM32MP157/tf-a/tf-a-stm32mp/../build/trusted/bl32/bsec_svc.o
 .debug_ranges  0x00000000000022a0       0x10 /home/lodge/STM32MP157/tf-a/tf-a-stm32mp/../build/trusted/bl32/low_power_svc.o
 .debug_ranges  0x00000000000022b0       0x48 /home/lodge/STM32MP157/tf-a/tf-a-stm32mp/../build/trusted/bl32/pwr_svc.o
 .debug_ranges  0x00000000000022f8       0x78 /home/lodge/STM32MP157/tf-a/tf-a-stm32mp/../build/trusted/bl32/rcc_svc.o
 .debug_ranges  0x0000000000002370       0x18 /home/lodge/STM32MP157/tf-a/tf-a-stm32mp/../build/trusted/bl32/stm32mp1_svc_setup.o
 .debug_ranges  0x0000000000002388       0x60 /home/lodge/STM32MP157/tf-a/tf-a-stm32mp/../build/trusted/bl32/base.o
 .debug_ranges  0x00000000000023e8       0xe0 /home/lodge/STM32MP157/tf-a/tf-a-stm32mp/../build/trusted/bl32/clock.o
 .debug_ranges  0x00000000000024c8       0x20 /home/lodge/STM32MP157/tf-a/tf-a-stm32mp/../build/trusted/bl32/entry.o
 .debug_ranges  0x00000000000024e8       0x58 /home/lodge/STM32MP157/tf-a/tf-a-stm32mp/../build/trusted/bl32/reset_domain.o
 .debug_ranges  0x0000000000002540       0x58 /home/lodge/STM32MP157/tf-a/tf-a-stm32mp/../build/trusted/bl32/smt.o
 .debug_ranges  0x0000000000002598      0x1c8 /home/lodge/STM32MP157/tf-a/tf-a-stm32mp/../build/trusted/bl32/stm32mp1_scmi.o
 .debug_ranges  0x0000000000002760       0x18 /home/lodge/STM32MP157/tf-a/tf-a-stm32mp/../build/trusted/bl32/tf_log.o
 .debug_ranges  0x0000000000002778       0x90 /home/lodge/STM32MP157/tf-a/tf-a-stm32mp/../build/trusted/bl32/multi_console.o
 .debug_ranges  0x0000000000002808       0x10 /home/lodge/STM32MP157/tf-a/tf-a-stm32mp/../build/trusted/bl32/plat_log_common.o
 .debug_ranges  0x0000000000002818       0x10 /home/lodge/STM32MP157/tf-a/tf-a-stm32mp/../build/trusted/bl32/plat_common.o
 .debug_ranges  0x0000000000002828       0x10 /home/lodge/STM32MP157/tf-a/tf-a-stm32mp/../build/trusted/bl32/ctzdi2.o
 .debug_ranges  0x0000000000002838       0x10 /home/lodge/STM32MP157/tf-a/tf-a-stm32mp/../build/trusted/bl32/udivmoddi4.o
 .debug_ranges  0x0000000000002848       0xb8 /home/lodge/STM32MP157/tf-a/tf-a-stm32mp/../build/trusted/bl32/stm32mp_common.o
 .debug_ranges  0x0000000000002900      0x120 /home/lodge/STM32MP157/tf-a/tf-a-stm32mp/../build/trusted/bl32/stm32mp1_private.o
 .debug_ranges  0x0000000000002a20       0xe0 /home/lodge/STM32MP157/tf-a/tf-a-stm32mp/../build/trusted/bl32/xlat_tables_arch.o
 .debug_ranges  0x0000000000002b00       0x68 /home/lodge/STM32MP157/tf-a/tf-a-stm32mp/../build/trusted/bl32/xlat_tables_context.o
 .debug_ranges  0x0000000000002b68      0x2d0 /home/lodge/STM32MP157/tf-a/tf-a-stm32mp/../build/trusted/bl32/xlat_tables_core.o
 .debug_ranges  0x0000000000002e38      0x110 /home/lodge/STM32MP157/tf-a/tf-a-stm32mp/../build/trusted/bl32/xlat_tables_utils.o
 .debug_ranges  0x0000000000002f48      0x298 /home/lodge/STM32MP157/tf-a/tf-a-stm32mp/../build/trusted/bl32/tzc400.o
 .debug_ranges  0x00000000000031e0       0x38 /home/lodge/STM32MP157/tf-a/tf-a-stm32mp/../build/trusted/bl32/delay_timer.o
 .debug_ranges  0x0000000000003218       0x68 /home/lodge/STM32MP157/tf-a/tf-a-stm32mp/../build/trusted/bl32/generic_delay_timer.o
 .debug_ranges  0x0000000000003280      0x3a8 /home/lodge/STM32MP157/tf-a/tf-a-stm32mp/../build/trusted/bl32/bsec2.o
 .debug_ranges  0x0000000000003628      0x178 /home/lodge/STM32MP157/tf-a/tf-a-stm32mp/../build/trusted/bl32/stm32mp_clkfunc.o
 .debug_ranges  0x00000000000037a0      0xf10 /home/lodge/STM32MP157/tf-a/tf-a-stm32mp/../build/trusted/bl32/stm32mp1_clk.o
 .debug_ranges  0x00000000000046b0      0x2e0 /home/lodge/STM32MP157/tf-a/tf-a-stm32mp/../build/trusted/bl32/stm32mp1_ddr_helpers.o
 .debug_ranges  0x0000000000004990      0x288 /home/lodge/STM32MP157/tf-a/tf-a-stm32mp/../build/trusted/bl32/stm32_gpio.o
 .debug_ranges  0x0000000000004c18      0x878 /home/lodge/STM32MP157/tf-a/tf-a-stm32mp/../build/trusted/bl32/stm32_i2c.o
 .debug_ranges  0x0000000000005490      0x118 /home/lodge/STM32MP157/tf-a/tf-a-stm32mp/../build/trusted/bl32/stm32_iwdg.o
 .debug_ranges  0x00000000000055a8      0x168 /home/lodge/STM32MP157/tf-a/tf-a-stm32mp/../build/trusted/bl32/stm32mp_pmic.o
 .debug_ranges  0x0000000000005710       0xb0 /home/lodge/STM32MP157/tf-a/tf-a-stm32mp/../build/trusted/bl32/stpmic1.o
 .debug_ranges  0x00000000000057c0      0x108 /home/lodge/STM32MP157/tf-a/tf-a-stm32mp/../build/trusted/bl32/stm32mp1_reset.o
 .debug_ranges  0x00000000000058c8      0x178 /home/lodge/STM32MP157/tf-a/tf-a-stm32mp/../build/trusted/bl32/stm32mp_dt.o
 .debug_ranges  0x0000000000005a40       0x30 /home/lodge/STM32MP157/tf-a/tf-a-stm32mp/../build/trusted/bl32/stm32mp_shres_helpers.o
 .debug_ranges  0x0000000000005a70       0xd8 /home/lodge/STM32MP157/tf-a/tf-a-stm32mp/../build/trusted/bl32/stm32mp1_context.o
 .debug_ranges  0x0000000000005b48       0x58 /home/lodge/STM32MP157/tf-a/tf-a-stm32mp/../build/trusted/bl32/stm32mp1_dbgmcu.o
 .debug_ranges  0x0000000000005ba0       0x58 /home/lodge/STM32MP157/tf-a/tf-a-stm32mp/../build/trusted/bl32/stm32mp1_security.o
 .debug_ranges  0x0000000000005bf8       0xf0 /home/lodge/STM32MP157/tf-a/tf-a-stm32mp/../build/trusted/bl32/stm32mp1_syscfg.o
 .debug_ranges  0x0000000000005ce8       0x40 /home/lodge/STM32MP157/tf-a/tf-a-stm32mp/../build/trusted/bl32/entrypoint.o
 .debug_ranges  0x0000000000005d28       0x20 /home/lodge/STM32MP157/tf-a/tf-a-stm32mp/../build/trusted/bl32/cpu_data.o
 .debug_ranges  0x0000000000005d48       0x50 /home/lodge/STM32MP157/tf-a/tf-a-stm32mp/../build/trusted/bl32/cpu_helpers.o
 .debug_ranges  0x0000000000005d98       0x20 /home/lodge/STM32MP157/tf-a/tf-a-stm32mp/../build/trusted/bl32/spinlock.o
 .debug_ranges  0x0000000000005db8       0x30 /home/lodge/STM32MP157/tf-a/tf-a-stm32mp/../build/trusted/bl32/psci_helpers.o
 .debug_ranges  0x0000000000005de8       0x20 /home/lodge/STM32MP157/tf-a/tf-a-stm32mp/../build/trusted/bl32/platform_mp_stack.o
 .debug_ranges  0x0000000000005e08       0x50 /home/lodge/STM32MP157/tf-a/tf-a-stm32mp/../build/trusted/bl32/debug.o
 .debug_ranges  0x0000000000005e58       0x58 /home/lodge/STM32MP157/tf-a/tf-a-stm32mp/../build/trusted/bl32/cache_helpers.o
 .debug_ranges  0x0000000000005eb0       0x38 /home/lodge/STM32MP157/tf-a/tf-a-stm32mp/../build/trusted/bl32/misc_helpers.o
 .debug_ranges  0x0000000000005ee8       0x58 /home/lodge/STM32MP157/tf-a/tf-a-stm32mp/../build/trusted/bl32/platform_helpers.o
 .debug_ranges  0x0000000000005f40       0x48 /home/lodge/STM32MP157/tf-a/tf-a-stm32mp/../build/trusted/bl32/stm32_console.o
 .debug_ranges  0x0000000000005f88       0x20 /home/lodge/STM32MP157/tf-a/tf-a-stm32mp/../build/trusted/bl32/enable_mmu.o
 .debug_ranges  0x0000000000005fa8       0x40 /home/lodge/STM32MP157/tf-a/tf-a-stm32mp/../build/trusted/bl32/cortex_a7.o
 .debug_ranges  0x0000000000005fe8       0x90 /home/lodge/STM32MP157/tf-a/tf-a-stm32mp/../build/trusted/bl32/stm32mp1_helper.o
 .debug_ranges  0x0000000000006078       0x90 /home/lodge/STM32MP157/tf-a/tf-a-stm32mp/../build/trusted/lib/libfdt.a(fdt.o)
 .debug_ranges  0x0000000000006108       0x18 /home/lodge/STM32MP157/tf-a/tf-a-stm32mp/../build/trusted/lib/libfdt.a(fdt_addresses.o)
 .debug_ranges  0x0000000000006120      0x298 /home/lodge/STM32MP157/tf-a/tf-a-stm32mp/../build/trusted/lib/libfdt.a(fdt_ro.o)
 .debug_ranges  0x00000000000063b8       0x10 /home/lodge/STM32MP157/tf-a/tf-a-stm32mp/../build/trusted/lib/libc.a(assert.o)
 .debug_ranges  0x00000000000063c8       0x10 /home/lodge/STM32MP157/tf-a/tf-a-stm32mp/../build/trusted/lib/libc.a(memchr.o)
 .debug_ranges  0x00000000000063d8       0x10 /home/lodge/STM32MP157/tf-a/tf-a-stm32mp/../build/trusted/lib/libc.a(memcmp.o)
 .debug_ranges  0x00000000000063e8       0x10 /home/lodge/STM32MP157/tf-a/tf-a-stm32mp/../build/trusted/lib/libc.a(memcpy.o)
 .debug_ranges  0x00000000000063f8       0x28 /home/lodge/STM32MP157/tf-a/tf-a-stm32mp/../build/trusted/lib/libc.a(memmove.o)
 .debug_ranges  0x0000000000006420       0x10 /home/lodge/STM32MP157/tf-a/tf-a-stm32mp/../build/trusted/lib/libc.a(memset.o)
 .debug_ranges  0x0000000000006430       0x68 /home/lodge/STM32MP157/tf-a/tf-a-stm32mp/../build/trusted/lib/libc.a(printf.o)
 .debug_ranges  0x0000000000006498       0x10 /home/lodge/STM32MP157/tf-a/tf-a-stm32mp/../build/trusted/lib/libc.a(putchar.o)
 .debug_ranges  0x00000000000064a8       0x10 /home/lodge/STM32MP157/tf-a/tf-a-stm32mp/../build/trusted/lib/libc.a(strchr.o)
 .debug_ranges  0x00000000000064b8       0x10 /home/lodge/STM32MP157/tf-a/tf-a-stm32mp/../build/trusted/lib/libc.a(strcmp.o)
 .debug_ranges  0x00000000000064c8       0x10 /home/lodge/STM32MP157/tf-a/tf-a-stm32mp/../build/trusted/lib/libc.a(strlcpy.o)
 .debug_ranges  0x00000000000064d8       0x10 /home/lodge/STM32MP157/tf-a/tf-a-stm32mp/../build/trusted/lib/libc.a(strlen.o)
 .debug_ranges  0x00000000000064e8       0x10 /home/lodge/STM32MP157/tf-a/tf-a-stm32mp/../build/trusted/lib/libc.a(strncmp.o)
 .debug_ranges  0x00000000000064f8       0x10 /home/lodge/STM32MP157/tf-a/tf-a-stm32mp/../build/trusted/lib/libc.a(strnlen.o)
 .debug_ranges  0x0000000000006508       0x10 /home/lodge/STM32MP157/tf-a/tf-a-stm32mp/../build/trusted/lib/libc.a(strrchr.o)

.debug_frame    0x0000000000000000     0x5cd8
 .debug_frame   0x0000000000000000      0x130 /home/lodge/STM32MP157/tf-a/tf-a-stm32mp/../build/trusted/bl32/sp_min_main.o
 .debug_frame   0x0000000000000130       0x5c /home/lodge/STM32MP157/tf-a/tf-a-stm32mp/../build/trusted/bl32/runtime_svc.o
 .debug_frame   0x000000000000018c       0x20 /home/lodge/STM32MP157/tf-a/tf-a-stm32mp/../build/trusted/bl32/plat_sp_min_common.o
 .debug_frame   0x00000000000001ac       0x4c /home/lodge/STM32MP157/tf-a/tf-a-stm32mp/../build/trusted/bl32/std_svc_setup.o
 .debug_frame   0x00000000000001f8       0x94 /home/lodge/STM32MP157/tf-a/tf-a-stm32mp/../build/trusted/bl32/context_mgmt.o
 .debug_frame   0x000000000000028c       0x48 /home/lodge/STM32MP157/tf-a/tf-a-stm32mp/../build/trusted/bl32/errata_report.o
 .debug_frame   0x00000000000002d4       0x30 /home/lodge/STM32MP157/tf-a/tf-a-stm32mp/../build/trusted/bl32/psci_off.o
 .debug_frame   0x0000000000000304       0x60 /home/lodge/STM32MP157/tf-a/tf-a-stm32mp/../build/trusted/bl32/psci_on.o
 .debug_frame   0x0000000000000364       0x64 /home/lodge/STM32MP157/tf-a/tf-a-stm32mp/../build/trusted/bl32/psci_suspend.o
 .debug_frame   0x00000000000003c8      0x25c /home/lodge/STM32MP157/tf-a/tf-a-stm32mp/../build/trusted/bl32/psci_common.o
 .debug_frame   0x0000000000000624      0x1e4 /home/lodge/STM32MP157/tf-a/tf-a-stm32mp/../build/trusted/bl32/psci_main.o
 .debug_frame   0x0000000000000808       0x74 /home/lodge/STM32MP157/tf-a/tf-a-stm32mp/../build/trusted/bl32/psci_setup.o
 .debug_frame   0x000000000000087c       0x6c /home/lodge/STM32MP157/tf-a/tf-a-stm32mp/../build/trusted/bl32/psci_system_off.o
 .debug_frame   0x00000000000008e8       0x48 /home/lodge/STM32MP157/tf-a/tf-a-stm32mp/../build/trusted/bl32/psci_mem_protect.o
 .debug_frame   0x0000000000000930       0x4c /home/lodge/STM32MP157/tf-a/tf-a-stm32mp/../build/trusted/bl32/bakery_lock_normal.o
 .debug_frame   0x000000000000097c      0x174 /home/lodge/STM32MP157/tf-a/tf-a-stm32mp/../build/trusted/bl32/stm32mp1_calib.o
 .debug_frame   0x0000000000000af0      0x118 /home/lodge/STM32MP157/tf-a/tf-a-stm32mp/../build/trusted/bl32/etzpc.o
 .debug_frame   0x0000000000000c08       0x58 /home/lodge/STM32MP157/tf-a/tf-a-stm32mp/../build/trusted/bl32/stm32_rng.o
 .debug_frame   0x0000000000000c60      0x17c /home/lodge/STM32MP157/tf-a/tf-a-stm32mp/../build/trusted/bl32/stm32_rtc.o
 .debug_frame   0x0000000000000ddc       0xc0 /home/lodge/STM32MP157/tf-a/tf-a-stm32mp/../build/trusted/bl32/stm32_tamp.o
 .debug_frame   0x0000000000000e9c       0xbc /home/lodge/STM32MP157/tf-a/tf-a-stm32mp/../build/trusted/bl32/stm32_timer.o
 .debug_frame   0x0000000000000f58       0xc4 /home/lodge/STM32MP157/tf-a/tf-a-stm32mp/../build/trusted/bl32/sp_min_setup.o
 .debug_frame   0x000000000000101c       0x9c /home/lodge/STM32MP157/tf-a/tf-a-stm32mp/../build/trusted/bl32/stm32mp1_low_power.o
 .debug_frame   0x00000000000010b8      0x138 /home/lodge/STM32MP157/tf-a/tf-a-stm32mp/../build/trusted/bl32/stm32mp1_pm.o
 .debug_frame   0x00000000000011f0       0x6c /home/lodge/STM32MP157/tf-a/tf-a-stm32mp/../build/trusted/bl32/stm32mp1_power_config.o
 .debug_frame   0x000000000000125c      0x20c /home/lodge/STM32MP157/tf-a/tf-a-stm32mp/../build/trusted/bl32/stm32mp1_shared_resources.o
 .debug_frame   0x0000000000001468       0x30 /home/lodge/STM32MP157/tf-a/tf-a-stm32mp/../build/trusted/bl32/stm32mp1_topology.o
 .debug_frame   0x0000000000001498      0x24c /home/lodge/STM32MP157/tf-a/tf-a-stm32mp/../build/trusted/bl32/gic_common.o
 .debug_frame   0x00000000000016e4       0xf4 /home/lodge/STM32MP157/tf-a/tf-a-stm32mp/../build/trusted/bl32/gicv2_helpers.o
 .debug_frame   0x00000000000017d8      0x288 /home/lodge/STM32MP157/tf-a/tf-a-stm32mp/../build/trusted/bl32/gicv2_main.o
 .debug_frame   0x0000000000001a60      0x1b0 /home/lodge/STM32MP157/tf-a/tf-a-stm32mp/../build/trusted/bl32/plat_gicv2.o
 .debug_frame   0x0000000000001c10       0xa8 /home/lodge/STM32MP157/tf-a/tf-a-stm32mp/../build/trusted/bl32/stm32_gic.o
 .debug_frame   0x0000000000001cb8       0x28 /home/lodge/STM32MP157/tf-a/tf-a-stm32mp/../build/trusted/bl32/plat_psci_common.o
 .debug_frame   0x0000000000001ce0       0x34 /home/lodge/STM32MP157/tf-a/tf-a-stm32mp/../build/trusted/bl32/bsec_svc.o
 .debug_frame   0x0000000000001d14       0x28 /home/lodge/STM32MP157/tf-a/tf-a-stm32mp/../build/trusted/bl32/low_power_svc.o
 .debug_frame   0x0000000000001d3c       0x34 /home/lodge/STM32MP157/tf-a/tf-a-stm32mp/../build/trusted/bl32/pwr_svc.o
 .debug_frame   0x0000000000001d70       0x6c /home/lodge/STM32MP157/tf-a/tf-a-stm32mp/../build/trusted/bl32/rcc_svc.o
 .debug_frame   0x0000000000001ddc       0x44 /home/lodge/STM32MP157/tf-a/tf-a-stm32mp/../build/trusted/bl32/stm32mp1_svc_setup.o
 .debug_frame   0x0000000000001e20      0x104 /home/lodge/STM32MP157/tf-a/tf-a-stm32mp/../build/trusted/bl32/base.o
 .debug_frame   0x0000000000001f24      0x1f4 /home/lodge/STM32MP157/tf-a/tf-a-stm32mp/../build/trusted/bl32/clock.o
 .debug_frame   0x0000000000002118       0x6c /home/lodge/STM32MP157/tf-a/tf-a-stm32mp/../build/trusted/bl32/entry.o
 .debug_frame   0x0000000000002184      0x10c /home/lodge/STM32MP157/tf-a/tf-a-stm32mp/../build/trusted/bl32/reset_domain.o
 .debug_frame   0x0000000000002290       0x90 /home/lodge/STM32MP157/tf-a/tf-a-stm32mp/../build/trusted/bl32/smt.o
 .debug_frame   0x0000000000002320      0x248 /home/lodge/STM32MP157/tf-a/tf-a-stm32mp/../build/trusted/bl32/stm32mp1_scmi.o
 .debug_frame   0x0000000000002568       0x60 /home/lodge/STM32MP157/tf-a/tf-a-stm32mp/../build/trusted/bl32/tf_log.o
 .debug_frame   0x00000000000025c8       0xdc /home/lodge/STM32MP157/tf-a/tf-a-stm32mp/../build/trusted/bl32/multi_console.o
 .debug_frame   0x00000000000026a4       0x20 /home/lodge/STM32MP157/tf-a/tf-a-stm32mp/../build/trusted/bl32/plat_log_common.o
 .debug_frame   0x00000000000026c4       0x20 /home/lodge/STM32MP157/tf-a/tf-a-stm32mp/../build/trusted/bl32/plat_common.o
 .debug_frame   0x00000000000026e4       0x20 /home/lodge/STM32MP157/tf-a/tf-a-stm32mp/../build/trusted/bl32/ctzdi2.o
 .debug_frame   0x0000000000002704       0x30 /home/lodge/STM32MP157/tf-a/tf-a-stm32mp/../build/trusted/bl32/udivmoddi4.o
 .debug_frame   0x0000000000002734      0x1ac /home/lodge/STM32MP157/tf-a/tf-a-stm32mp/../build/trusted/bl32/stm32mp_common.o
 .debug_frame   0x00000000000028e0      0x1f0 /home/lodge/STM32MP157/tf-a/tf-a-stm32mp/../build/trusted/bl32/stm32mp1_private.o
 .debug_frame   0x0000000000002ad0       0xf0 /home/lodge/STM32MP157/tf-a/tf-a-stm32mp/../build/trusted/bl32/xlat_tables_arch.o
 .debug_frame   0x0000000000002bc0      0x13c /home/lodge/STM32MP157/tf-a/tf-a-stm32mp/../build/trusted/bl32/xlat_tables_context.o
 .debug_frame   0x0000000000002cfc      0x250 /home/lodge/STM32MP157/tf-a/tf-a-stm32mp/../build/trusted/bl32/xlat_tables_core.o
 .debug_frame   0x0000000000002f4c       0xc4 /home/lodge/STM32MP157/tf-a/tf-a-stm32mp/../build/trusted/bl32/xlat_tables_utils.o
 .debug_frame   0x0000000000003010      0x108 /home/lodge/STM32MP157/tf-a/tf-a-stm32mp/../build/trusted/bl32/tzc400.o
 .debug_frame   0x0000000000003118       0x58 /home/lodge/STM32MP157/tf-a/tf-a-stm32mp/../build/trusted/bl32/delay_timer.o
 .debug_frame   0x0000000000003170       0x54 /home/lodge/STM32MP157/tf-a/tf-a-stm32mp/../build/trusted/bl32/generic_delay_timer.o
 .debug_frame   0x00000000000031c4      0x358 /home/lodge/STM32MP157/tf-a/tf-a-stm32mp/../build/trusted/bl32/bsec2.o
 .debug_frame   0x000000000000351c      0x24c /home/lodge/STM32MP157/tf-a/tf-a-stm32mp/../build/trusted/bl32/stm32mp_clkfunc.o
 .debug_frame   0x0000000000003768      0x668 /home/lodge/STM32MP157/tf-a/tf-a-stm32mp/../build/trusted/bl32/stm32mp1_clk.o
 .debug_frame   0x0000000000003dd0      0x128 /home/lodge/STM32MP157/tf-a/tf-a-stm32mp/../build/trusted/bl32/stm32mp1_ddr_helpers.o
 .debug_frame   0x0000000000003ef8       0xc4 /home/lodge/STM32MP157/tf-a/tf-a-stm32mp/../build/trusted/bl32/stm32_gpio.o
 .debug_frame   0x0000000000003fbc      0x1fc /home/lodge/STM32MP157/tf-a/tf-a-stm32mp/../build/trusted/bl32/stm32_i2c.o
 .debug_frame   0x00000000000041b8       0x78 /home/lodge/STM32MP157/tf-a/tf-a-stm32mp/../build/trusted/bl32/stm32_iwdg.o
 .debug_frame   0x0000000000004230      0x20c /home/lodge/STM32MP157/tf-a/tf-a-stm32mp/../build/trusted/bl32/stm32mp_pmic.o
 .debug_frame   0x000000000000443c      0x250 /home/lodge/STM32MP157/tf-a/tf-a-stm32mp/../build/trusted/bl32/stpmic1.o
 .debug_frame   0x000000000000468c       0x68 /home/lodge/STM32MP157/tf-a/tf-a-stm32mp/../build/trusted/bl32/stm32mp1_reset.o
 .debug_frame   0x00000000000046f4      0x340 /home/lodge/STM32MP157/tf-a/tf-a-stm32mp/../build/trusted/bl32/stm32mp_dt.o
 .debug_frame   0x0000000000004a34       0xbc /home/lodge/STM32MP157/tf-a/tf-a-stm32mp/../build/trusted/bl32/stm32mp_shres_helpers.o
 .debug_frame   0x0000000000004af0      0x184 /home/lodge/STM32MP157/tf-a/tf-a-stm32mp/../build/trusted/bl32/stm32mp1_context.o
 .debug_frame   0x0000000000004c74       0x70 /home/lodge/STM32MP157/tf-a/tf-a-stm32mp/../build/trusted/bl32/stm32mp1_dbgmcu.o
 .debug_frame   0x0000000000004ce4       0x4c /home/lodge/STM32MP157/tf-a/tf-a-stm32mp/../build/trusted/bl32/stm32mp1_security.o
 .debug_frame   0x0000000000004d30       0x60 /home/lodge/STM32MP157/tf-a/tf-a-stm32mp/../build/trusted/bl32/stm32mp1_syscfg.o
 .debug_frame   0x0000000000004d90       0x60 /home/lodge/STM32MP157/tf-a/tf-a-stm32mp/../build/trusted/bl32/entrypoint.o
 .debug_frame   0x0000000000004df0       0x30 /home/lodge/STM32MP157/tf-a/tf-a-stm32mp/../build/trusted/bl32/cpu_data.o
 .debug_frame   0x0000000000004e20       0x90 /home/lodge/STM32MP157/tf-a/tf-a-stm32mp/../build/trusted/bl32/cpu_helpers.o
 .debug_frame   0x0000000000004eb0       0x30 /home/lodge/STM32MP157/tf-a/tf-a-stm32mp/../build/trusted/bl32/spinlock.o
 .debug_frame   0x0000000000004ee0       0x50 /home/lodge/STM32MP157/tf-a/tf-a-stm32mp/../build/trusted/bl32/psci_helpers.o
 .debug_frame   0x0000000000004f30       0x30 /home/lodge/STM32MP157/tf-a/tf-a-stm32mp/../build/trusted/bl32/platform_mp_stack.o
 .debug_frame   0x0000000000004f60       0x90 /home/lodge/STM32MP157/tf-a/tf-a-stm32mp/../build/trusted/bl32/debug.o
 .debug_frame   0x0000000000004ff0       0xa0 /home/lodge/STM32MP157/tf-a/tf-a-stm32mp/../build/trusted/bl32/cache_helpers.o
 .debug_frame   0x0000000000005090       0x60 /home/lodge/STM32MP157/tf-a/tf-a-stm32mp/../build/trusted/bl32/misc_helpers.o
 .debug_frame   0x00000000000050f0       0xa0 /home/lodge/STM32MP157/tf-a/tf-a-stm32mp/../build/trusted/bl32/platform_helpers.o
 .debug_frame   0x0000000000005190       0x80 /home/lodge/STM32MP157/tf-a/tf-a-stm32mp/../build/trusted/bl32/stm32_console.o
 .debug_frame   0x0000000000005210       0x30 /home/lodge/STM32MP157/tf-a/tf-a-stm32mp/../build/trusted/bl32/enable_mmu.o
 .debug_frame   0x0000000000005240       0x70 /home/lodge/STM32MP157/tf-a/tf-a-stm32mp/../build/trusted/bl32/cortex_a7.o
 .debug_frame   0x00000000000052b0      0x110 /home/lodge/STM32MP157/tf-a/tf-a-stm32mp/../build/trusted/bl32/stm32mp1_helper.o
 .debug_frame   0x00000000000053c0      0x148 /home/lodge/STM32MP157/tf-a/tf-a-stm32mp/../build/trusted/lib/libfdt.a(fdt.o)
 .debug_frame   0x0000000000005508       0x48 /home/lodge/STM32MP157/tf-a/tf-a-stm32mp/../build/trusted/lib/libfdt.a(fdt_addresses.o)
 .debug_frame   0x0000000000005550      0x4cc /home/lodge/STM32MP157/tf-a/tf-a-stm32mp/../build/trusted/lib/libfdt.a(fdt_ro.o)
 .debug_frame   0x0000000000005a1c       0x28 /home/lodge/STM32MP157/tf-a/tf-a-stm32mp/../build/trusted/lib/libc.a(assert.o)
 .debug_frame   0x0000000000005a44       0x28 /home/lodge/STM32MP157/tf-a/tf-a-stm32mp/../build/trusted/lib/libc.a(memchr.o)
 .debug_frame   0x0000000000005a6c       0x28 /home/lodge/STM32MP157/tf-a/tf-a-stm32mp/../build/trusted/lib/libc.a(memcmp.o)
 .debug_frame   0x0000000000005a94       0x28 /home/lodge/STM32MP157/tf-a/tf-a-stm32mp/../build/trusted/lib/libc.a(memcpy.o)
 .debug_frame   0x0000000000005abc       0x3c /home/lodge/STM32MP157/tf-a/tf-a-stm32mp/../build/trusted/lib/libc.a(memmove.o)
 .debug_frame   0x0000000000005af8       0x20 /home/lodge/STM32MP157/tf-a/tf-a-stm32mp/../build/trusted/lib/libc.a(memset.o)
 .debug_frame   0x0000000000005b18       0xa0 /home/lodge/STM32MP157/tf-a/tf-a-stm32mp/../build/trusted/lib/libc.a(printf.o)
 .debug_frame   0x0000000000005bb8       0x28 /home/lodge/STM32MP157/tf-a/tf-a-stm32mp/../build/trusted/lib/libc.a(putchar.o)
 .debug_frame   0x0000000000005be0       0x20 /home/lodge/STM32MP157/tf-a/tf-a-stm32mp/../build/trusted/lib/libc.a(strchr.o)
 .debug_frame   0x0000000000005c00       0x20 /home/lodge/STM32MP157/tf-a/tf-a-stm32mp/../build/trusted/lib/libc.a(strcmp.o)
 .debug_frame   0x0000000000005c20       0x28 /home/lodge/STM32MP157/tf-a/tf-a-stm32mp/../build/trusted/lib/libc.a(strlcpy.o)
 .debug_frame   0x0000000000005c48       0x20 /home/lodge/STM32MP157/tf-a/tf-a-stm32mp/../build/trusted/lib/libc.a(strlen.o)
 .debug_frame   0x0000000000005c68       0x28 /home/lodge/STM32MP157/tf-a/tf-a-stm32mp/../build/trusted/lib/libc.a(strncmp.o)
 .debug_frame   0x0000000000005c90       0x20 /home/lodge/STM32MP157/tf-a/tf-a-stm32mp/../build/trusted/lib/libc.a(strnlen.o)
 .debug_frame   0x0000000000005cb0       0x28 /home/lodge/STM32MP157/tf-a/tf-a-stm32mp/../build/trusted/lib/libc.a(strrchr.o)
